Archive member included because of file (symbol)

c:/altera/14.0/nios2eds/bin/gnu/h-x86_64-mingw32/bin/../lib/gcc/nios2-elf/4.7.3/../../../../../H-x86_64-mingw32/nios2-elf/lib/mno-hw-mul\libc.a(lib_a-printf.o)
                              obj/default/main.o (printf)
c:/altera/14.0/nios2eds/bin/gnu/h-x86_64-mingw32/bin/../lib/gcc/nios2-elf/4.7.3/../../../../../H-x86_64-mingw32/nios2-elf/lib/mno-hw-mul\libc.a(lib_a-puts.o)
                              obj/default/main.o (puts)
c:/altera/14.0/nios2eds/bin/gnu/h-x86_64-mingw32/bin/../lib/gcc/nios2-elf/4.7.3/../../../../../H-x86_64-mingw32/nios2-elf/lib/mno-hw-mul\libc.a(lib_a-strlen.o)
                              c:/altera/14.0/nios2eds/bin/gnu/h-x86_64-mingw32/bin/../lib/gcc/nios2-elf/4.7.3/../../../../../H-x86_64-mingw32/nios2-elf/lib/mno-hw-mul\libc.a(lib_a-puts.o) (strlen)
c:/altera/14.0/nios2eds/bin/gnu/h-x86_64-mingw32/bin/../lib/gcc/nios2-elf/4.7.3/../../../../../H-x86_64-mingw32/nios2-elf/lib/mno-hw-mul\libc.a(lib_a-vfprintf.o)
                              c:/altera/14.0/nios2eds/bin/gnu/h-x86_64-mingw32/bin/../lib/gcc/nios2-elf/4.7.3/../../../../../H-x86_64-mingw32/nios2-elf/lib/mno-hw-mul\libc.a(lib_a-printf.o) (___vfprintf_internal_r)
c:/altera/14.0/nios2eds/bin/gnu/h-x86_64-mingw32/bin/../lib/gcc/nios2-elf/4.7.3/../../../../../H-x86_64-mingw32/nios2-elf/lib/mno-hw-mul\libc.a(lib_a-wsetup.o)
                              c:/altera/14.0/nios2eds/bin/gnu/h-x86_64-mingw32/bin/../lib/gcc/nios2-elf/4.7.3/../../../../../H-x86_64-mingw32/nios2-elf/lib/mno-hw-mul\libc.a(lib_a-vfprintf.o) (__swsetup_r)
c:/altera/14.0/nios2eds/bin/gnu/h-x86_64-mingw32/bin/../lib/gcc/nios2-elf/4.7.3/../../../../../H-x86_64-mingw32/nios2-elf/lib/mno-hw-mul\libc.a(lib_a-dtoa.o)
                              c:/altera/14.0/nios2eds/bin/gnu/h-x86_64-mingw32/bin/../lib/gcc/nios2-elf/4.7.3/../../../../../H-x86_64-mingw32/nios2-elf/lib/mno-hw-mul\libc.a(lib_a-vfprintf.o) (_dtoa_r)
c:/altera/14.0/nios2eds/bin/gnu/h-x86_64-mingw32/bin/../lib/gcc/nios2-elf/4.7.3/../../../../../H-x86_64-mingw32/nios2-elf/lib/mno-hw-mul\libc.a(lib_a-fflush.o)
                              c:/altera/14.0/nios2eds/bin/gnu/h-x86_64-mingw32/bin/../lib/gcc/nios2-elf/4.7.3/../../../../../H-x86_64-mingw32/nios2-elf/lib/mno-hw-mul\libc.a(lib_a-vfprintf.o) (_fflush_r)
c:/altera/14.0/nios2eds/bin/gnu/h-x86_64-mingw32/bin/../lib/gcc/nios2-elf/4.7.3/../../../../../H-x86_64-mingw32/nios2-elf/lib/mno-hw-mul\libc.a(lib_a-findfp.o)
                              c:/altera/14.0/nios2eds/bin/gnu/h-x86_64-mingw32/bin/../lib/gcc/nios2-elf/4.7.3/../../../../../H-x86_64-mingw32/nios2-elf/lib/mno-hw-mul\libc.a(lib_a-vfprintf.o) (__sinit)
c:/altera/14.0/nios2eds/bin/gnu/h-x86_64-mingw32/bin/../lib/gcc/nios2-elf/4.7.3/../../../../../H-x86_64-mingw32/nios2-elf/lib/mno-hw-mul\libc.a(lib_a-freer.o)
                              c:/altera/14.0/nios2eds/bin/gnu/h-x86_64-mingw32/bin/../lib/gcc/nios2-elf/4.7.3/../../../../../H-x86_64-mingw32/nios2-elf/lib/mno-hw-mul\libc.a(lib_a-wsetup.o) (_free_r)
c:/altera/14.0/nios2eds/bin/gnu/h-x86_64-mingw32/bin/../lib/gcc/nios2-elf/4.7.3/../../../../../H-x86_64-mingw32/nios2-elf/lib/mno-hw-mul\libc.a(lib_a-fvwrite.o)
                              c:/altera/14.0/nios2eds/bin/gnu/h-x86_64-mingw32/bin/../lib/gcc/nios2-elf/4.7.3/../../../../../H-x86_64-mingw32/nios2-elf/lib/mno-hw-mul\libc.a(lib_a-puts.o) (__sfvwrite_r)
c:/altera/14.0/nios2eds/bin/gnu/h-x86_64-mingw32/bin/../lib/gcc/nios2-elf/4.7.3/../../../../../H-x86_64-mingw32/nios2-elf/lib/mno-hw-mul\libc.a(lib_a-fwalk.o)
                              c:/altera/14.0/nios2eds/bin/gnu/h-x86_64-mingw32/bin/../lib/gcc/nios2-elf/4.7.3/../../../../../H-x86_64-mingw32/nios2-elf/lib/mno-hw-mul\libc.a(lib_a-findfp.o) (_fwalk)
c:/altera/14.0/nios2eds/bin/gnu/h-x86_64-mingw32/bin/../lib/gcc/nios2-elf/4.7.3/../../../../../H-x86_64-mingw32/nios2-elf/lib/mno-hw-mul\libc.a(lib_a-impure.o)
                              c:/altera/14.0/nios2eds/bin/gnu/h-x86_64-mingw32/bin/../lib/gcc/nios2-elf/4.7.3/../../../../../H-x86_64-mingw32/nios2-elf/lib/mno-hw-mul\libc.a(lib_a-fflush.o) (_global_impure_ptr)
c:/altera/14.0/nios2eds/bin/gnu/h-x86_64-mingw32/bin/../lib/gcc/nios2-elf/4.7.3/../../../../../H-x86_64-mingw32/nios2-elf/lib/mno-hw-mul\libc.a(lib_a-locale.o)
                              c:/altera/14.0/nios2eds/bin/gnu/h-x86_64-mingw32/bin/../lib/gcc/nios2-elf/4.7.3/../../../../../H-x86_64-mingw32/nios2-elf/lib/mno-hw-mul\libc.a(lib_a-vfprintf.o) (_localeconv_r)
c:/altera/14.0/nios2eds/bin/gnu/h-x86_64-mingw32/bin/../lib/gcc/nios2-elf/4.7.3/../../../../../H-x86_64-mingw32/nios2-elf/lib/mno-hw-mul\libc.a(lib_a-makebuf.o)
                              c:/altera/14.0/nios2eds/bin/gnu/h-x86_64-mingw32/bin/../lib/gcc/nios2-elf/4.7.3/../../../../../H-x86_64-mingw32/nios2-elf/lib/mno-hw-mul\libc.a(lib_a-wsetup.o) (__smakebuf_r)
c:/altera/14.0/nios2eds/bin/gnu/h-x86_64-mingw32/bin/../lib/gcc/nios2-elf/4.7.3/../../../../../H-x86_64-mingw32/nios2-elf/lib/mno-hw-mul\libc.a(lib_a-mallocr.o)
                              c:/altera/14.0/nios2eds/bin/gnu/h-x86_64-mingw32/bin/../lib/gcc/nios2-elf/4.7.3/../../../../../H-x86_64-mingw32/nios2-elf/lib/mno-hw-mul\libc.a(lib_a-findfp.o) (_malloc_r)
c:/altera/14.0/nios2eds/bin/gnu/h-x86_64-mingw32/bin/../lib/gcc/nios2-elf/4.7.3/../../../../../H-x86_64-mingw32/nios2-elf/lib/mno-hw-mul\libc.a(lib_a-memchr.o)
                              c:/altera/14.0/nios2eds/bin/gnu/h-x86_64-mingw32/bin/../lib/gcc/nios2-elf/4.7.3/../../../../../H-x86_64-mingw32/nios2-elf/lib/mno-hw-mul\libc.a(lib_a-vfprintf.o) (memchr)
c:/altera/14.0/nios2eds/bin/gnu/h-x86_64-mingw32/bin/../lib/gcc/nios2-elf/4.7.3/../../../../../H-x86_64-mingw32/nios2-elf/lib/mno-hw-mul\libc.a(lib_a-memcpy.o)
                              c:/altera/14.0/nios2eds/bin/gnu/h-x86_64-mingw32/bin/../lib/gcc/nios2-elf/4.7.3/../../../../../H-x86_64-mingw32/nios2-elf/lib/mno-hw-mul\libc.a(lib_a-dtoa.o) (memcpy)
c:/altera/14.0/nios2eds/bin/gnu/h-x86_64-mingw32/bin/../lib/gcc/nios2-elf/4.7.3/../../../../../H-x86_64-mingw32/nios2-elf/lib/mno-hw-mul\libc.a(lib_a-memmove.o)
                              c:/altera/14.0/nios2eds/bin/gnu/h-x86_64-mingw32/bin/../lib/gcc/nios2-elf/4.7.3/../../../../../H-x86_64-mingw32/nios2-elf/lib/mno-hw-mul\libc.a(lib_a-fvwrite.o) (memmove)
c:/altera/14.0/nios2eds/bin/gnu/h-x86_64-mingw32/bin/../lib/gcc/nios2-elf/4.7.3/../../../../../H-x86_64-mingw32/nios2-elf/lib/mno-hw-mul\libc.a(lib_a-memset.o)
                              c:/altera/14.0/nios2eds/bin/gnu/h-x86_64-mingw32/bin/../lib/gcc/nios2-elf/4.7.3/../../../../../H-x86_64-mingw32/nios2-elf/lib/mno-hw-mul\libc.a(lib_a-findfp.o) (memset)
c:/altera/14.0/nios2eds/bin/gnu/h-x86_64-mingw32/bin/../lib/gcc/nios2-elf/4.7.3/../../../../../H-x86_64-mingw32/nios2-elf/lib/mno-hw-mul\libc.a(lib_a-mprec.o)
                              c:/altera/14.0/nios2eds/bin/gnu/h-x86_64-mingw32/bin/../lib/gcc/nios2-elf/4.7.3/../../../../../H-x86_64-mingw32/nios2-elf/lib/mno-hw-mul\libc.a(lib_a-dtoa.o) (_Balloc)
c:/altera/14.0/nios2eds/bin/gnu/h-x86_64-mingw32/bin/../lib/gcc/nios2-elf/4.7.3/../../../../../H-x86_64-mingw32/nios2-elf/lib/mno-hw-mul\libc.a(lib_a-reallocr.o)
                              c:/altera/14.0/nios2eds/bin/gnu/h-x86_64-mingw32/bin/../lib/gcc/nios2-elf/4.7.3/../../../../../H-x86_64-mingw32/nios2-elf/lib/mno-hw-mul\libc.a(lib_a-fvwrite.o) (_realloc_r)
c:/altera/14.0/nios2eds/bin/gnu/h-x86_64-mingw32/bin/../lib/gcc/nios2-elf/4.7.3/../../../../../H-x86_64-mingw32/nios2-elf/lib/mno-hw-mul\libc.a(lib_a-s_isinfd.o)
                              c:/altera/14.0/nios2eds/bin/gnu/h-x86_64-mingw32/bin/../lib/gcc/nios2-elf/4.7.3/../../../../../H-x86_64-mingw32/nios2-elf/lib/mno-hw-mul\libc.a(lib_a-vfprintf.o) (__isinfd)
c:/altera/14.0/nios2eds/bin/gnu/h-x86_64-mingw32/bin/../lib/gcc/nios2-elf/4.7.3/../../../../../H-x86_64-mingw32/nios2-elf/lib/mno-hw-mul\libc.a(lib_a-s_isnand.o)
                              c:/altera/14.0/nios2eds/bin/gnu/h-x86_64-mingw32/bin/../lib/gcc/nios2-elf/4.7.3/../../../../../H-x86_64-mingw32/nios2-elf/lib/mno-hw-mul\libc.a(lib_a-vfprintf.o) (__isnand)
c:/altera/14.0/nios2eds/bin/gnu/h-x86_64-mingw32/bin/../lib/gcc/nios2-elf/4.7.3/../../../../../H-x86_64-mingw32/nios2-elf/lib/mno-hw-mul\libc.a(lib_a-sbrkr.o)
                              c:/altera/14.0/nios2eds/bin/gnu/h-x86_64-mingw32/bin/../lib/gcc/nios2-elf/4.7.3/../../../../../H-x86_64-mingw32/nios2-elf/lib/mno-hw-mul\libc.a(lib_a-freer.o) (_sbrk_r)
c:/altera/14.0/nios2eds/bin/gnu/h-x86_64-mingw32/bin/../lib/gcc/nios2-elf/4.7.3/../../../../../H-x86_64-mingw32/nios2-elf/lib/mno-hw-mul\libc.a(lib_a-stdio.o)
                              c:/altera/14.0/nios2eds/bin/gnu/h-x86_64-mingw32/bin/../lib/gcc/nios2-elf/4.7.3/../../../../../H-x86_64-mingw32/nios2-elf/lib/mno-hw-mul\libc.a(lib_a-findfp.o) (__sread)
c:/altera/14.0/nios2eds/bin/gnu/h-x86_64-mingw32/bin/../lib/gcc/nios2-elf/4.7.3/../../../../../H-x86_64-mingw32/nios2-elf/lib/mno-hw-mul\libc.a(lib_a-strcmp.o)
                              c:/altera/14.0/nios2eds/bin/gnu/h-x86_64-mingw32/bin/../lib/gcc/nios2-elf/4.7.3/../../../../../H-x86_64-mingw32/nios2-elf/lib/mno-hw-mul\libc.a(lib_a-locale.o) (strcmp)
c:/altera/14.0/nios2eds/bin/gnu/h-x86_64-mingw32/bin/../lib/gcc/nios2-elf/4.7.3/../../../../../H-x86_64-mingw32/nios2-elf/lib/mno-hw-mul\libc.a(lib_a-writer.o)
                              c:/altera/14.0/nios2eds/bin/gnu/h-x86_64-mingw32/bin/../lib/gcc/nios2-elf/4.7.3/../../../../../H-x86_64-mingw32/nios2-elf/lib/mno-hw-mul\libc.a(lib_a-stdio.o) (_write_r)
c:/altera/14.0/nios2eds/bin/gnu/h-x86_64-mingw32/bin/../lib/gcc/nios2-elf/4.7.3/../../../../../H-x86_64-mingw32/nios2-elf/lib/mno-hw-mul\libc.a(lib_a-callocr.o)
                              c:/altera/14.0/nios2eds/bin/gnu/h-x86_64-mingw32/bin/../lib/gcc/nios2-elf/4.7.3/../../../../../H-x86_64-mingw32/nios2-elf/lib/mno-hw-mul\libc.a(lib_a-mprec.o) (_calloc_r)
c:/altera/14.0/nios2eds/bin/gnu/h-x86_64-mingw32/bin/../lib/gcc/nios2-elf/4.7.3/../../../../../H-x86_64-mingw32/nios2-elf/lib/mno-hw-mul\libc.a(lib_a-closer.o)
                              c:/altera/14.0/nios2eds/bin/gnu/h-x86_64-mingw32/bin/../lib/gcc/nios2-elf/4.7.3/../../../../../H-x86_64-mingw32/nios2-elf/lib/mno-hw-mul\libc.a(lib_a-stdio.o) (_close_r)
c:/altera/14.0/nios2eds/bin/gnu/h-x86_64-mingw32/bin/../lib/gcc/nios2-elf/4.7.3/../../../../../H-x86_64-mingw32/nios2-elf/lib/mno-hw-mul\libc.a(lib_a-fclose.o)
                              c:/altera/14.0/nios2eds/bin/gnu/h-x86_64-mingw32/bin/../lib/gcc/nios2-elf/4.7.3/../../../../../H-x86_64-mingw32/nios2-elf/lib/mno-hw-mul\libc.a(lib_a-findfp.o) (fclose)
c:/altera/14.0/nios2eds/bin/gnu/h-x86_64-mingw32/bin/../lib/gcc/nios2-elf/4.7.3/../../../../../H-x86_64-mingw32/nios2-elf/lib/mno-hw-mul\libc.a(lib_a-fstatr.o)
                              c:/altera/14.0/nios2eds/bin/gnu/h-x86_64-mingw32/bin/../lib/gcc/nios2-elf/4.7.3/../../../../../H-x86_64-mingw32/nios2-elf/lib/mno-hw-mul\libc.a(lib_a-makebuf.o) (_fstat_r)
c:/altera/14.0/nios2eds/bin/gnu/h-x86_64-mingw32/bin/../lib/gcc/nios2-elf/4.7.3/../../../../../H-x86_64-mingw32/nios2-elf/lib/mno-hw-mul\libc.a(lib_a-int_errno.o)
                              c:/altera/14.0/nios2eds/bin/gnu/h-x86_64-mingw32/bin/../lib/gcc/nios2-elf/4.7.3/../../../../../H-x86_64-mingw32/nios2-elf/lib/mno-hw-mul\libc.a(lib_a-sbrkr.o) (errno)
c:/altera/14.0/nios2eds/bin/gnu/h-x86_64-mingw32/bin/../lib/gcc/nios2-elf/4.7.3/../../../../../H-x86_64-mingw32/nios2-elf/lib/mno-hw-mul\libc.a(lib_a-isattyr.o)
                              c:/altera/14.0/nios2eds/bin/gnu/h-x86_64-mingw32/bin/../lib/gcc/nios2-elf/4.7.3/../../../../../H-x86_64-mingw32/nios2-elf/lib/mno-hw-mul\libc.a(lib_a-makebuf.o) (_isatty_r)
c:/altera/14.0/nios2eds/bin/gnu/h-x86_64-mingw32/bin/../lib/gcc/nios2-elf/4.7.3/../../../../../H-x86_64-mingw32/nios2-elf/lib/mno-hw-mul\libc.a(lib_a-lseekr.o)
                              c:/altera/14.0/nios2eds/bin/gnu/h-x86_64-mingw32/bin/../lib/gcc/nios2-elf/4.7.3/../../../../../H-x86_64-mingw32/nios2-elf/lib/mno-hw-mul\libc.a(lib_a-stdio.o) (_lseek_r)
c:/altera/14.0/nios2eds/bin/gnu/h-x86_64-mingw32/bin/../lib/gcc/nios2-elf/4.7.3/../../../../../H-x86_64-mingw32/nios2-elf/lib/mno-hw-mul\libc.a(lib_a-readr.o)
                              c:/altera/14.0/nios2eds/bin/gnu/h-x86_64-mingw32/bin/../lib/gcc/nios2-elf/4.7.3/../../../../../H-x86_64-mingw32/nios2-elf/lib/mno-hw-mul\libc.a(lib_a-stdio.o) (_read_r)
c:/altera/14.0/nios2eds/bin/gnu/h-x86_64-mingw32/bin/../lib/gcc/nios2-elf/4.7.3/mno-hw-mul\libgcc.a(_udivdi3.o)
                              c:/altera/14.0/nios2eds/bin/gnu/h-x86_64-mingw32/bin/../lib/gcc/nios2-elf/4.7.3/../../../../../H-x86_64-mingw32/nios2-elf/lib/mno-hw-mul\libc.a(lib_a-vfprintf.o) (__udivdi3)
c:/altera/14.0/nios2eds/bin/gnu/h-x86_64-mingw32/bin/../lib/gcc/nios2-elf/4.7.3/mno-hw-mul\libgcc.a(_umoddi3.o)
                              c:/altera/14.0/nios2eds/bin/gnu/h-x86_64-mingw32/bin/../lib/gcc/nios2-elf/4.7.3/../../../../../H-x86_64-mingw32/nios2-elf/lib/mno-hw-mul\libc.a(lib_a-vfprintf.o) (__umoddi3)
c:/altera/14.0/nios2eds/bin/gnu/h-x86_64-mingw32/bin/../lib/gcc/nios2-elf/4.7.3/mno-hw-mul\libgcc.a(_addsub_df.o)
                              c:/altera/14.0/nios2eds/bin/gnu/h-x86_64-mingw32/bin/../lib/gcc/nios2-elf/4.7.3/../../../../../H-x86_64-mingw32/nios2-elf/lib/mno-hw-mul\libc.a(lib_a-dtoa.o) (__adddf3)
c:/altera/14.0/nios2eds/bin/gnu/h-x86_64-mingw32/bin/../lib/gcc/nios2-elf/4.7.3/mno-hw-mul\libgcc.a(_mul_df.o)
                              c:/altera/14.0/nios2eds/bin/gnu/h-x86_64-mingw32/bin/../lib/gcc/nios2-elf/4.7.3/../../../../../H-x86_64-mingw32/nios2-elf/lib/mno-hw-mul\libc.a(lib_a-dtoa.o) (__muldf3)
c:/altera/14.0/nios2eds/bin/gnu/h-x86_64-mingw32/bin/../lib/gcc/nios2-elf/4.7.3/mno-hw-mul\libgcc.a(_div_df.o)
                              c:/altera/14.0/nios2eds/bin/gnu/h-x86_64-mingw32/bin/../lib/gcc/nios2-elf/4.7.3/../../../../../H-x86_64-mingw32/nios2-elf/lib/mno-hw-mul\libc.a(lib_a-dtoa.o) (__divdf3)
c:/altera/14.0/nios2eds/bin/gnu/h-x86_64-mingw32/bin/../lib/gcc/nios2-elf/4.7.3/mno-hw-mul\libgcc.a(_eq_df.o)
                              c:/altera/14.0/nios2eds/bin/gnu/h-x86_64-mingw32/bin/../lib/gcc/nios2-elf/4.7.3/../../../../../H-x86_64-mingw32/nios2-elf/lib/mno-hw-mul\libc.a(lib_a-vfprintf.o) (__eqdf2)
c:/altera/14.0/nios2eds/bin/gnu/h-x86_64-mingw32/bin/../lib/gcc/nios2-elf/4.7.3/mno-hw-mul\libgcc.a(_ne_df.o)
                              c:/altera/14.0/nios2eds/bin/gnu/h-x86_64-mingw32/bin/../lib/gcc/nios2-elf/4.7.3/../../../../../H-x86_64-mingw32/nios2-elf/lib/mno-hw-mul\libc.a(lib_a-vfprintf.o) (__nedf2)
c:/altera/14.0/nios2eds/bin/gnu/h-x86_64-mingw32/bin/../lib/gcc/nios2-elf/4.7.3/mno-hw-mul\libgcc.a(_gt_df.o)
                              c:/altera/14.0/nios2eds/bin/gnu/h-x86_64-mingw32/bin/../lib/gcc/nios2-elf/4.7.3/../../../../../H-x86_64-mingw32/nios2-elf/lib/mno-hw-mul\libc.a(lib_a-dtoa.o) (__gtdf2)
c:/altera/14.0/nios2eds/bin/gnu/h-x86_64-mingw32/bin/../lib/gcc/nios2-elf/4.7.3/mno-hw-mul\libgcc.a(_ge_df.o)
                              c:/altera/14.0/nios2eds/bin/gnu/h-x86_64-mingw32/bin/../lib/gcc/nios2-elf/4.7.3/../../../../../H-x86_64-mingw32/nios2-elf/lib/mno-hw-mul\libc.a(lib_a-dtoa.o) (__gedf2)
c:/altera/14.0/nios2eds/bin/gnu/h-x86_64-mingw32/bin/../lib/gcc/nios2-elf/4.7.3/mno-hw-mul\libgcc.a(_lt_df.o)
                              c:/altera/14.0/nios2eds/bin/gnu/h-x86_64-mingw32/bin/../lib/gcc/nios2-elf/4.7.3/../../../../../H-x86_64-mingw32/nios2-elf/lib/mno-hw-mul\libc.a(lib_a-vfprintf.o) (__ltdf2)
c:/altera/14.0/nios2eds/bin/gnu/h-x86_64-mingw32/bin/../lib/gcc/nios2-elf/4.7.3/mno-hw-mul\libgcc.a(_si_to_df.o)
                              c:/altera/14.0/nios2eds/bin/gnu/h-x86_64-mingw32/bin/../lib/gcc/nios2-elf/4.7.3/../../../../../H-x86_64-mingw32/nios2-elf/lib/mno-hw-mul\libc.a(lib_a-dtoa.o) (__floatsidf)
c:/altera/14.0/nios2eds/bin/gnu/h-x86_64-mingw32/bin/../lib/gcc/nios2-elf/4.7.3/mno-hw-mul\libgcc.a(_df_to_si.o)
                              c:/altera/14.0/nios2eds/bin/gnu/h-x86_64-mingw32/bin/../lib/gcc/nios2-elf/4.7.3/../../../../../H-x86_64-mingw32/nios2-elf/lib/mno-hw-mul\libc.a(lib_a-dtoa.o) (__fixdfsi)
c:/altera/14.0/nios2eds/bin/gnu/h-x86_64-mingw32/bin/../lib/gcc/nios2-elf/4.7.3/mno-hw-mul\libgcc.a(_thenan_df.o)
                              c:/altera/14.0/nios2eds/bin/gnu/h-x86_64-mingw32/bin/../lib/gcc/nios2-elf/4.7.3/mno-hw-mul\libgcc.a(_addsub_df.o) (__thenan_df)
c:/altera/14.0/nios2eds/bin/gnu/h-x86_64-mingw32/bin/../lib/gcc/nios2-elf/4.7.3/mno-hw-mul\libgcc.a(_usi_to_df.o)
                              c:/altera/14.0/nios2eds/bin/gnu/h-x86_64-mingw32/bin/../lib/gcc/nios2-elf/4.7.3/../../../../../H-x86_64-mingw32/nios2-elf/lib/mno-hw-mul\libc.a(lib_a-dtoa.o) (__floatunsidf)
c:/altera/14.0/nios2eds/bin/gnu/h-x86_64-mingw32/bin/../lib/gcc/nios2-elf/4.7.3/mno-hw-mul\libgcc.a(lib2-divmod.o)
                              c:/altera/14.0/nios2eds/bin/gnu/h-x86_64-mingw32/bin/../lib/gcc/nios2-elf/4.7.3/../../../../../H-x86_64-mingw32/nios2-elf/lib/mno-hw-mul\libc.a(lib_a-vfprintf.o) (__divsi3)
c:/altera/14.0/nios2eds/bin/gnu/h-x86_64-mingw32/bin/../lib/gcc/nios2-elf/4.7.3/mno-hw-mul\libgcc.a(lib2-mul.o)
                              c:/altera/14.0/nios2eds/bin/gnu/h-x86_64-mingw32/bin/../lib/gcc/nios2-elf/4.7.3/../../../../../H-x86_64-mingw32/nios2-elf/lib/mno-hw-mul\libc.a(lib_a-vfprintf.o) (__mulsi3)
c:/altera/14.0/nios2eds/bin/gnu/h-x86_64-mingw32/bin/../lib/gcc/nios2-elf/4.7.3/mno-hw-mul\libgcc.a(_muldi3.o)
                              c:/altera/14.0/nios2eds/bin/gnu/h-x86_64-mingw32/bin/../lib/gcc/nios2-elf/4.7.3/mno-hw-mul\libgcc.a(_mul_df.o) (__muldi3)
c:/altera/14.0/nios2eds/bin/gnu/h-x86_64-mingw32/bin/../lib/gcc/nios2-elf/4.7.3/mno-hw-mul\libgcc.a(_clz.o)
                              c:/altera/14.0/nios2eds/bin/gnu/h-x86_64-mingw32/bin/../lib/gcc/nios2-elf/4.7.3/mno-hw-mul\libgcc.a(_udivdi3.o) (__clz_tab)
c:/altera/14.0/nios2eds/bin/gnu/h-x86_64-mingw32/bin/../lib/gcc/nios2-elf/4.7.3/mno-hw-mul\libgcc.a(_clzsi2.o)
                              c:/altera/14.0/nios2eds/bin/gnu/h-x86_64-mingw32/bin/../lib/gcc/nios2-elf/4.7.3/mno-hw-mul\libgcc.a(_si_to_df.o) (__clzsi2)
c:/altera/14.0/nios2eds/bin/gnu/h-x86_64-mingw32/bin/../lib/gcc/nios2-elf/4.7.3/mno-hw-mul\libgcc.a(_pack_df.o)
                              c:/altera/14.0/nios2eds/bin/gnu/h-x86_64-mingw32/bin/../lib/gcc/nios2-elf/4.7.3/mno-hw-mul\libgcc.a(_addsub_df.o) (__pack_d)
c:/altera/14.0/nios2eds/bin/gnu/h-x86_64-mingw32/bin/../lib/gcc/nios2-elf/4.7.3/mno-hw-mul\libgcc.a(_unpack_df.o)
                              c:/altera/14.0/nios2eds/bin/gnu/h-x86_64-mingw32/bin/../lib/gcc/nios2-elf/4.7.3/mno-hw-mul\libgcc.a(_addsub_df.o) (__unpack_d)
c:/altera/14.0/nios2eds/bin/gnu/h-x86_64-mingw32/bin/../lib/gcc/nios2-elf/4.7.3/mno-hw-mul\libgcc.a(_fpcmp_parts_df.o)
                              c:/altera/14.0/nios2eds/bin/gnu/h-x86_64-mingw32/bin/../lib/gcc/nios2-elf/4.7.3/mno-hw-mul\libgcc.a(_eq_df.o) (__fpcmp_parts_d)
c:/altera/14.0/nios2eds/bin/gnu/h-x86_64-mingw32/bin/../lib/gcc/nios2-elf/4.7.3/mno-hw-mul\libgcc.a(_lshrdi3.o)
                              c:/altera/14.0/nios2eds/bin/gnu/h-x86_64-mingw32/bin/../lib/gcc/nios2-elf/4.7.3/mno-hw-mul\libgcc.a(_pack_df.o) (__lshrdi3)
c:/altera/14.0/nios2eds/bin/gnu/h-x86_64-mingw32/bin/../lib/gcc/nios2-elf/4.7.3/mno-hw-mul\libgcc.a(_ashldi3.o)
                              c:/altera/14.0/nios2eds/bin/gnu/h-x86_64-mingw32/bin/../lib/gcc/nios2-elf/4.7.3/mno-hw-mul\libgcc.a(_pack_df.o) (__ashldi3)
../ControlUnit_bsp/\libucosii_bsp.a(alt_close.o)
                              c:/altera/14.0/nios2eds/bin/gnu/h-x86_64-mingw32/bin/../lib/gcc/nios2-elf/4.7.3/../../../../../H-x86_64-mingw32/nios2-elf/lib/mno-hw-mul\libc.a(lib_a-closer.o) (close)
../ControlUnit_bsp/\libucosii_bsp.a(alt_dev.o)
                              ../ControlUnit_bsp/\libucosii_bsp.a(alt_close.o) (alt_fd_list)
../ControlUnit_bsp/\libucosii_bsp.a(alt_errno.o)
                              ../ControlUnit_bsp/\libucosii_bsp.a(alt_close.o) (alt_errno)
../ControlUnit_bsp/\libucosii_bsp.a(alt_fstat.o)
                              c:/altera/14.0/nios2eds/bin/gnu/h-x86_64-mingw32/bin/../lib/gcc/nios2-elf/4.7.3/../../../../../H-x86_64-mingw32/nios2-elf/lib/mno-hw-mul\libc.a(lib_a-fstatr.o) (fstat)
../ControlUnit_bsp/\libucosii_bsp.a(alt_iic.o)
                              obj/default/main.o (alt_ic_isr_register)
../ControlUnit_bsp/\libucosii_bsp.a(alt_iic_isr_register.o)
                              ../ControlUnit_bsp/\libucosii_bsp.a(alt_iic.o) (alt_iic_isr_register)
../ControlUnit_bsp/\libucosii_bsp.a(alt_irq_entry.o)
                              ../ControlUnit_bsp/\libucosii_bsp.a(alt_iic_isr_register.o) (alt_irq_entry)
../ControlUnit_bsp/\libucosii_bsp.a(alt_irq_handler.o)
                              ../ControlUnit_bsp/\libucosii_bsp.a(alt_iic_isr_register.o) (alt_irq)
../ControlUnit_bsp/\libucosii_bsp.a(alt_irq_vars.o)
                              ../ControlUnit_bsp/\libucosii_bsp.a(alt_iic.o) (alt_irq_active)
../ControlUnit_bsp/\libucosii_bsp.a(alt_isatty.o)
                              c:/altera/14.0/nios2eds/bin/gnu/h-x86_64-mingw32/bin/../lib/gcc/nios2-elf/4.7.3/../../../../../H-x86_64-mingw32/nios2-elf/lib/mno-hw-mul\libc.a(lib_a-isattyr.o) (isatty)
../ControlUnit_bsp/\libucosii_bsp.a(alt_load.o)
                              ../ControlUnit_bsp//obj/HAL/src/crt0.o (alt_load)
../ControlUnit_bsp/\libucosii_bsp.a(alt_lseek.o)
                              c:/altera/14.0/nios2eds/bin/gnu/h-x86_64-mingw32/bin/../lib/gcc/nios2-elf/4.7.3/../../../../../H-x86_64-mingw32/nios2-elf/lib/mno-hw-mul\libc.a(lib_a-lseekr.o) (lseek)
../ControlUnit_bsp/\libucosii_bsp.a(alt_main.o)
                              ../ControlUnit_bsp//obj/HAL/src/crt0.o (alt_main)
../ControlUnit_bsp/\libucosii_bsp.a(alt_read.o)
                              c:/altera/14.0/nios2eds/bin/gnu/h-x86_64-mingw32/bin/../lib/gcc/nios2-elf/4.7.3/../../../../../H-x86_64-mingw32/nios2-elf/lib/mno-hw-mul\libc.a(lib_a-readr.o) (read)
../ControlUnit_bsp/\libucosii_bsp.a(alt_release_fd.o)
                              ../ControlUnit_bsp/\libucosii_bsp.a(alt_close.o) (alt_release_fd)
../ControlUnit_bsp/\libucosii_bsp.a(alt_sbrk.o)
                              c:/altera/14.0/nios2eds/bin/gnu/h-x86_64-mingw32/bin/../lib/gcc/nios2-elf/4.7.3/../../../../../H-x86_64-mingw32/nios2-elf/lib/mno-hw-mul\libc.a(lib_a-sbrkr.o) (sbrk)
../ControlUnit_bsp/\libucosii_bsp.a(alt_write.o)
                              c:/altera/14.0/nios2eds/bin/gnu/h-x86_64-mingw32/bin/../lib/gcc/nios2-elf/4.7.3/../../../../../H-x86_64-mingw32/nios2-elf/lib/mno-hw-mul\libc.a(lib_a-writer.o) (write)
../ControlUnit_bsp/\libucosii_bsp.a(alt_env_lock.o)
                              ../ControlUnit_bsp/\libucosii_bsp.a(alt_main.o) (alt_envsem)
../ControlUnit_bsp/\libucosii_bsp.a(alt_malloc_lock.o)
                              ../ControlUnit_bsp/\libucosii_bsp.a(alt_main.o) (alt_heapsem)
../ControlUnit_bsp/\libucosii_bsp.a(os_core.o)
                              ../ControlUnit_bsp/\libucosii_bsp.a(alt_malloc_lock.o) (OSRunning)
../ControlUnit_bsp/\libucosii_bsp.a(os_dbg.o)
                              ../ControlUnit_bsp/\libucosii_bsp.a(os_core.o) (OSDebugInit)
../ControlUnit_bsp/\libucosii_bsp.a(os_flag.o)
                              obj/default/main.o (OSFlagCreate)
../ControlUnit_bsp/\libucosii_bsp.a(os_mem.o)
                              ../ControlUnit_bsp/\libucosii_bsp.a(os_core.o) (OS_MemInit)
../ControlUnit_bsp/\libucosii_bsp.a(os_q.o)
                              ../ControlUnit_bsp/\libucosii_bsp.a(os_core.o) (OS_QInit)
../ControlUnit_bsp/\libucosii_bsp.a(os_sem.o)
                              ../ControlUnit_bsp/\libucosii_bsp.a(alt_main.o) (OSSemCreate)
../ControlUnit_bsp/\libucosii_bsp.a(os_task.o)
                              obj/default/main.o (OSTaskCreateExt)
../ControlUnit_bsp/\libucosii_bsp.a(os_time.o)
                              ../ControlUnit_bsp/\libucosii_bsp.a(os_core.o) (OSTimeDly)
../ControlUnit_bsp/\libucosii_bsp.a(alt_sys_init.o)
                              ../ControlUnit_bsp/\libucosii_bsp.a(alt_main.o) (alt_irq_init)
../ControlUnit_bsp/\libucosii_bsp.a(altera_avalon_jtag_uart_fd.o)
                              ../ControlUnit_bsp/\libucosii_bsp.a(alt_sys_init.o) (altera_avalon_jtag_uart_read_fd)
../ControlUnit_bsp/\libucosii_bsp.a(altera_avalon_jtag_uart_init.o)
                              ../ControlUnit_bsp/\libucosii_bsp.a(alt_sys_init.o) (altera_avalon_jtag_uart_init)
../ControlUnit_bsp/\libucosii_bsp.a(altera_avalon_jtag_uart_ioctl.o)
                              ../ControlUnit_bsp/\libucosii_bsp.a(altera_avalon_jtag_uart_fd.o) (altera_avalon_jtag_uart_ioctl)
../ControlUnit_bsp/\libucosii_bsp.a(altera_avalon_jtag_uart_read.o)
                              ../ControlUnit_bsp/\libucosii_bsp.a(altera_avalon_jtag_uart_fd.o) (altera_avalon_jtag_uart_read)
../ControlUnit_bsp/\libucosii_bsp.a(altera_avalon_jtag_uart_write.o)
                              ../ControlUnit_bsp/\libucosii_bsp.a(altera_avalon_jtag_uart_fd.o) (altera_avalon_jtag_uart_write)
../ControlUnit_bsp/\libucosii_bsp.a(altera_avalon_timer_sc.o)
                              ../ControlUnit_bsp/\libucosii_bsp.a(alt_sys_init.o) (alt_avalon_timer_sc_init)
../ControlUnit_bsp/\libucosii_bsp.a(alt_alarm_start.o)
                              ../ControlUnit_bsp/\libucosii_bsp.a(altera_avalon_jtag_uart_init.o) (alt_alarm_start)
../ControlUnit_bsp/\libucosii_bsp.a(alt_dcache_flush_all.o)
                              ../ControlUnit_bsp/\libucosii_bsp.a(alt_load.o) (alt_dcache_flush_all)
../ControlUnit_bsp/\libucosii_bsp.a(alt_dev_llist_insert.o)
                              ../ControlUnit_bsp/\libucosii_bsp.a(alt_sys_init.o) (alt_dev_llist_insert)
../ControlUnit_bsp/\libucosii_bsp.a(alt_do_ctors.o)
                              ../ControlUnit_bsp/\libucosii_bsp.a(alt_main.o) (_do_ctors)
../ControlUnit_bsp/\libucosii_bsp.a(alt_do_dtors.o)
                              ../ControlUnit_bsp/\libucosii_bsp.a(alt_main.o) (_do_dtors)
../ControlUnit_bsp/\libucosii_bsp.a(alt_exception_entry.o)
                              ../ControlUnit_bsp/\libucosii_bsp.a(alt_irq_entry.o) (alt_exception)
../ControlUnit_bsp/\libucosii_bsp.a(alt_icache_flush_all.o)
                              ../ControlUnit_bsp/\libucosii_bsp.a(alt_load.o) (alt_icache_flush_all)
../ControlUnit_bsp/\libucosii_bsp.a(alt_io_redirect.o)
                              ../ControlUnit_bsp/\libucosii_bsp.a(alt_main.o) (alt_io_redirect)
../ControlUnit_bsp/\libucosii_bsp.a(alt_open.o)
                              ../ControlUnit_bsp/\libucosii_bsp.a(alt_io_redirect.o) (open)
../ControlUnit_bsp/\libucosii_bsp.a(alt_tick.o)
                              ../ControlUnit_bsp/\libucosii_bsp.a(altera_avalon_jtag_uart_init.o) (_alt_tick_rate)
../ControlUnit_bsp/\libucosii_bsp.a(altera_nios2_qsys_irq.o)
                              ../ControlUnit_bsp/\libucosii_bsp.a(alt_sys_init.o) (altera_nios2_qsys_irq_init)
../ControlUnit_bsp/\libucosii_bsp.a(os_cpu_a.o)
                              ../ControlUnit_bsp/\libucosii_bsp.a(os_core.o) (OSIntCtxSw)
../ControlUnit_bsp/\libucosii_bsp.a(os_cpu_c.o)
                              ../ControlUnit_bsp/\libucosii_bsp.a(os_task.o) (OSTaskStkInit)
../ControlUnit_bsp/\libucosii_bsp.a(alt_find_dev.o)
                              ../ControlUnit_bsp/\libucosii_bsp.a(alt_open.o) (alt_find_dev)
../ControlUnit_bsp/\libucosii_bsp.a(alt_find_file.o)
                              ../ControlUnit_bsp/\libucosii_bsp.a(alt_open.o) (alt_find_file)
../ControlUnit_bsp/\libucosii_bsp.a(alt_get_fd.o)
                              ../ControlUnit_bsp/\libucosii_bsp.a(alt_open.o) (alt_get_fd)
c:/altera/14.0/nios2eds/bin/gnu/h-x86_64-mingw32/bin/../lib/gcc/nios2-elf/4.7.3/../../../../../H-x86_64-mingw32/nios2-elf/lib/mno-hw-mul\libc.a(lib_a-atexit.o)
                              ../ControlUnit_bsp/\libucosii_bsp.a(alt_main.o) (atexit)
c:/altera/14.0/nios2eds/bin/gnu/h-x86_64-mingw32/bin/../lib/gcc/nios2-elf/4.7.3/../../../../../H-x86_64-mingw32/nios2-elf/lib/mno-hw-mul\libc.a(lib_a-exit.o)
                              ../ControlUnit_bsp/\libucosii_bsp.a(alt_main.o) (exit)
c:/altera/14.0/nios2eds/bin/gnu/h-x86_64-mingw32/bin/../lib/gcc/nios2-elf/4.7.3/../../../../../H-x86_64-mingw32/nios2-elf/lib/mno-hw-mul\libc.a(lib_a-memcmp.o)
                              ../ControlUnit_bsp/\libucosii_bsp.a(alt_find_dev.o) (memcmp)
c:/altera/14.0/nios2eds/bin/gnu/h-x86_64-mingw32/bin/../lib/gcc/nios2-elf/4.7.3/../../../../../H-x86_64-mingw32/nios2-elf/lib/mno-hw-mul\libc.a(lib_a-__atexit.o)
                              c:/altera/14.0/nios2eds/bin/gnu/h-x86_64-mingw32/bin/../lib/gcc/nios2-elf/4.7.3/../../../../../H-x86_64-mingw32/nios2-elf/lib/mno-hw-mul\libc.a(lib_a-atexit.o) (__register_exitproc)
c:/altera/14.0/nios2eds/bin/gnu/h-x86_64-mingw32/bin/../lib/gcc/nios2-elf/4.7.3/../../../../../H-x86_64-mingw32/nios2-elf/lib/mno-hw-mul\libc.a(lib_a-__call_atexit.o)
                              c:/altera/14.0/nios2eds/bin/gnu/h-x86_64-mingw32/bin/../lib/gcc/nios2-elf/4.7.3/../../../../../H-x86_64-mingw32/nios2-elf/lib/mno-hw-mul\libc.a(lib_a-exit.o) (__call_exitprocs)
../ControlUnit_bsp/\libucosii_bsp.a(alt_exit.o)
                              c:/altera/14.0/nios2eds/bin/gnu/h-x86_64-mingw32/bin/../lib/gcc/nios2-elf/4.7.3/../../../../../H-x86_64-mingw32/nios2-elf/lib/mno-hw-mul\libc.a(lib_a-exit.o) (_exit)

Allocating common symbols
Common symbol       size              file

GreenLedtask_stk    0x2000            obj/default/main.o
alt_irq             0x100             ../ControlUnit_bsp/\libucosii_bsp.a(alt_irq_handler.o)
OSLockNesting       0x1               ../ControlUnit_bsp/\libucosii_bsp.a(os_core.o)
OSRunning           0x1               ../ControlUnit_bsp/\libucosii_bsp.a(os_core.o)
OSIdleCtr           0x4               ../ControlUnit_bsp/\libucosii_bsp.a(os_core.o)
OSPrioHighRdy       0x1               ../ControlUnit_bsp/\libucosii_bsp.a(os_core.o)
errno               0x4               c:/altera/14.0/nios2eds/bin/gnu/h-x86_64-mingw32/bin/../lib/gcc/nios2-elf/4.7.3/../../../../../H-x86_64-mingw32/nios2-elf/lib/mno-hw-mul\libc.a(lib_a-int_errno.o)
alt_heapsem         0x4               ../ControlUnit_bsp/\libucosii_bsp.a(alt_malloc_lock.o)
OSFlagTbl           0x370             ../ControlUnit_bsp/\libucosii_bsp.a(os_core.o)
OSPrioCur           0x1               ../ControlUnit_bsp/\libucosii_bsp.a(os_core.o)
OSTCBList           0x4               ../ControlUnit_bsp/\libucosii_bsp.a(os_core.o)
alt_fd_list_lock    0x4               ../ControlUnit_bsp/\libucosii_bsp.a(alt_dev.o)
OSMemTbl            0xc30             ../ControlUnit_bsp/\libucosii_bsp.a(os_core.o)
OSTickStepState     0x1               ../ControlUnit_bsp/\libucosii_bsp.a(os_core.o)
OSTaskStatStk       0x800             ../ControlUnit_bsp/\libucosii_bsp.a(os_core.o)
OSCtxSwCtr          0x4               ../ControlUnit_bsp/\libucosii_bsp.a(os_core.o)
OSIdleCtrMax        0x4               ../ControlUnit_bsp/\libucosii_bsp.a(os_core.o)
KeyEvents           0x4               obj/default/main.o
OSTCBFreeList       0x4               ../ControlUnit_bsp/\libucosii_bsp.a(os_core.o)
OSCPUUsage          0x1               ../ControlUnit_bsp/\libucosii_bsp.a(os_core.o)
OSTaskCtr           0x1               ../ControlUnit_bsp/\libucosii_bsp.a(os_core.o)
OSMemFreeList       0x4               ../ControlUnit_bsp/\libucosii_bsp.a(os_core.o)
RedLedtask_stk      0x2000            obj/default/main.o
OSQTbl              0x1e0             ../ControlUnit_bsp/\libucosii_bsp.a(os_core.o)
OSTCBHighRdy        0x4               ../ControlUnit_bsp/\libucosii_bsp.a(os_core.o)
OSQFreeList         0x4               ../ControlUnit_bsp/\libucosii_bsp.a(os_core.o)
OSRdyGrp            0x1               ../ControlUnit_bsp/\libucosii_bsp.a(os_core.o)
ISRcontext          0x4               obj/default/main.o
_atexit0            0x190             c:/altera/14.0/nios2eds/bin/gnu/h-x86_64-mingw32/bin/../lib/gcc/nios2-elf/4.7.3/../../../../../H-x86_64-mingw32/nios2-elf/lib/mno-hw-mul\libc.a(lib_a-atexit.o)
OSRdyTbl            0x3               ../ControlUnit_bsp/\libucosii_bsp.a(os_core.o)
OSEventFreeList     0x4               ../ControlUnit_bsp/\libucosii_bsp.a(os_core.o)
OSIntNesting        0x1               ../ControlUnit_bsp/\libucosii_bsp.a(os_core.o)
OSTCBCur            0x4               ../ControlUnit_bsp/\libucosii_bsp.a(os_core.o)
OSTime              0x4               ../ControlUnit_bsp/\libucosii_bsp.a(os_core.o)
OSTaskIdleStk       0x800             ../ControlUnit_bsp/\libucosii_bsp.a(os_core.o)
OSEventTbl          0xb40             ../ControlUnit_bsp/\libucosii_bsp.a(os_core.o)
OSTCBTbl            0x510             ../ControlUnit_bsp/\libucosii_bsp.a(os_core.o)
OSFlagFreeList      0x4               ../ControlUnit_bsp/\libucosii_bsp.a(os_core.o)
OSStatRdy           0x1               ../ControlUnit_bsp/\libucosii_bsp.a(os_core.o)
OSTCBPrioTbl        0x54              ../ControlUnit_bsp/\libucosii_bsp.a(os_core.o)
alt_envsem          0x4               ../ControlUnit_bsp/\libucosii_bsp.a(alt_env_lock.o)
OSIdleCtrRun        0x4               ../ControlUnit_bsp/\libucosii_bsp.a(os_core.o)

Memory Configuration

Name             Origin             Length             Attributes
reset            0x0000000000080000 0x0000000000000020
SRAM_CVGX        0x0000000000080020 0x000000000007ffe0
*default*        0x0000000000000000 0xffffffffffffffff

Linker script and memory map

LOAD ../ControlUnit_bsp//obj/HAL/src/crt0.o
LOAD obj/default/main.o
LOAD obj/default/switchesIRQhandler.o
LOAD c:/altera/14.0/nios2eds/bin/gnu/h-x86_64-mingw32/bin/../lib/gcc/nios2-elf/4.7.3/../../../../../H-x86_64-mingw32/nios2-elf/lib/mno-hw-mul\libstdc++.a
LOAD c:/altera/14.0/nios2eds/bin/gnu/h-x86_64-mingw32/bin/../lib/gcc/nios2-elf/4.7.3/../../../../../H-x86_64-mingw32/nios2-elf/lib/mno-hw-mul\libm.a
LOAD c:/altera/14.0/nios2eds/bin/gnu/h-x86_64-mingw32/bin/../lib/gcc/nios2-elf/4.7.3/mno-hw-mul\libgcc.a
START GROUP
LOAD c:/altera/14.0/nios2eds/bin/gnu/h-x86_64-mingw32/bin/../lib/gcc/nios2-elf/4.7.3/../../../../../H-x86_64-mingw32/nios2-elf/lib/mno-hw-mul\libc.a
LOAD c:/altera/14.0/nios2eds/bin/gnu/h-x86_64-mingw32/bin/../lib/gcc/nios2-elf/4.7.3/mno-hw-mul\libgcc.a
LOAD ../ControlUnit_bsp/\libucosii_bsp.a
END GROUP
LOAD c:/altera/14.0/nios2eds/bin/gnu/h-x86_64-mingw32/bin/../lib/gcc/nios2-elf/4.7.3/mno-hw-mul\libgcc.a
                0x0000000000080000                __alt_mem_SRAM_CVGX = 0x80000

.entry          0x0000000000080000       0x20
 *(.entry)
 .entry         0x0000000000080000       0x20 ../ControlUnit_bsp//obj/HAL/src/crt0.o
                0x0000000000080000                __reset

.exceptions     0x0000000000080020      0x19c
                0x0000000000080020                PROVIDE (__ram_exceptions_start, ABSOLUTE (.))
                0x0000000000080020                . = ALIGN (0x20)
 *(.irq)
 *(.exceptions.entry.label)
 .exceptions.entry.label
                0x0000000000080020        0x0 ../ControlUnit_bsp/\libucosii_bsp.a(alt_irq_entry.o)
                0x0000000000080020                alt_irq_entry
 .exceptions.entry.label
                0x0000000000080020        0x0 ../ControlUnit_bsp/\libucosii_bsp.a(alt_exception_entry.o)
                0x0000000000080020                alt_exception
 *(.exceptions.entry.user)
 *(.exceptions.entry.ecc_fatal)
 *(.exceptions.entry)
 .exceptions.entry
                0x0000000000080020       0x54 ../ControlUnit_bsp/\libucosii_bsp.a(alt_exception_entry.o)
 *(.exceptions.irqtest.user)
 *(.exceptions.irqtest)
 .exceptions.irqtest
                0x0000000000080074       0x10 ../ControlUnit_bsp/\libucosii_bsp.a(alt_irq_entry.o)
 *(.exceptions.irqhandler.user)
 *(.exceptions.irqhandler)
 .exceptions.irqhandler
                0x0000000000080084        0x4 ../ControlUnit_bsp/\libucosii_bsp.a(alt_irq_entry.o)
 *(.exceptions.irqreturn.user)
 *(.exceptions.irqreturn)
 .exceptions.irqreturn
                0x0000000000080088        0x4 ../ControlUnit_bsp/\libucosii_bsp.a(alt_irq_entry.o)
 *(.exceptions.notirq.label)
 .exceptions.notirq.label
                0x000000000008008c        0x0 ../ControlUnit_bsp/\libucosii_bsp.a(alt_irq_entry.o)
 *(.exceptions.notirq.user)
 *(.exceptions.notirq)
 .exceptions.notirq
                0x000000000008008c        0x8 ../ControlUnit_bsp/\libucosii_bsp.a(alt_exception_entry.o)
 *(.exceptions.soft.user)
 *(.exceptions.soft)
 *(.exceptions.unknown.user)
 *(.exceptions.unknown)
 .exceptions.unknown
                0x0000000000080094        0x4 ../ControlUnit_bsp/\libucosii_bsp.a(alt_exception_entry.o)
 *(.exceptions.exit.label)
 .exceptions.exit.label
                0x0000000000080098        0x0 ../ControlUnit_bsp/\libucosii_bsp.a(alt_irq_entry.o)
 .exceptions.exit.label
                0x0000000000080098        0x0 ../ControlUnit_bsp/\libucosii_bsp.a(alt_exception_entry.o)
 *(.exceptions.exit.user)
 *(.exceptions.exit)
 .exceptions.exit
                0x0000000000080098       0x54 ../ControlUnit_bsp/\libucosii_bsp.a(alt_exception_entry.o)
 *(.exceptions)
 .exceptions    0x00000000000800ec       0xd0 ../ControlUnit_bsp/\libucosii_bsp.a(alt_irq_handler.o)
                0x00000000000800ec                alt_irq_handler
                0x00000000000801bc                PROVIDE (__ram_exceptions_end, ABSOLUTE (.))
                0x0000000000080020                PROVIDE (__flash_exceptions_start, LOADADDR (.exceptions))

.text           0x00000000000801bc    0x14a84
                0x00000000000801bc                PROVIDE (stext, ABSOLUTE (.))
 *(.interp)
 *(.hash)
 *(.dynsym)
 *(.dynstr)
 *(.gnu.version)
 *(.gnu.version_d)
 *(.gnu.version_r)
 *(.rel.init)
 *(.rela.init)
 *(.rel.text .rel.text.* .rel.gnu.linkonce.t.*)
 *(.rela.text .rela.text.* .rela.gnu.linkonce.t.*)
 *(.rel.fini)
 *(.rela.fini)
 *(.rel.rodata .rel.rodata.* .rel.gnu.linkonce.r.*)
 *(.rela.rodata .rela.rodata.* .rela.gnu.linkonce.r.*)
 *(.rel.data .rel.data.* .rel.gnu.linkonce.d.*)
 *(.rela.data .rela.data.* .rela.gnu.linkonce.d.*)
 *(.rel.tdata .rel.tdata.* .rel.gnu.linkonce.td.*)
 *(.rela.tdata .rela.tdata.* .rela.gnu.linkonce.td.*)
 *(.rel.tbss .rel.tbss.* .rel.gnu.linkonce.tb.*)
 *(.rela.tbss .rela.tbss.* .rela.gnu.linkonce.tb.*)
 *(.rel.ctors)
 *(.rela.ctors)
 *(.rel.dtors)
 *(.rela.dtors)
 *(.rel.got)
 *(.rela.got)
 *(.rel.sdata .rel.sdata.* .rel.gnu.linkonce.s.*)
 *(.rela.sdata .rela.sdata.* .rela.gnu.linkonce.s.*)
 *(.rel.sbss .rel.sbss.* .rel.gnu.linkonce.sb.*)
 *(.rela.sbss .rela.sbss.* .rela.gnu.linkonce.sb.*)
 *(.rel.sdata2 .rel.sdata2.* .rel.gnu.linkonce.s2.*)
 *(.rela.sdata2 .rela.sdata2.* .rela.gnu.linkonce.s2.*)
 *(.rel.sbss2 .rel.sbss2.* .rel.gnu.linkonce.sb2.*)
 *(.rela.sbss2 .rela.sbss2.* .rela.gnu.linkonce.sb2.*)
 *(.rel.bss .rel.bss.* .rel.gnu.linkonce.b.*)
 *(.rela.bss .rela.bss.* .rela.gnu.linkonce.b.*)
 *(.rel.plt)
 *(.rela.plt)
 *(.rel.dyn)
 *(.init)
 *(.plt)
 *(.text .stub .text.* .gnu.linkonce.t.*)
 .text          0x00000000000801bc       0x3c ../ControlUnit_bsp//obj/HAL/src/crt0.o
                0x00000000000801bc                _start
 .text          0x00000000000801f8      0x290 obj/default/main.o
                0x0000000000080274                RedLedSWtask
                0x00000000000802ac                GreenLedIRQtask
                0x00000000000803cc                main
 .text          0x0000000000080488       0xd0 obj/default/switchesIRQhandler.o
                0x00000000000804d8                switchesIRQhandler
 .text          0x0000000000080558       0x68 c:/altera/14.0/nios2eds/bin/gnu/h-x86_64-mingw32/bin/../lib/gcc/nios2-elf/4.7.3/../../../../../H-x86_64-mingw32/nios2-elf/lib/mno-hw-mul\libc.a(lib_a-printf.o)
                0x0000000000080558                _printf_r
                0x0000000000080584                printf
 .text          0x00000000000805c0       0x98 c:/altera/14.0/nios2eds/bin/gnu/h-x86_64-mingw32/bin/../lib/gcc/nios2-elf/4.7.3/../../../../../H-x86_64-mingw32/nios2-elf/lib/mno-hw-mul\libc.a(lib_a-puts.o)
                0x00000000000805c0                _puts_r
                0x0000000000080644                puts
 .text          0x0000000000080658       0x8c c:/altera/14.0/nios2eds/bin/gnu/h-x86_64-mingw32/bin/../lib/gcc/nios2-elf/4.7.3/../../../../../H-x86_64-mingw32/nios2-elf/lib/mno-hw-mul\libc.a(lib_a-strlen.o)
                0x0000000000080658                strlen
 .text          0x00000000000806e4     0x1ed4 c:/altera/14.0/nios2eds/bin/gnu/h-x86_64-mingw32/bin/../lib/gcc/nios2-elf/4.7.3/../../../../../H-x86_64-mingw32/nios2-elf/lib/mno-hw-mul\libc.a(lib_a-vfprintf.o)
                0x0000000000080718                ___vfprintf_internal_r
                0x0000000000082594                __vfprintf_internal
 .text          0x00000000000825b8      0x174 c:/altera/14.0/nios2eds/bin/gnu/h-x86_64-mingw32/bin/../lib/gcc/nios2-elf/4.7.3/../../../../../H-x86_64-mingw32/nios2-elf/lib/mno-hw-mul\libc.a(lib_a-wsetup.o)
                0x00000000000825b8                __swsetup_r
 .text          0x000000000008272c     0x1858 c:/altera/14.0/nios2eds/bin/gnu/h-x86_64-mingw32/bin/../lib/gcc/nios2-elf/4.7.3/../../../../../H-x86_64-mingw32/nios2-elf/lib/mno-hw-mul\libc.a(lib_a-dtoa.o)
                0x0000000000082968                _dtoa_r
 .text          0x0000000000083f84      0x218 c:/altera/14.0/nios2eds/bin/gnu/h-x86_64-mingw32/bin/../lib/gcc/nios2-elf/4.7.3/../../../../../H-x86_64-mingw32/nios2-elf/lib/mno-hw-mul\libc.a(lib_a-fflush.o)
                0x0000000000083f84                _fflush_r
                0x000000000008416c                fflush
 .text          0x000000000008419c      0x2ec c:/altera/14.0/nios2eds/bin/gnu/h-x86_64-mingw32/bin/../lib/gcc/nios2-elf/4.7.3/../../../../../H-x86_64-mingw32/nios2-elf/lib/mno-hw-mul\libc.a(lib_a-findfp.o)
                0x00000000000841ac                _cleanup_r
                0x00000000000841b8                __sfmoreglue
                0x0000000000084230                _cleanup
                0x0000000000084240                __sinit
                0x000000000008434c                __sfp
                0x0000000000084448                __sfp_lock_acquire
                0x000000000008444c                __sfp_lock_release
                0x0000000000084450                __sinit_lock_acquire
                0x0000000000084454                __sinit_lock_release
                0x0000000000084458                __fp_lock_all
                0x0000000000084470                __fp_unlock_all
 .text          0x0000000000084488      0x40c c:/altera/14.0/nios2eds/bin/gnu/h-x86_64-mingw32/bin/../lib/gcc/nios2-elf/4.7.3/../../../../../H-x86_64-mingw32/nios2-elf/lib/mno-hw-mul\libc.a(lib_a-freer.o)
                0x0000000000084488                _malloc_trim_r
                0x00000000000845c4                _free_r
 .text          0x0000000000084894      0x4e4 c:/altera/14.0/nios2eds/bin/gnu/h-x86_64-mingw32/bin/../lib/gcc/nios2-elf/4.7.3/../../../../../H-x86_64-mingw32/nios2-elf/lib/mno-hw-mul\libc.a(lib_a-fvwrite.o)
                0x0000000000084894                __sfvwrite_r
 .text          0x0000000000084d78      0x160 c:/altera/14.0/nios2eds/bin/gnu/h-x86_64-mingw32/bin/../lib/gcc/nios2-elf/4.7.3/../../../../../H-x86_64-mingw32/nios2-elf/lib/mno-hw-mul\libc.a(lib_a-fwalk.o)
                0x0000000000084d78                _fwalk
                0x0000000000084e20                _fwalk_reent
 .text          0x0000000000084ed8        0x0 c:/altera/14.0/nios2eds/bin/gnu/h-x86_64-mingw32/bin/../lib/gcc/nios2-elf/4.7.3/../../../../../H-x86_64-mingw32/nios2-elf/lib/mno-hw-mul\libc.a(lib_a-impure.o)
 .text          0x0000000000084ed8       0xdc c:/altera/14.0/nios2eds/bin/gnu/h-x86_64-mingw32/bin/../lib/gcc/nios2-elf/4.7.3/../../../../../H-x86_64-mingw32/nios2-elf/lib/mno-hw-mul\libc.a(lib_a-locale.o)
                0x0000000000084ed8                _setlocale_r
                0x0000000000084f74                __locale_charset
                0x0000000000084f80                _localeconv_r
                0x0000000000084f8c                setlocale
                0x0000000000084fa8                localeconv
 .text          0x0000000000084fb4      0x1a8 c:/altera/14.0/nios2eds/bin/gnu/h-x86_64-mingw32/bin/../lib/gcc/nios2-elf/4.7.3/../../../../../H-x86_64-mingw32/nios2-elf/lib/mno-hw-mul\libc.a(lib_a-makebuf.o)
                0x0000000000084fb4                __smakebuf_r
 .text          0x000000000008515c      0x784 c:/altera/14.0/nios2eds/bin/gnu/h-x86_64-mingw32/bin/../lib/gcc/nios2-elf/4.7.3/../../../../../H-x86_64-mingw32/nios2-elf/lib/mno-hw-mul\libc.a(lib_a-mallocr.o)
                0x000000000008515c                _malloc_r
 .text          0x00000000000858e0       0xf8 c:/altera/14.0/nios2eds/bin/gnu/h-x86_64-mingw32/bin/../lib/gcc/nios2-elf/4.7.3/../../../../../H-x86_64-mingw32/nios2-elf/lib/mno-hw-mul\libc.a(lib_a-memchr.o)
                0x00000000000858e0                memchr
 .text          0x00000000000859d8      0x140 c:/altera/14.0/nios2eds/bin/gnu/h-x86_64-mingw32/bin/../lib/gcc/nios2-elf/4.7.3/../../../../../H-x86_64-mingw32/nios2-elf/lib/mno-hw-mul\libc.a(lib_a-memcpy.o)
                0x00000000000859d8                memcpy
 .text          0x0000000000085b18      0x18c c:/altera/14.0/nios2eds/bin/gnu/h-x86_64-mingw32/bin/../lib/gcc/nios2-elf/4.7.3/../../../../../H-x86_64-mingw32/nios2-elf/lib/mno-hw-mul\libc.a(lib_a-memmove.o)
                0x0000000000085b18                memmove
 .text          0x0000000000085ca4       0xdc c:/altera/14.0/nios2eds/bin/gnu/h-x86_64-mingw32/bin/../lib/gcc/nios2-elf/4.7.3/../../../../../H-x86_64-mingw32/nios2-elf/lib/mno-hw-mul\libc.a(lib_a-memset.o)
                0x0000000000085ca4                memset
 .text          0x0000000000085d80     0x1050 c:/altera/14.0/nios2eds/bin/gnu/h-x86_64-mingw32/bin/../lib/gcc/nios2-elf/4.7.3/../../../../../H-x86_64-mingw32/nios2-elf/lib/mno-hw-mul\libc.a(lib_a-mprec.o)
                0x0000000000085d80                _Balloc
                0x0000000000085e28                _Bfree
                0x0000000000085e50                __multadd
                0x0000000000085f94                __s2b
                0x0000000000086098                __hi0bits
                0x0000000000086100                __lo0bits
                0x00000000000861b0                __i2b
                0x00000000000861ec                __multiply
                0x0000000000086444                __pow5mult
                0x0000000000086570                __lshift
                0x00000000000866cc                __mcmp
                0x0000000000086724                __mdiff
                0x00000000000868cc                __ulp
                0x000000000008692c                __b2d
                0x0000000000086a74                __d2b
                0x0000000000086bb8                __ratio
                0x0000000000086c5c                _mprec_log10
                0x0000000000086cd0                __copybits
                0x0000000000086d4c                __any_on
 .text          0x0000000000086dd0      0x5fc c:/altera/14.0/nios2eds/bin/gnu/h-x86_64-mingw32/bin/../lib/gcc/nios2-elf/4.7.3/../../../../../H-x86_64-mingw32/nios2-elf/lib/mno-hw-mul\libc.a(lib_a-reallocr.o)
                0x0000000000086dd0                _realloc_r
 .text          0x00000000000873cc       0x38 c:/altera/14.0/nios2eds/bin/gnu/h-x86_64-mingw32/bin/../lib/gcc/nios2-elf/4.7.3/../../../../../H-x86_64-mingw32/nios2-elf/lib/mno-hw-mul\libc.a(lib_a-s_isinfd.o)
                0x00000000000873cc                __isinfd
 .text          0x0000000000087404       0x2c c:/altera/14.0/nios2eds/bin/gnu/h-x86_64-mingw32/bin/../lib/gcc/nios2-elf/4.7.3/../../../../../H-x86_64-mingw32/nios2-elf/lib/mno-hw-mul\libc.a(lib_a-s_isnand.o)
                0x0000000000087404                __isnand
 .text          0x0000000000087430       0x64 c:/altera/14.0/nios2eds/bin/gnu/h-x86_64-mingw32/bin/../lib/gcc/nios2-elf/4.7.3/../../../../../H-x86_64-mingw32/nios2-elf/lib/mno-hw-mul\libc.a(lib_a-sbrkr.o)
                0x0000000000087430                _sbrk_r
 .text          0x0000000000087494      0x140 c:/altera/14.0/nios2eds/bin/gnu/h-x86_64-mingw32/bin/../lib/gcc/nios2-elf/4.7.3/../../../../../H-x86_64-mingw32/nios2-elf/lib/mno-hw-mul\libc.a(lib_a-stdio.o)
                0x0000000000087494                __sread
                0x00000000000874e8                __swrite
                0x0000000000087570                __sseek
                0x00000000000875cc                __sclose
 .text          0x00000000000875d4       0xa4 c:/altera/14.0/nios2eds/bin/gnu/h-x86_64-mingw32/bin/../lib/gcc/nios2-elf/4.7.3/../../../../../H-x86_64-mingw32/nios2-elf/lib/mno-hw-mul\libc.a(lib_a-strcmp.o)
                0x00000000000875d4                strcmp
 .text          0x0000000000087678       0x6c c:/altera/14.0/nios2eds/bin/gnu/h-x86_64-mingw32/bin/../lib/gcc/nios2-elf/4.7.3/../../../../../H-x86_64-mingw32/nios2-elf/lib/mno-hw-mul\libc.a(lib_a-writer.o)
                0x0000000000087678                _write_r
 .text          0x00000000000876e4       0xcc c:/altera/14.0/nios2eds/bin/gnu/h-x86_64-mingw32/bin/../lib/gcc/nios2-elf/4.7.3/../../../../../H-x86_64-mingw32/nios2-elf/lib/mno-hw-mul\libc.a(lib_a-callocr.o)
                0x00000000000876e4                _calloc_r
 .text          0x00000000000877b0       0x64 c:/altera/14.0/nios2eds/bin/gnu/h-x86_64-mingw32/bin/../lib/gcc/nios2-elf/4.7.3/../../../../../H-x86_64-mingw32/nios2-elf/lib/mno-hw-mul\libc.a(lib_a-closer.o)
                0x00000000000877b0                _close_r
 .text          0x0000000000087814      0x150 c:/altera/14.0/nios2eds/bin/gnu/h-x86_64-mingw32/bin/../lib/gcc/nios2-elf/4.7.3/../../../../../H-x86_64-mingw32/nios2-elf/lib/mno-hw-mul\libc.a(lib_a-fclose.o)
                0x0000000000087814                _fclose_r
                0x0000000000087950                fclose
 .text          0x0000000000087964       0x68 c:/altera/14.0/nios2eds/bin/gnu/h-x86_64-mingw32/bin/../lib/gcc/nios2-elf/4.7.3/../../../../../H-x86_64-mingw32/nios2-elf/lib/mno-hw-mul\libc.a(lib_a-fstatr.o)
                0x0000000000087964                _fstat_r
 .text          0x00000000000879cc        0x0 c:/altera/14.0/nios2eds/bin/gnu/h-x86_64-mingw32/bin/../lib/gcc/nios2-elf/4.7.3/../../../../../H-x86_64-mingw32/nios2-elf/lib/mno-hw-mul\libc.a(lib_a-int_errno.o)
 .text          0x00000000000879cc       0x64 c:/altera/14.0/nios2eds/bin/gnu/h-x86_64-mingw32/bin/../lib/gcc/nios2-elf/4.7.3/../../../../../H-x86_64-mingw32/nios2-elf/lib/mno-hw-mul\libc.a(lib_a-isattyr.o)
                0x00000000000879cc                _isatty_r
 .text          0x0000000000087a30       0x6c c:/altera/14.0/nios2eds/bin/gnu/h-x86_64-mingw32/bin/../lib/gcc/nios2-elf/4.7.3/../../../../../H-x86_64-mingw32/nios2-elf/lib/mno-hw-mul\libc.a(lib_a-lseekr.o)
                0x0000000000087a30                _lseek_r
 .text          0x0000000000087a9c       0x6c c:/altera/14.0/nios2eds/bin/gnu/h-x86_64-mingw32/bin/../lib/gcc/nios2-elf/4.7.3/../../../../../H-x86_64-mingw32/nios2-elf/lib/mno-hw-mul\libc.a(lib_a-readr.o)
                0x0000000000087a9c                _read_r
 .text          0x0000000000087b08      0x650 c:/altera/14.0/nios2eds/bin/gnu/h-x86_64-mingw32/bin/../lib/gcc/nios2-elf/4.7.3/mno-hw-mul\libgcc.a(_udivdi3.o)
                0x0000000000087b08                __udivdi3
 .text          0x0000000000088158      0x628 c:/altera/14.0/nios2eds/bin/gnu/h-x86_64-mingw32/bin/../lib/gcc/nios2-elf/4.7.3/mno-hw-mul\libgcc.a(_umoddi3.o)
                0x0000000000088158                __umoddi3
 .text          0x0000000000088780      0x408 c:/altera/14.0/nios2eds/bin/gnu/h-x86_64-mingw32/bin/../lib/gcc/nios2-elf/4.7.3/mno-hw-mul\libgcc.a(_addsub_df.o)
                0x0000000000088ad4                __adddf3
                0x0000000000088b28                __subdf3
 .text          0x0000000000088b88      0x2e4 c:/altera/14.0/nios2eds/bin/gnu/h-x86_64-mingw32/bin/../lib/gcc/nios2-elf/4.7.3/mno-hw-mul\libgcc.a(_mul_df.o)
                0x0000000000088b88                __muldf3
 .text          0x0000000000088e6c      0x1b4 c:/altera/14.0/nios2eds/bin/gnu/h-x86_64-mingw32/bin/../lib/gcc/nios2-elf/4.7.3/mno-hw-mul\libgcc.a(_div_df.o)
                0x0000000000088e6c                __divdf3
 .text          0x0000000000089020       0x5c c:/altera/14.0/nios2eds/bin/gnu/h-x86_64-mingw32/bin/../lib/gcc/nios2-elf/4.7.3/mno-hw-mul\libgcc.a(_eq_df.o)
                0x0000000000089020                __eqdf2
 .text          0x000000000008907c       0x5c c:/altera/14.0/nios2eds/bin/gnu/h-x86_64-mingw32/bin/../lib/gcc/nios2-elf/4.7.3/mno-hw-mul\libgcc.a(_ne_df.o)
                0x000000000008907c                __nedf2
 .text          0x00000000000890d8       0x64 c:/altera/14.0/nios2eds/bin/gnu/h-x86_64-mingw32/bin/../lib/gcc/nios2-elf/4.7.3/mno-hw-mul\libgcc.a(_gt_df.o)
                0x00000000000890d8                __gtdf2
 .text          0x000000000008913c       0x64 c:/altera/14.0/nios2eds/bin/gnu/h-x86_64-mingw32/bin/../lib/gcc/nios2-elf/4.7.3/mno-hw-mul\libgcc.a(_ge_df.o)
                0x000000000008913c                __gedf2
 .text          0x00000000000891a0       0x5c c:/altera/14.0/nios2eds/bin/gnu/h-x86_64-mingw32/bin/../lib/gcc/nios2-elf/4.7.3/mno-hw-mul\libgcc.a(_lt_df.o)
                0x00000000000891a0                __ltdf2
 .text          0x00000000000891fc       0xd4 c:/altera/14.0/nios2eds/bin/gnu/h-x86_64-mingw32/bin/../lib/gcc/nios2-elf/4.7.3/mno-hw-mul\libgcc.a(_si_to_df.o)
                0x00000000000891fc                __floatsidf
 .text          0x00000000000892d0       0xc4 c:/altera/14.0/nios2eds/bin/gnu/h-x86_64-mingw32/bin/../lib/gcc/nios2-elf/4.7.3/mno-hw-mul\libgcc.a(_df_to_si.o)
                0x00000000000892d0                __fixdfsi
 .text          0x0000000000089394        0x0 c:/altera/14.0/nios2eds/bin/gnu/h-x86_64-mingw32/bin/../lib/gcc/nios2-elf/4.7.3/mno-hw-mul\libgcc.a(_thenan_df.o)
 .text          0x0000000000089394      0x11c c:/altera/14.0/nios2eds/bin/gnu/h-x86_64-mingw32/bin/../lib/gcc/nios2-elf/4.7.3/mno-hw-mul\libgcc.a(_usi_to_df.o)
                0x0000000000089394                __floatunsidf
 .text          0x00000000000894b0      0x130 c:/altera/14.0/nios2eds/bin/gnu/h-x86_64-mingw32/bin/../lib/gcc/nios2-elf/4.7.3/mno-hw-mul\libgcc.a(lib2-divmod.o)
                0x0000000000089524                __divsi3
                0x0000000000089574                __modsi3
                0x00000000000895d0                __udivsi3
                0x00000000000895d8                __umodsi3
 .text          0x00000000000895e0       0x28 c:/altera/14.0/nios2eds/bin/gnu/h-x86_64-mingw32/bin/../lib/gcc/nios2-elf/4.7.3/mno-hw-mul\libgcc.a(lib2-mul.o)
                0x00000000000895e0                __mulsi3
 .text          0x0000000000089608      0x110 c:/altera/14.0/nios2eds/bin/gnu/h-x86_64-mingw32/bin/../lib/gcc/nios2-elf/4.7.3/mno-hw-mul\libgcc.a(_muldi3.o)
                0x0000000000089608                __muldi3
 .text          0x0000000000089718        0x0 c:/altera/14.0/nios2eds/bin/gnu/h-x86_64-mingw32/bin/../lib/gcc/nios2-elf/4.7.3/mno-hw-mul\libgcc.a(_clz.o)
 .text          0x0000000000089718       0xac c:/altera/14.0/nios2eds/bin/gnu/h-x86_64-mingw32/bin/../lib/gcc/nios2-elf/4.7.3/mno-hw-mul\libgcc.a(_clzsi2.o)
                0x0000000000089718                __clzsi2
 .text          0x00000000000897c4      0x224 c:/altera/14.0/nios2eds/bin/gnu/h-x86_64-mingw32/bin/../lib/gcc/nios2-elf/4.7.3/mno-hw-mul\libgcc.a(_pack_df.o)
                0x00000000000897c4                __pack_d
 .text          0x00000000000899e8      0x104 c:/altera/14.0/nios2eds/bin/gnu/h-x86_64-mingw32/bin/../lib/gcc/nios2-elf/4.7.3/mno-hw-mul\libgcc.a(_unpack_df.o)
                0x00000000000899e8                __unpack_d
 .text          0x0000000000089aec       0xd0 c:/altera/14.0/nios2eds/bin/gnu/h-x86_64-mingw32/bin/../lib/gcc/nios2-elf/4.7.3/mno-hw-mul\libgcc.a(_fpcmp_parts_df.o)
                0x0000000000089aec                __fpcmp_parts_d
 .text          0x0000000000089bbc       0x44 c:/altera/14.0/nios2eds/bin/gnu/h-x86_64-mingw32/bin/../lib/gcc/nios2-elf/4.7.3/mno-hw-mul\libgcc.a(_lshrdi3.o)
                0x0000000000089bbc                __lshrdi3
 .text          0x0000000000089c00       0x44 c:/altera/14.0/nios2eds/bin/gnu/h-x86_64-mingw32/bin/../lib/gcc/nios2-elf/4.7.3/mno-hw-mul\libgcc.a(_ashldi3.o)
                0x0000000000089c00                __ashldi3
 .text          0x0000000000089c44      0x11c ../ControlUnit_bsp/\libucosii_bsp.a(alt_close.o)
                0x0000000000089c94                close
 .text          0x0000000000089d60       0x2c ../ControlUnit_bsp/\libucosii_bsp.a(alt_dev.o)
 .text          0x0000000000089d8c        0x0 ../ControlUnit_bsp/\libucosii_bsp.a(alt_errno.o)
 .text          0x0000000000089d8c      0x100 ../ControlUnit_bsp/\libucosii_bsp.a(alt_fstat.o)
                0x0000000000089ddc                fstat
 .text          0x0000000000089e8c      0x1d8 ../ControlUnit_bsp/\libucosii_bsp.a(alt_iic.o)
                0x0000000000089e8c                alt_ic_isr_register
                0x0000000000089edc                alt_ic_irq_enable
                0x0000000000089f78                alt_ic_irq_disable
                0x000000000008a018                alt_ic_irq_enabled
 .text          0x000000000008a064       0xf0 ../ControlUnit_bsp/\libucosii_bsp.a(alt_iic_isr_register.o)
                0x000000000008a064                alt_iic_isr_register
 .text          0x000000000008a154        0x0 ../ControlUnit_bsp/\libucosii_bsp.a(alt_irq_entry.o)
 .text          0x000000000008a154        0x0 ../ControlUnit_bsp/\libucosii_bsp.a(alt_irq_handler.o)
 .text          0x000000000008a154        0x0 ../ControlUnit_bsp/\libucosii_bsp.a(alt_irq_vars.o)
 .text          0x000000000008a154       0xf4 ../ControlUnit_bsp/\libucosii_bsp.a(alt_isatty.o)
                0x000000000008a1a4                isatty
 .text          0x000000000008a248       0xec ../ControlUnit_bsp/\libucosii_bsp.a(alt_load.o)
                0x000000000008a2b4                alt_load
 .text          0x000000000008a334      0x124 ../ControlUnit_bsp/\libucosii_bsp.a(alt_lseek.o)
                0x000000000008a384                lseek
 .text          0x000000000008a458       0xcc ../ControlUnit_bsp/\libucosii_bsp.a(alt_main.o)
                0x000000000008a458                alt_main
 .text          0x000000000008a524      0x144 ../ControlUnit_bsp/\libucosii_bsp.a(alt_read.o)
                0x000000000008a574                read
 .text          0x000000000008a668       0x80 ../ControlUnit_bsp/\libucosii_bsp.a(alt_release_fd.o)
                0x000000000008a668                alt_release_fd
 .text          0x000000000008a6e8       0xb0 ../ControlUnit_bsp/\libucosii_bsp.a(alt_sbrk.o)
                0x000000000008a6e8                sbrk
 .text          0x000000000008a798      0x140 ../ControlUnit_bsp/\libucosii_bsp.a(alt_write.o)
                0x000000000008a7e8                write
 .text          0x000000000008a8d8      0x118 ../ControlUnit_bsp/\libucosii_bsp.a(alt_env_lock.o)
                0x000000000008a8d8                __env_lock
                0x000000000008a990                __env_unlock
 .text          0x000000000008a9f0      0x1e8 ../ControlUnit_bsp/\libucosii_bsp.a(alt_malloc_lock.o)
                0x000000000008a9f0                __malloc_lock
                0x000000000008ab04                __malloc_unlock
 .text          0x000000000008abd8     0x2024 ../ControlUnit_bsp/\libucosii_bsp.a(os_core.o)
                0x000000000008abd8                OSEventNameGet
                0x000000000008acf8                OSEventNameSet
                0x000000000008ae3c                OSEventPendMulti
                0x000000000008b478                OSInit
                0x000000000008b4cc                OSIntEnter
                0x000000000008b548                OSIntExit
                0x000000000008b63c                OSSchedLock
                0x000000000008b6c4                OSSchedUnlock
                0x000000000008b79c                OSStart
                0x000000000008b808                OSStatInit
                0x000000000008b8b4                OSTimeTick
                0x000000000008bad4                OSVersion
                0x000000000008baf4                OS_Dummy
                0x000000000008bb10                OS_EventTaskRdy
                0x000000000008bca8                OS_EventTaskWait
                0x000000000008bdb0                OS_EventTaskWaitMulti
                0x000000000008bef8                OS_EventTaskRemove
                0x000000000008bfa8                OS_EventTaskRemoveMulti
                0x000000000008c0a0                OS_EventWaitListInit
                0x000000000008c46c                OS_MemClr
                0x000000000008c4c0                OS_MemCopy
                0x000000000008c52c                OS_Sched
                0x000000000008c668                OS_StrCopy
                0x000000000008c6e4                OS_StrLen
                0x000000000008c738                OS_TaskIdle
                0x000000000008c794                OS_TaskStat
                0x000000000008c85c                OS_TaskStatStkChk
                0x000000000008c924                OS_TCBInit
 .text          0x000000000008cbfc      0x18c ../ControlUnit_bsp/\libucosii_bsp.a(os_dbg.o)
                0x000000000008cbfc                OSDebugInit
 .text          0x000000000008cd88     0x1834 ../ControlUnit_bsp/\libucosii_bsp.a(os_flag.o)
                0x000000000008cd88                OSFlagAccept
                0x000000000008d090                OSFlagCreate
                0x000000000008d1b8                OSFlagDel
                0x000000000008d428                OSFlagNameGet
                0x000000000008d558                OSFlagNameSet
                0x000000000008d6ac                OSFlagPend
                0x000000000008dcac                OSFlagPendGetFlagsRdy
                0x000000000008dd14                OSFlagPost
                0x000000000008e0a8                OSFlagQuery
                0x000000000008e32c                OS_FlagInit
                0x000000000008e51c                OS_FlagUnlink
 .text          0x000000000008e5bc      0x790 ../ControlUnit_bsp/\libucosii_bsp.a(os_mem.o)
                0x000000000008e5bc                OSMemCreate
                0x000000000008e7b0                OSMemGet
                0x000000000008e8a0                OSMemNameGet
                0x000000000008e998                OSMemNameSet
                0x000000000008eab4                OSMemPut
                0x000000000008eb8c                OSMemQuery
                0x000000000008ec74                OS_MemInit
 .text          0x000000000008ed4c     0x1224 ../ControlUnit_bsp/\libucosii_bsp.a(os_q.o)
                0x000000000008ed4c                OSQAccept
                0x000000000008ee8c                OSQCreate
                0x000000000008f084                OSQDel
                0x000000000008f354                OSQFlush
                0x000000000008f40c                OSQPend
                0x000000000008f708                OSQPendAbort
                0x000000000008f87c                OSQPost
                0x000000000008f9e4                OSQPostFront
                0x000000000008fb54                OSQPostOpt
                0x000000000008fd60                OSQQuery
                0x000000000008fec4                OS_QInit
 .text          0x000000000008ff70      0xb28 ../ControlUnit_bsp/\libucosii_bsp.a(os_sem.o)
                0x000000000008ff70                OSSemAccept
                0x0000000000090020                OSSemCreate
                0x0000000000090120                OSSemDel
                0x0000000000090390                OSSemPend
                0x00000000000905fc                OSSemPendAbort
                0x0000000000090770                OSSemPost
                0x0000000000090880                OSSemQuery
                0x0000000000090998                OSSemSet
 .text          0x0000000000090a98     0x18ec ../ControlUnit_bsp/\libucosii_bsp.a(os_task.o)
                0x0000000000090a98                OSTaskChangePrio
                0x0000000000090fc0                OSTaskCreate
                0x000000000009117c                OSTaskCreateExt
                0x0000000000091370                OSTaskDel
                0x000000000009174c                OSTaskDelReq
                0x00000000000918a4                OSTaskNameGet
                0x0000000000091a4c                OSTaskNameSet
                0x0000000000091c10                OSTaskResume
                0x0000000000091e04                OSTaskStkChk
                0x0000000000091fd8                OSTaskSuspend
                0x00000000000921e8                OSTaskQuery
                0x0000000000092314                OS_TaskStkClr
 .text          0x0000000000092384      0x584 ../ControlUnit_bsp/\libucosii_bsp.a(os_time.o)
                0x0000000000092384                OSTimeDly
                0x00000000000924cc                OSTimeDlyHMSM
                0x0000000000092654                OSTimeDlyResume
                0x0000000000092840                OSTimeGet
                0x00000000000928a4                OSTimeSet
 .text          0x0000000000092908       0xcc ../ControlUnit_bsp/\libucosii_bsp.a(alt_sys_init.o)
                0x0000000000092940                alt_irq_init
                0x0000000000092974                alt_sys_init
 .text          0x00000000000929d4      0x164 ../ControlUnit_bsp/\libucosii_bsp.a(altera_avalon_jtag_uart_fd.o)
                0x00000000000929d4                altera_avalon_jtag_uart_read_fd
                0x0000000000092a34                altera_avalon_jtag_uart_write_fd
                0x0000000000092a94                altera_avalon_jtag_uart_close_fd
                0x0000000000092ae4                altera_avalon_jtag_uart_ioctl_fd
 .text          0x0000000000092b38      0x55c ../ControlUnit_bsp/\libucosii_bsp.a(altera_avalon_jtag_uart_init.o)
                0x0000000000092b38                altera_avalon_jtag_uart_init
                0x000000000009302c                altera_avalon_jtag_uart_close
 .text          0x0000000000093094       0xf4 ../ControlUnit_bsp/\libucosii_bsp.a(altera_avalon_jtag_uart_ioctl.o)
                0x0000000000093094                altera_avalon_jtag_uart_ioctl
 .text          0x0000000000093188      0x2c4 ../ControlUnit_bsp/\libucosii_bsp.a(altera_avalon_jtag_uart_read.o)
                0x0000000000093188                altera_avalon_jtag_uart_read
 .text          0x000000000009344c      0x2cc ../ControlUnit_bsp/\libucosii_bsp.a(altera_avalon_jtag_uart_write.o)
                0x000000000009344c                altera_avalon_jtag_uart_write
 .text          0x0000000000093718       0xfc ../ControlUnit_bsp/\libucosii_bsp.a(altera_avalon_timer_sc.o)
                0x000000000009378c                alt_avalon_timer_sc_init
 .text          0x0000000000093814      0x140 ../ControlUnit_bsp/\libucosii_bsp.a(alt_alarm_start.o)
                0x0000000000093814                alt_alarm_start
 .text          0x0000000000093954       0x1c ../ControlUnit_bsp/\libucosii_bsp.a(alt_dcache_flush_all.o)
                0x0000000000093954                alt_dcache_flush_all
 .text          0x0000000000093970       0xf0 ../ControlUnit_bsp/\libucosii_bsp.a(alt_dev_llist_insert.o)
                0x00000000000939c0                alt_dev_llist_insert
 .text          0x0000000000093a60       0x5c ../ControlUnit_bsp/\libucosii_bsp.a(alt_do_ctors.o)
                0x0000000000093a60                _do_ctors
 .text          0x0000000000093abc       0x5c ../ControlUnit_bsp/\libucosii_bsp.a(alt_do_dtors.o)
                0x0000000000093abc                _do_dtors
 .text          0x0000000000093b18        0x0 ../ControlUnit_bsp/\libucosii_bsp.a(alt_exception_entry.o)
 .text          0x0000000000093b18       0x1c ../ControlUnit_bsp/\libucosii_bsp.a(alt_icache_flush_all.o)
                0x0000000000093b18                alt_icache_flush_all
 .text          0x0000000000093b34      0x158 ../ControlUnit_bsp/\libucosii_bsp.a(alt_io_redirect.o)
                0x0000000000093c14                alt_io_redirect
 .text          0x0000000000093c8c      0x298 ../ControlUnit_bsp/\libucosii_bsp.a(alt_open.o)
                0x0000000000093dcc                open
 .text          0x0000000000093f24      0x19c ../ControlUnit_bsp/\libucosii_bsp.a(alt_tick.o)
                0x0000000000093f24                alt_alarm_stop
                0x0000000000093fbc                alt_tick
 .text          0x00000000000940c0       0x20 ../ControlUnit_bsp/\libucosii_bsp.a(altera_nios2_qsys_irq.o)
                0x00000000000940c0                altera_nios2_qsys_irq_init
 .text          0x00000000000940e0       0xd0 ../ControlUnit_bsp/\libucosii_bsp.a(os_cpu_a.o)
                0x00000000000940e0                OSCtxSw
                0x00000000000940e0                OSIntCtxSw
                0x000000000009416c                OSStartHighRdy
                0x000000000009418c                OSStartTsk
 .text          0x00000000000941b0      0x3fc ../ControlUnit_bsp/\libucosii_bsp.a(os_cpu_c.o)
                0x00000000000941b0                OSTaskStkInit
                0x00000000000944a4                OSTaskCreateHook
                0x00000000000944c4                OSTaskDelHook
                0x00000000000944e4                OSTaskSwHook
                0x0000000000094500                OSTaskStatHook
                0x000000000009451c                OSTimeTickHook
                0x0000000000094538                OSInitHookBegin
                0x0000000000094554                OSInitHookEnd
                0x0000000000094570                OSTaskIdleHook
                0x000000000009458c                OSTCBInitHook
 .text          0x00000000000945ac       0x90 ../ControlUnit_bsp/\libucosii_bsp.a(alt_find_dev.o)
                0x00000000000945ac                alt_find_dev
 .text          0x000000000009463c      0x114 ../ControlUnit_bsp/\libucosii_bsp.a(alt_find_file.o)
                0x000000000009463c                alt_find_file
 .text          0x0000000000094750      0x114 ../ControlUnit_bsp/\libucosii_bsp.a(alt_get_fd.o)
                0x0000000000094750                alt_get_fd
 .text          0x0000000000094864       0x14 c:/altera/14.0/nios2eds/bin/gnu/h-x86_64-mingw32/bin/../lib/gcc/nios2-elf/4.7.3/../../../../../H-x86_64-mingw32/nios2-elf/lib/mno-hw-mul\libc.a(lib_a-atexit.o)
                0x0000000000094864                atexit
 .text          0x0000000000094878       0x38 c:/altera/14.0/nios2eds/bin/gnu/h-x86_64-mingw32/bin/../lib/gcc/nios2-elf/4.7.3/../../../../../H-x86_64-mingw32/nios2-elf/lib/mno-hw-mul\libc.a(lib_a-exit.o)
                0x0000000000094878                exit
 .text          0x00000000000948b0       0x7c c:/altera/14.0/nios2eds/bin/gnu/h-x86_64-mingw32/bin/../lib/gcc/nios2-elf/4.7.3/../../../../../H-x86_64-mingw32/nios2-elf/lib/mno-hw-mul\libc.a(lib_a-memcmp.o)
                0x00000000000948b0                memcmp
 .text          0x000000000009492c      0x130 c:/altera/14.0/nios2eds/bin/gnu/h-x86_64-mingw32/bin/../lib/gcc/nios2-elf/4.7.3/../../../../../H-x86_64-mingw32/nios2-elf/lib/mno-hw-mul\libc.a(lib_a-__atexit.o)
                0x000000000009492c                __register_exitproc
 .text          0x0000000000094a5c      0x1a0 c:/altera/14.0/nios2eds/bin/gnu/h-x86_64-mingw32/bin/../lib/gcc/nios2-elf/4.7.3/../../../../../H-x86_64-mingw32/nios2-elf/lib/mno-hw-mul\libc.a(lib_a-__call_atexit.o)
                0x0000000000094a5c                __call_exitprocs
 .text          0x0000000000094bfc       0x44 ../ControlUnit_bsp/\libucosii_bsp.a(alt_exit.o)
                0x0000000000094bfc                _exit
 *(.gnu.warning.*)
 *(.fini)
                0x0000000000094c40                PROVIDE (__etext, ABSOLUTE (.))
                0x0000000000094c40                PROVIDE (_etext, ABSOLUTE (.))
                0x0000000000094c40                PROVIDE (etext, ABSOLUTE (.))
 *(.eh_frame_hdr)
                0x0000000000094c40                . = ALIGN (0x4)
                0x0000000000094c40                PROVIDE (__preinit_array_start, ABSOLUTE (.))
 *(.preinit_array)
                0x0000000000094c40                PROVIDE (__preinit_array_end, ABSOLUTE (.))
                0x0000000000094c40                PROVIDE (__init_array_start, ABSOLUTE (.))
 *(.init_array)
                0x0000000000094c40                PROVIDE (__init_array_end, ABSOLUTE (.))
                0x0000000000094c40                PROVIDE (__fini_array_start, ABSOLUTE (.))
 *(.fini_array)
                0x0000000000094c40                PROVIDE (__fini_array_end, ABSOLUTE (.))
 *(.eh_frame)
 *(.gcc_except_table .gcc_except_table.*)
 *(.dynamic)
                0x0000000000094c40                PROVIDE (__CTOR_LIST__, ABSOLUTE (.))
 *(.ctors)
 *(SORT(.ctors.*))
                0x0000000000094c40                PROVIDE (__CTOR_END__, ABSOLUTE (.))
                0x0000000000094c40                PROVIDE (__DTOR_LIST__, ABSOLUTE (.))
 *(.dtors)
 *(SORT(.dtors.*))
                0x0000000000094c40                PROVIDE (__DTOR_END__, ABSOLUTE (.))
 *(.jcr)
                0x0000000000094c40                . = ALIGN (0x4)

.rodata         0x0000000000094c40      0x51c
                0x0000000000094c40                PROVIDE (__ram_rodata_start, ABSOLUTE (.))
                0x0000000000094c40                . = ALIGN (0x4)
 *(.rodata .rodata.* .gnu.linkonce.r.*)
 .rodata        0x0000000000094c40       0xd8 obj/default/main.o
 .rodata.str1.4
                0x0000000000094d18        0x2 c:/altera/14.0/nios2eds/bin/gnu/h-x86_64-mingw32/bin/../lib/gcc/nios2-elf/4.7.3/../../../../../H-x86_64-mingw32/nios2-elf/lib/mno-hw-mul\libc.a(lib_a-puts.o)
                                          0x4 (size before relaxing)
 *fill*         0x0000000000094d1a        0x2 
 .rodata.str1.4
                0x0000000000094d1c       0x42 c:/altera/14.0/nios2eds/bin/gnu/h-x86_64-mingw32/bin/../lib/gcc/nios2-elf/4.7.3/../../../../../H-x86_64-mingw32/nios2-elf/lib/mno-hw-mul\libc.a(lib_a-vfprintf.o)
                                         0x44 (size before relaxing)
 .rodata        0x0000000000094d5e       0x20 c:/altera/14.0/nios2eds/bin/gnu/h-x86_64-mingw32/bin/../lib/gcc/nios2-elf/4.7.3/../../../../../H-x86_64-mingw32/nios2-elf/lib/mno-hw-mul\libc.a(lib_a-vfprintf.o)
 *fill*         0x0000000000094d7e        0x2 
 .rodata.str1.4
                0x0000000000094d80       0x10 c:/altera/14.0/nios2eds/bin/gnu/h-x86_64-mingw32/bin/../lib/gcc/nios2-elf/4.7.3/../../../../../H-x86_64-mingw32/nios2-elf/lib/mno-hw-mul\libc.a(lib_a-dtoa.o)
                                         0x14 (size before relaxing)
 .rodata.str1.4
                0x0000000000094d90        0x2 c:/altera/14.0/nios2eds/bin/gnu/h-x86_64-mingw32/bin/../lib/gcc/nios2-elf/4.7.3/../../../../../H-x86_64-mingw32/nios2-elf/lib/mno-hw-mul\libc.a(lib_a-impure.o)
                                          0x4 (size before relaxing)
 *fill*         0x0000000000094d92        0x2 
 .rodata.str1.4
                0x0000000000094d94       0x10 c:/altera/14.0/nios2eds/bin/gnu/h-x86_64-mingw32/bin/../lib/gcc/nios2-elf/4.7.3/../../../../../H-x86_64-mingw32/nios2-elf/lib/mno-hw-mul\libc.a(lib_a-locale.o)
                                         0x18 (size before relaxing)
 .rodata        0x0000000000094da4       0x30 c:/altera/14.0/nios2eds/bin/gnu/h-x86_64-mingw32/bin/../lib/gcc/nios2-elf/4.7.3/../../../../../H-x86_64-mingw32/nios2-elf/lib/mno-hw-mul\libc.a(lib_a-locale.o)
 .rodata        0x0000000000094dd4      0x124 c:/altera/14.0/nios2eds/bin/gnu/h-x86_64-mingw32/bin/../lib/gcc/nios2-elf/4.7.3/../../../../../H-x86_64-mingw32/nios2-elf/lib/mno-hw-mul\libc.a(lib_a-mprec.o)
                0x0000000000094dd4                __mprec_tinytens
                0x0000000000094dfc                __mprec_bigtens
                0x0000000000094e24                __mprec_tens
 .rodata        0x0000000000094ef8       0x14 c:/altera/14.0/nios2eds/bin/gnu/h-x86_64-mingw32/bin/../lib/gcc/nios2-elf/4.7.3/mno-hw-mul\libgcc.a(_thenan_df.o)
                0x0000000000094ef8                __thenan_df
 .rodata        0x0000000000094f0c      0x100 c:/altera/14.0/nios2eds/bin/gnu/h-x86_64-mingw32/bin/../lib/gcc/nios2-elf/4.7.3/mno-hw-mul\libgcc.a(_clz.o)
                0x0000000000094f0c                __clz_tab
 .rodata        0x000000000009500c        0xc ../ControlUnit_bsp/\libucosii_bsp.a(alt_dev.o)
 .rodata        0x0000000000095018       0x10 ../ControlUnit_bsp/\libucosii_bsp.a(alt_main.o)
 .rodata        0x0000000000095028      0x120 ../ControlUnit_bsp/\libucosii_bsp.a(os_core.o)
                0x0000000000095028                OSUnMapTbl
 .rodata        0x0000000000095148       0x10 ../ControlUnit_bsp/\libucosii_bsp.a(alt_sys_init.o)
 .rodata        0x0000000000095158        0x4 ../ControlUnit_bsp/\libucosii_bsp.a(os_cpu_c.o)
 *(.rodata1)
                0x000000000009515c                . = ALIGN (0x4)
                0x000000000009515c                PROVIDE (__ram_rodata_end, ABSOLUTE (.))
                0x0000000000094c40                PROVIDE (__flash_rodata_start, LOADADDR (.rodata))

.rwdata         0x000000000009515c     0x1ae0 load address 0x0000000000096c3c
                0x000000000009515c                PROVIDE (__ram_rwdata_start, ABSOLUTE (.))
                0x000000000009515c                . = ALIGN (0x4)
 *(.got.plt)
 *(.got)
 *(.data1)
 *(.data .data.* .gnu.linkonce.d.*)
 .data          0x000000000009515c        0x0 ../ControlUnit_bsp//obj/HAL/src/crt0.o
 .data          0x000000000009515c        0x0 obj/default/main.o
 .data          0x000000000009515c        0x0 obj/default/switchesIRQhandler.o
 .data          0x000000000009515c        0x0 c:/altera/14.0/nios2eds/bin/gnu/h-x86_64-mingw32/bin/../lib/gcc/nios2-elf/4.7.3/../../../../../H-x86_64-mingw32/nios2-elf/lib/mno-hw-mul\libc.a(lib_a-printf.o)
 .data          0x000000000009515c        0x0 c:/altera/14.0/nios2eds/bin/gnu/h-x86_64-mingw32/bin/../lib/gcc/nios2-elf/4.7.3/../../../../../H-x86_64-mingw32/nios2-elf/lib/mno-hw-mul\libc.a(lib_a-puts.o)
 .data          0x000000000009515c        0x0 c:/altera/14.0/nios2eds/bin/gnu/h-x86_64-mingw32/bin/../lib/gcc/nios2-elf/4.7.3/../../../../../H-x86_64-mingw32/nios2-elf/lib/mno-hw-mul\libc.a(lib_a-strlen.o)
 .data          0x000000000009515c        0x0 c:/altera/14.0/nios2eds/bin/gnu/h-x86_64-mingw32/bin/../lib/gcc/nios2-elf/4.7.3/../../../../../H-x86_64-mingw32/nios2-elf/lib/mno-hw-mul\libc.a(lib_a-vfprintf.o)
 .data          0x000000000009515c        0x0 c:/altera/14.0/nios2eds/bin/gnu/h-x86_64-mingw32/bin/../lib/gcc/nios2-elf/4.7.3/../../../../../H-x86_64-mingw32/nios2-elf/lib/mno-hw-mul\libc.a(lib_a-wsetup.o)
 .data          0x000000000009515c        0x0 c:/altera/14.0/nios2eds/bin/gnu/h-x86_64-mingw32/bin/../lib/gcc/nios2-elf/4.7.3/../../../../../H-x86_64-mingw32/nios2-elf/lib/mno-hw-mul\libc.a(lib_a-dtoa.o)
 .data          0x000000000009515c        0x0 c:/altera/14.0/nios2eds/bin/gnu/h-x86_64-mingw32/bin/../lib/gcc/nios2-elf/4.7.3/../../../../../H-x86_64-mingw32/nios2-elf/lib/mno-hw-mul\libc.a(lib_a-fflush.o)
 .data          0x000000000009515c        0x0 c:/altera/14.0/nios2eds/bin/gnu/h-x86_64-mingw32/bin/../lib/gcc/nios2-elf/4.7.3/../../../../../H-x86_64-mingw32/nios2-elf/lib/mno-hw-mul\libc.a(lib_a-findfp.o)
 .data          0x000000000009515c        0x0 c:/altera/14.0/nios2eds/bin/gnu/h-x86_64-mingw32/bin/../lib/gcc/nios2-elf/4.7.3/../../../../../H-x86_64-mingw32/nios2-elf/lib/mno-hw-mul\libc.a(lib_a-freer.o)
 .data          0x000000000009515c        0x0 c:/altera/14.0/nios2eds/bin/gnu/h-x86_64-mingw32/bin/../lib/gcc/nios2-elf/4.7.3/../../../../../H-x86_64-mingw32/nios2-elf/lib/mno-hw-mul\libc.a(lib_a-fvwrite.o)
 .data          0x000000000009515c        0x0 c:/altera/14.0/nios2eds/bin/gnu/h-x86_64-mingw32/bin/../lib/gcc/nios2-elf/4.7.3/../../../../../H-x86_64-mingw32/nios2-elf/lib/mno-hw-mul\libc.a(lib_a-fwalk.o)
 .data          0x000000000009515c      0x400 c:/altera/14.0/nios2eds/bin/gnu/h-x86_64-mingw32/bin/../lib/gcc/nios2-elf/4.7.3/../../../../../H-x86_64-mingw32/nios2-elf/lib/mno-hw-mul\libc.a(lib_a-impure.o)
 .data          0x000000000009555c        0xc c:/altera/14.0/nios2eds/bin/gnu/h-x86_64-mingw32/bin/../lib/gcc/nios2-elf/4.7.3/../../../../../H-x86_64-mingw32/nios2-elf/lib/mno-hw-mul\libc.a(lib_a-locale.o)
                0x000000000009555c                __lc_ctype
 .data          0x0000000000095568        0x0 c:/altera/14.0/nios2eds/bin/gnu/h-x86_64-mingw32/bin/../lib/gcc/nios2-elf/4.7.3/../../../../../H-x86_64-mingw32/nios2-elf/lib/mno-hw-mul\libc.a(lib_a-makebuf.o)
 .data          0x0000000000095568      0x408 c:/altera/14.0/nios2eds/bin/gnu/h-x86_64-mingw32/bin/../lib/gcc/nios2-elf/4.7.3/../../../../../H-x86_64-mingw32/nios2-elf/lib/mno-hw-mul\libc.a(lib_a-mallocr.o)
                0x0000000000095568                __malloc_av_
 .data          0x0000000000095970        0x0 c:/altera/14.0/nios2eds/bin/gnu/h-x86_64-mingw32/bin/../lib/gcc/nios2-elf/4.7.3/../../../../../H-x86_64-mingw32/nios2-elf/lib/mno-hw-mul\libc.a(lib_a-memchr.o)
 .data          0x0000000000095970        0x0 c:/altera/14.0/nios2eds/bin/gnu/h-x86_64-mingw32/bin/../lib/gcc/nios2-elf/4.7.3/../../../../../H-x86_64-mingw32/nios2-elf/lib/mno-hw-mul\libc.a(lib_a-memcpy.o)
 .data          0x0000000000095970        0x0 c:/altera/14.0/nios2eds/bin/gnu/h-x86_64-mingw32/bin/../lib/gcc/nios2-elf/4.7.3/../../../../../H-x86_64-mingw32/nios2-elf/lib/mno-hw-mul\libc.a(lib_a-memmove.o)
 .data          0x0000000000095970        0x0 c:/altera/14.0/nios2eds/bin/gnu/h-x86_64-mingw32/bin/../lib/gcc/nios2-elf/4.7.3/../../../../../H-x86_64-mingw32/nios2-elf/lib/mno-hw-mul\libc.a(lib_a-memset.o)
 .data          0x0000000000095970        0x0 c:/altera/14.0/nios2eds/bin/gnu/h-x86_64-mingw32/bin/../lib/gcc/nios2-elf/4.7.3/../../../../../H-x86_64-mingw32/nios2-elf/lib/mno-hw-mul\libc.a(lib_a-mprec.o)
 .data          0x0000000000095970        0x0 c:/altera/14.0/nios2eds/bin/gnu/h-x86_64-mingw32/bin/../lib/gcc/nios2-elf/4.7.3/../../../../../H-x86_64-mingw32/nios2-elf/lib/mno-hw-mul\libc.a(lib_a-reallocr.o)
 .data          0x0000000000095970        0x0 c:/altera/14.0/nios2eds/bin/gnu/h-x86_64-mingw32/bin/../lib/gcc/nios2-elf/4.7.3/../../../../../H-x86_64-mingw32/nios2-elf/lib/mno-hw-mul\libc.a(lib_a-s_isinfd.o)
 .data          0x0000000000095970        0x0 c:/altera/14.0/nios2eds/bin/gnu/h-x86_64-mingw32/bin/../lib/gcc/nios2-elf/4.7.3/../../../../../H-x86_64-mingw32/nios2-elf/lib/mno-hw-mul\libc.a(lib_a-s_isnand.o)
 .data          0x0000000000095970        0x0 c:/altera/14.0/nios2eds/bin/gnu/h-x86_64-mingw32/bin/../lib/gcc/nios2-elf/4.7.3/../../../../../H-x86_64-mingw32/nios2-elf/lib/mno-hw-mul\libc.a(lib_a-sbrkr.o)
 .data          0x0000000000095970        0x0 c:/altera/14.0/nios2eds/bin/gnu/h-x86_64-mingw32/bin/../lib/gcc/nios2-elf/4.7.3/../../../../../H-x86_64-mingw32/nios2-elf/lib/mno-hw-mul\libc.a(lib_a-stdio.o)
 .data          0x0000000000095970        0x0 c:/altera/14.0/nios2eds/bin/gnu/h-x86_64-mingw32/bin/../lib/gcc/nios2-elf/4.7.3/../../../../../H-x86_64-mingw32/nios2-elf/lib/mno-hw-mul\libc.a(lib_a-strcmp.o)
 .data          0x0000000000095970        0x0 c:/altera/14.0/nios2eds/bin/gnu/h-x86_64-mingw32/bin/../lib/gcc/nios2-elf/4.7.3/../../../../../H-x86_64-mingw32/nios2-elf/lib/mno-hw-mul\libc.a(lib_a-writer.o)
 .data          0x0000000000095970        0x0 c:/altera/14.0/nios2eds/bin/gnu/h-x86_64-mingw32/bin/../lib/gcc/nios2-elf/4.7.3/../../../../../H-x86_64-mingw32/nios2-elf/lib/mno-hw-mul\libc.a(lib_a-callocr.o)
 .data          0x0000000000095970        0x0 c:/altera/14.0/nios2eds/bin/gnu/h-x86_64-mingw32/bin/../lib/gcc/nios2-elf/4.7.3/../../../../../H-x86_64-mingw32/nios2-elf/lib/mno-hw-mul\libc.a(lib_a-closer.o)
 .data          0x0000000000095970        0x0 c:/altera/14.0/nios2eds/bin/gnu/h-x86_64-mingw32/bin/../lib/gcc/nios2-elf/4.7.3/../../../../../H-x86_64-mingw32/nios2-elf/lib/mno-hw-mul\libc.a(lib_a-fclose.o)
 .data          0x0000000000095970        0x0 c:/altera/14.0/nios2eds/bin/gnu/h-x86_64-mingw32/bin/../lib/gcc/nios2-elf/4.7.3/../../../../../H-x86_64-mingw32/nios2-elf/lib/mno-hw-mul\libc.a(lib_a-fstatr.o)
 .data          0x0000000000095970        0x0 c:/altera/14.0/nios2eds/bin/gnu/h-x86_64-mingw32/bin/../lib/gcc/nios2-elf/4.7.3/../../../../../H-x86_64-mingw32/nios2-elf/lib/mno-hw-mul\libc.a(lib_a-int_errno.o)
 .data          0x0000000000095970        0x0 c:/altera/14.0/nios2eds/bin/gnu/h-x86_64-mingw32/bin/../lib/gcc/nios2-elf/4.7.3/../../../../../H-x86_64-mingw32/nios2-elf/lib/mno-hw-mul\libc.a(lib_a-isattyr.o)
 .data          0x0000000000095970        0x0 c:/altera/14.0/nios2eds/bin/gnu/h-x86_64-mingw32/bin/../lib/gcc/nios2-elf/4.7.3/../../../../../H-x86_64-mingw32/nios2-elf/lib/mno-hw-mul\libc.a(lib_a-lseekr.o)
 .data          0x0000000000095970        0x0 c:/altera/14.0/nios2eds/bin/gnu/h-x86_64-mingw32/bin/../lib/gcc/nios2-elf/4.7.3/../../../../../H-x86_64-mingw32/nios2-elf/lib/mno-hw-mul\libc.a(lib_a-readr.o)
 .data          0x0000000000095970        0x0 c:/altera/14.0/nios2eds/bin/gnu/h-x86_64-mingw32/bin/../lib/gcc/nios2-elf/4.7.3/mno-hw-mul\libgcc.a(_udivdi3.o)
 .data          0x0000000000095970        0x0 c:/altera/14.0/nios2eds/bin/gnu/h-x86_64-mingw32/bin/../lib/gcc/nios2-elf/4.7.3/mno-hw-mul\libgcc.a(_umoddi3.o)
 .data          0x0000000000095970        0x0 c:/altera/14.0/nios2eds/bin/gnu/h-x86_64-mingw32/bin/../lib/gcc/nios2-elf/4.7.3/mno-hw-mul\libgcc.a(_addsub_df.o)
 .data          0x0000000000095970        0x0 c:/altera/14.0/nios2eds/bin/gnu/h-x86_64-mingw32/bin/../lib/gcc/nios2-elf/4.7.3/mno-hw-mul\libgcc.a(_mul_df.o)
 .data          0x0000000000095970        0x0 c:/altera/14.0/nios2eds/bin/gnu/h-x86_64-mingw32/bin/../lib/gcc/nios2-elf/4.7.3/mno-hw-mul\libgcc.a(_div_df.o)
 .data          0x0000000000095970        0x0 c:/altera/14.0/nios2eds/bin/gnu/h-x86_64-mingw32/bin/../lib/gcc/nios2-elf/4.7.3/mno-hw-mul\libgcc.a(_eq_df.o)
 .data          0x0000000000095970        0x0 c:/altera/14.0/nios2eds/bin/gnu/h-x86_64-mingw32/bin/../lib/gcc/nios2-elf/4.7.3/mno-hw-mul\libgcc.a(_ne_df.o)
 .data          0x0000000000095970        0x0 c:/altera/14.0/nios2eds/bin/gnu/h-x86_64-mingw32/bin/../lib/gcc/nios2-elf/4.7.3/mno-hw-mul\libgcc.a(_gt_df.o)
 .data          0x0000000000095970        0x0 c:/altera/14.0/nios2eds/bin/gnu/h-x86_64-mingw32/bin/../lib/gcc/nios2-elf/4.7.3/mno-hw-mul\libgcc.a(_ge_df.o)
 .data          0x0000000000095970        0x0 c:/altera/14.0/nios2eds/bin/gnu/h-x86_64-mingw32/bin/../lib/gcc/nios2-elf/4.7.3/mno-hw-mul\libgcc.a(_lt_df.o)
 .data          0x0000000000095970        0x0 c:/altera/14.0/nios2eds/bin/gnu/h-x86_64-mingw32/bin/../lib/gcc/nios2-elf/4.7.3/mno-hw-mul\libgcc.a(_si_to_df.o)
 .data          0x0000000000095970        0x0 c:/altera/14.0/nios2eds/bin/gnu/h-x86_64-mingw32/bin/../lib/gcc/nios2-elf/4.7.3/mno-hw-mul\libgcc.a(_df_to_si.o)
 .data          0x0000000000095970        0x0 c:/altera/14.0/nios2eds/bin/gnu/h-x86_64-mingw32/bin/../lib/gcc/nios2-elf/4.7.3/mno-hw-mul\libgcc.a(_thenan_df.o)
 .data          0x0000000000095970        0x0 c:/altera/14.0/nios2eds/bin/gnu/h-x86_64-mingw32/bin/../lib/gcc/nios2-elf/4.7.3/mno-hw-mul\libgcc.a(_usi_to_df.o)
 .data          0x0000000000095970        0x0 c:/altera/14.0/nios2eds/bin/gnu/h-x86_64-mingw32/bin/../lib/gcc/nios2-elf/4.7.3/mno-hw-mul\libgcc.a(lib2-divmod.o)
 .data          0x0000000000095970        0x0 c:/altera/14.0/nios2eds/bin/gnu/h-x86_64-mingw32/bin/../lib/gcc/nios2-elf/4.7.3/mno-hw-mul\libgcc.a(lib2-mul.o)
 .data          0x0000000000095970        0x0 c:/altera/14.0/nios2eds/bin/gnu/h-x86_64-mingw32/bin/../lib/gcc/nios2-elf/4.7.3/mno-hw-mul\libgcc.a(_muldi3.o)
 .data          0x0000000000095970        0x0 c:/altera/14.0/nios2eds/bin/gnu/h-x86_64-mingw32/bin/../lib/gcc/nios2-elf/4.7.3/mno-hw-mul\libgcc.a(_clz.o)
 .data          0x0000000000095970        0x0 c:/altera/14.0/nios2eds/bin/gnu/h-x86_64-mingw32/bin/../lib/gcc/nios2-elf/4.7.3/mno-hw-mul\libgcc.a(_clzsi2.o)
 .data          0x0000000000095970        0x0 c:/altera/14.0/nios2eds/bin/gnu/h-x86_64-mingw32/bin/../lib/gcc/nios2-elf/4.7.3/mno-hw-mul\libgcc.a(_pack_df.o)
 .data          0x0000000000095970        0x0 c:/altera/14.0/nios2eds/bin/gnu/h-x86_64-mingw32/bin/../lib/gcc/nios2-elf/4.7.3/mno-hw-mul\libgcc.a(_unpack_df.o)
 .data          0x0000000000095970        0x0 c:/altera/14.0/nios2eds/bin/gnu/h-x86_64-mingw32/bin/../lib/gcc/nios2-elf/4.7.3/mno-hw-mul\libgcc.a(_fpcmp_parts_df.o)
 .data          0x0000000000095970        0x0 c:/altera/14.0/nios2eds/bin/gnu/h-x86_64-mingw32/bin/../lib/gcc/nios2-elf/4.7.3/mno-hw-mul\libgcc.a(_lshrdi3.o)
 .data          0x0000000000095970        0x0 c:/altera/14.0/nios2eds/bin/gnu/h-x86_64-mingw32/bin/../lib/gcc/nios2-elf/4.7.3/mno-hw-mul\libgcc.a(_ashldi3.o)
 .data          0x0000000000095970        0x0 ../ControlUnit_bsp/\libucosii_bsp.a(alt_close.o)
 .data          0x0000000000095970      0x1a8 ../ControlUnit_bsp/\libucosii_bsp.a(alt_dev.o)
                0x0000000000095970                alt_dev_null
                0x0000000000095998                alt_fd_list
 .data          0x0000000000095b18        0x0 ../ControlUnit_bsp/\libucosii_bsp.a(alt_errno.o)
 .data          0x0000000000095b18        0x0 ../ControlUnit_bsp/\libucosii_bsp.a(alt_fstat.o)
 .data          0x0000000000095b18        0x0 ../ControlUnit_bsp/\libucosii_bsp.a(alt_iic.o)
 .data          0x0000000000095b18        0x0 ../ControlUnit_bsp/\libucosii_bsp.a(alt_iic_isr_register.o)
 .data          0x0000000000095b18        0x0 ../ControlUnit_bsp/\libucosii_bsp.a(alt_irq_entry.o)
 .data          0x0000000000095b18        0x0 ../ControlUnit_bsp/\libucosii_bsp.a(alt_irq_handler.o)
 .data          0x0000000000095b18        0x0 ../ControlUnit_bsp/\libucosii_bsp.a(alt_irq_vars.o)
 .data          0x0000000000095b18        0x0 ../ControlUnit_bsp/\libucosii_bsp.a(alt_isatty.o)
 .data          0x0000000000095b18        0x0 ../ControlUnit_bsp/\libucosii_bsp.a(alt_load.o)
 .data          0x0000000000095b18        0x0 ../ControlUnit_bsp/\libucosii_bsp.a(alt_lseek.o)
 .data          0x0000000000095b18        0x0 ../ControlUnit_bsp/\libucosii_bsp.a(alt_main.o)
 .data          0x0000000000095b18        0x0 ../ControlUnit_bsp/\libucosii_bsp.a(alt_read.o)
 .data          0x0000000000095b18        0x0 ../ControlUnit_bsp/\libucosii_bsp.a(alt_release_fd.o)
 .data          0x0000000000095b18        0x0 ../ControlUnit_bsp/\libucosii_bsp.a(alt_sbrk.o)
 .data          0x0000000000095b18        0x0 ../ControlUnit_bsp/\libucosii_bsp.a(alt_write.o)
 .data          0x0000000000095b18        0x0 ../ControlUnit_bsp/\libucosii_bsp.a(alt_env_lock.o)
 .data          0x0000000000095b18        0x0 ../ControlUnit_bsp/\libucosii_bsp.a(alt_malloc_lock.o)
 .data          0x0000000000095b18        0x0 ../ControlUnit_bsp/\libucosii_bsp.a(os_core.o)
 .data          0x0000000000095b18        0x0 ../ControlUnit_bsp/\libucosii_bsp.a(os_dbg.o)
 .data          0x0000000000095b18        0x0 ../ControlUnit_bsp/\libucosii_bsp.a(os_flag.o)
 .data          0x0000000000095b18        0x0 ../ControlUnit_bsp/\libucosii_bsp.a(os_mem.o)
 .data          0x0000000000095b18        0x0 ../ControlUnit_bsp/\libucosii_bsp.a(os_q.o)
 .data          0x0000000000095b18        0x0 ../ControlUnit_bsp/\libucosii_bsp.a(os_sem.o)
 .data          0x0000000000095b18        0x0 ../ControlUnit_bsp/\libucosii_bsp.a(os_task.o)
 .data          0x0000000000095b18        0x0 ../ControlUnit_bsp/\libucosii_bsp.a(os_time.o)
 .data          0x0000000000095b18     0x106c ../ControlUnit_bsp/\libucosii_bsp.a(alt_sys_init.o)
 .data          0x0000000000096b84        0x0 ../ControlUnit_bsp/\libucosii_bsp.a(altera_avalon_jtag_uart_fd.o)
 .data          0x0000000000096b84        0x0 ../ControlUnit_bsp/\libucosii_bsp.a(altera_avalon_jtag_uart_init.o)
 .data          0x0000000000096b84        0x0 ../ControlUnit_bsp/\libucosii_bsp.a(altera_avalon_jtag_uart_ioctl.o)
 .data          0x0000000000096b84        0x0 ../ControlUnit_bsp/\libucosii_bsp.a(altera_avalon_jtag_uart_read.o)
 .data          0x0000000000096b84        0x0 ../ControlUnit_bsp/\libucosii_bsp.a(altera_avalon_jtag_uart_write.o)
 .data          0x0000000000096b84        0x0 ../ControlUnit_bsp/\libucosii_bsp.a(altera_avalon_timer_sc.o)
 .data          0x0000000000096b84        0x0 ../ControlUnit_bsp/\libucosii_bsp.a(alt_alarm_start.o)
 .data          0x0000000000096b84        0x0 ../ControlUnit_bsp/\libucosii_bsp.a(alt_dcache_flush_all.o)
 .data          0x0000000000096b84        0x0 ../ControlUnit_bsp/\libucosii_bsp.a(alt_dev_llist_insert.o)
 .data          0x0000000000096b84        0x0 ../ControlUnit_bsp/\libucosii_bsp.a(alt_do_ctors.o)
 .data          0x0000000000096b84        0x0 ../ControlUnit_bsp/\libucosii_bsp.a(alt_do_dtors.o)
 .data          0x0000000000096b84        0x0 ../ControlUnit_bsp/\libucosii_bsp.a(alt_exception_entry.o)
 .data          0x0000000000096b84        0x0 ../ControlUnit_bsp/\libucosii_bsp.a(alt_icache_flush_all.o)
 .data          0x0000000000096b84        0x0 ../ControlUnit_bsp/\libucosii_bsp.a(alt_io_redirect.o)
 .data          0x0000000000096b84        0x0 ../ControlUnit_bsp/\libucosii_bsp.a(alt_open.o)
 .data          0x0000000000096b84        0x0 ../ControlUnit_bsp/\libucosii_bsp.a(alt_tick.o)
 .data          0x0000000000096b84        0x0 ../ControlUnit_bsp/\libucosii_bsp.a(altera_nios2_qsys_irq.o)
 .data          0x0000000000096b84        0x0 ../ControlUnit_bsp/\libucosii_bsp.a(os_cpu_a.o)
 .data          0x0000000000096b84        0x0 ../ControlUnit_bsp/\libucosii_bsp.a(os_cpu_c.o)
 .data          0x0000000000096b84        0x0 ../ControlUnit_bsp/\libucosii_bsp.a(alt_find_dev.o)
 .data          0x0000000000096b84        0x0 ../ControlUnit_bsp/\libucosii_bsp.a(alt_find_file.o)
 .data          0x0000000000096b84        0x0 ../ControlUnit_bsp/\libucosii_bsp.a(alt_get_fd.o)
 .data          0x0000000000096b84        0x0 c:/altera/14.0/nios2eds/bin/gnu/h-x86_64-mingw32/bin/../lib/gcc/nios2-elf/4.7.3/../../../../../H-x86_64-mingw32/nios2-elf/lib/mno-hw-mul\libc.a(lib_a-atexit.o)
 .data          0x0000000000096b84        0x0 c:/altera/14.0/nios2eds/bin/gnu/h-x86_64-mingw32/bin/../lib/gcc/nios2-elf/4.7.3/../../../../../H-x86_64-mingw32/nios2-elf/lib/mno-hw-mul\libc.a(lib_a-exit.o)
 .data          0x0000000000096b84        0x0 c:/altera/14.0/nios2eds/bin/gnu/h-x86_64-mingw32/bin/../lib/gcc/nios2-elf/4.7.3/../../../../../H-x86_64-mingw32/nios2-elf/lib/mno-hw-mul\libc.a(lib_a-memcmp.o)
 .data          0x0000000000096b84        0x0 c:/altera/14.0/nios2eds/bin/gnu/h-x86_64-mingw32/bin/../lib/gcc/nios2-elf/4.7.3/../../../../../H-x86_64-mingw32/nios2-elf/lib/mno-hw-mul\libc.a(lib_a-__atexit.o)
 .data          0x0000000000096b84        0x0 c:/altera/14.0/nios2eds/bin/gnu/h-x86_64-mingw32/bin/../lib/gcc/nios2-elf/4.7.3/../../../../../H-x86_64-mingw32/nios2-elf/lib/mno-hw-mul\libc.a(lib_a-__call_atexit.o)
 .data          0x0000000000096b84        0x0 ../ControlUnit_bsp/\libucosii_bsp.a(alt_exit.o)
                0x000000000009eb84                _gp = ABSOLUTE ((. + 0x8000))
                0x000000000009eb84                PROVIDE (gp, _gp)
 *(.rwdata .rwdata.*)
 *(.sdata .sdata.* .gnu.linkonce.s.*)
 .sdata         0x0000000000096b84        0x8 c:/altera/14.0/nios2eds/bin/gnu/h-x86_64-mingw32/bin/../lib/gcc/nios2-elf/4.7.3/../../../../../H-x86_64-mingw32/nios2-elf/lib/mno-hw-mul\libc.a(lib_a-impure.o)
                0x0000000000096b84                _global_impure_ptr
                0x0000000000096b88                _impure_ptr
 .sdata         0x0000000000096b8c        0x4 c:/altera/14.0/nios2eds/bin/gnu/h-x86_64-mingw32/bin/../lib/gcc/nios2-elf/4.7.3/../../../../../H-x86_64-mingw32/nios2-elf/lib/mno-hw-mul\libc.a(lib_a-locale.o)
                0x0000000000096b8c                __mb_cur_max
 .sdata         0x0000000000096b90        0x8 c:/altera/14.0/nios2eds/bin/gnu/h-x86_64-mingw32/bin/../lib/gcc/nios2-elf/4.7.3/../../../../../H-x86_64-mingw32/nios2-elf/lib/mno-hw-mul\libc.a(lib_a-mallocr.o)
                0x0000000000096b90                __malloc_sbrk_base
                0x0000000000096b94                __malloc_trim_threshold
 .sdata         0x0000000000096b98       0x14 ../ControlUnit_bsp/\libucosii_bsp.a(alt_dev.o)
                0x0000000000096b98                alt_fs_list
                0x0000000000096ba0                alt_dev_list
                0x0000000000096ba8                alt_max_fd
 .sdata         0x0000000000096bac        0x4 ../ControlUnit_bsp/\libucosii_bsp.a(alt_errno.o)
                0x0000000000096bac                alt_errno
 .sdata         0x0000000000096bb0        0x4 ../ControlUnit_bsp/\libucosii_bsp.a(alt_irq_vars.o)
                0x0000000000096bb0                alt_priority_mask
 .sdata         0x0000000000096bb4        0x4 ../ControlUnit_bsp/\libucosii_bsp.a(alt_sbrk.o)
 .sdata         0x0000000000096bb8        0x4 ../ControlUnit_bsp/\libucosii_bsp.a(alt_env_lock.o)
 .sdata         0x0000000000096bbc        0x4 ../ControlUnit_bsp/\libucosii_bsp.a(alt_malloc_lock.o)
 .sdata         0x0000000000096bc0       0x74 ../ControlUnit_bsp/\libucosii_bsp.a(os_dbg.o)
                0x0000000000096bc0                OSDebugEn
                0x0000000000096bc4                OSEndiannessTest
                0x0000000000096bc8                OSEventEn
                0x0000000000096bca                OSEventMax
                0x0000000000096bcc                OSEventNameSize
                0x0000000000096bce                OSEventSize
                0x0000000000096bd0                OSEventTblSize
                0x0000000000096bd2                OSEventMultiEn
                0x0000000000096bd4                OSFlagEn
                0x0000000000096bd6                OSFlagGrpSize
                0x0000000000096bd8                OSFlagNodeSize
                0x0000000000096bda                OSFlagWidth
                0x0000000000096bdc                OSFlagMax
                0x0000000000096bde                OSFlagNameSize
                0x0000000000096be0                OSLowestPrio
                0x0000000000096be2                OSMboxEn
                0x0000000000096be4                OSMemEn
                0x0000000000096be6                OSMemMax
                0x0000000000096be8                OSMemNameSize
                0x0000000000096bea                OSMemSize
                0x0000000000096bec                OSMemTblSize
                0x0000000000096bee                OSMutexEn
                0x0000000000096bf0                OSPtrSize
                0x0000000000096bf2                OSQEn
                0x0000000000096bf4                OSQMax
                0x0000000000096bf6                OSQSize
                0x0000000000096bf8                OSRdyTblSize
                0x0000000000096bfa                OSSemEn
                0x0000000000096bfc                OSStkWidth
                0x0000000000096bfe                OSTaskCreateEn
                0x0000000000096c00                OSTaskCreateExtEn
                0x0000000000096c02                OSTaskDelEn
                0x0000000000096c04                OSTaskIdleStkSize
                0x0000000000096c06                OSTaskProfileEn
                0x0000000000096c08                OSTaskMax
                0x0000000000096c0a                OSTaskNameSize
                0x0000000000096c0c                OSTaskStatEn
                0x0000000000096c0e                OSTaskStatStkSize
                0x0000000000096c10                OSTaskStatStkChkEn
                0x0000000000096c12                OSTaskSwHookEn
                0x0000000000096c14                OSTCBPrioTblMax
                0x0000000000096c16                OSTCBSize
                0x0000000000096c18                OSTicksPerSec
                0x0000000000096c1a                OSTimeTickHookEn
                0x0000000000096c1c                OSVersionNbr
                0x0000000000096c1e                OSTmrEn
                0x0000000000096c20                OSTmrCfgMax
                0x0000000000096c22                OSTmrCfgNameSize
                0x0000000000096c24                OSTmrCfgWheelSize
                0x0000000000096c26                OSTmrCfgTicksPerSec
                0x0000000000096c28                OSTmrSize
                0x0000000000096c2a                OSTmrTblSize
                0x0000000000096c2c                OSTmrWheelSize
                0x0000000000096c2e                OSTmrWheelTblSize
                0x0000000000096c30                OSDataSize
 .sdata         0x0000000000096c34        0x8 ../ControlUnit_bsp/\libucosii_bsp.a(alt_tick.o)
                0x0000000000096c34                alt_alarm_list
 *(.sdata2 .sdata2.* .gnu.linkonce.s2.*)
                0x0000000000096c3c                . = ALIGN (0x4)
                0x0000000000096c3c                _edata = ABSOLUTE (.)
                0x0000000000096c3c                PROVIDE (edata, ABSOLUTE (.))
                0x0000000000096c3c                PROVIDE (__ram_rwdata_end, ABSOLUTE (.))
                0x0000000000096c3c                PROVIDE (__flash_rwdata_start, LOADADDR (.rwdata))

.bss            0x000000000009871c     0x757c
                0x000000000009871c                __bss_start = ABSOLUTE (.)
                0x000000000009871c                PROVIDE (__sbss_start, ABSOLUTE (.))
                0x000000000009871c                PROVIDE (___sbss_start, ABSOLUTE (.))
 *(.dynsbss)
 *(.sbss .sbss.* .gnu.linkonce.sb.*)
 .sbss          0x000000000009871c        0x8 obj/default/main.o
                0x000000000009871c                KeyEvents
                0x0000000000098720                ISRcontext
 .sbss          0x0000000000098724        0xc c:/altera/14.0/nios2eds/bin/gnu/h-x86_64-mingw32/bin/../lib/gcc/nios2-elf/4.7.3/../../../../../H-x86_64-mingw32/nios2-elf/lib/mno-hw-mul\libc.a(lib_a-locale.o)
                0x0000000000098724                _PathLocale
                0x0000000000098728                __mlocale_changed
                0x000000000009872c                __nlocale_changed
 .sbss          0x0000000000098730        0xc c:/altera/14.0/nios2eds/bin/gnu/h-x86_64-mingw32/bin/../lib/gcc/nios2-elf/4.7.3/../../../../../H-x86_64-mingw32/nios2-elf/lib/mno-hw-mul\libc.a(lib_a-mallocr.o)
                0x0000000000098730                __malloc_max_total_mem
                0x0000000000098734                __malloc_max_sbrked_mem
                0x0000000000098738                __malloc_top_pad
 .sbss          0x000000000009873c        0x4 c:/altera/14.0/nios2eds/bin/gnu/h-x86_64-mingw32/bin/../lib/gcc/nios2-elf/4.7.3/../../../../../H-x86_64-mingw32/nios2-elf/lib/mno-hw-mul\libc.a(lib_a-int_errno.o)
                0x000000000009873c                errno
 .sbss          0x0000000000098740        0x4 ../ControlUnit_bsp/\libucosii_bsp.a(alt_dev.o)
                0x0000000000098740                alt_fd_list_lock
 .sbss          0x0000000000098744        0x4 ../ControlUnit_bsp/\libucosii_bsp.a(alt_irq_vars.o)
                0x0000000000098744                alt_irq_active
 .sbss          0x0000000000098748        0xc ../ControlUnit_bsp/\libucosii_bsp.a(alt_main.o)
                0x0000000000098748                alt_argc
                0x000000000009874c                alt_argv
                0x0000000000098750                alt_envp
 .sbss          0x0000000000098754        0x8 ../ControlUnit_bsp/\libucosii_bsp.a(alt_env_lock.o)
                0x0000000000098758                alt_envsem
 .sbss          0x000000000009875c        0x8 ../ControlUnit_bsp/\libucosii_bsp.a(alt_malloc_lock.o)
                0x0000000000098760                alt_heapsem
 .sbss          0x0000000000098764       0x50 ../ControlUnit_bsp/\libucosii_bsp.a(os_core.o)
                0x0000000000098764                OSLockNesting
                0x0000000000098765                OSRunning
                0x0000000000098768                OSIdleCtr
                0x000000000009876c                OSPrioHighRdy
                0x000000000009876d                OSPrioCur
                0x0000000000098770                OSTCBList
                0x0000000000098774                OSTickStepState
                0x0000000000098778                OSCtxSwCtr
                0x000000000009877c                OSIdleCtrMax
                0x0000000000098780                OSTCBFreeList
                0x0000000000098784                OSCPUUsage
                0x0000000000098785                OSTaskCtr
                0x0000000000098788                OSMemFreeList
                0x000000000009878c                OSTCBHighRdy
                0x0000000000098790                OSQFreeList
                0x0000000000098794                OSRdyGrp
                0x0000000000098795                OSRdyTbl
                0x0000000000098798                OSEventFreeList
                0x000000000009879c                OSIntNesting
                0x00000000000987a0                OSTCBCur
                0x00000000000987a4                OSTime
                0x00000000000987a8                OSFlagFreeList
                0x00000000000987ac                OSStatRdy
                0x00000000000987b0                OSIdleCtrRun
 .sbss          0x00000000000987b4        0x8 ../ControlUnit_bsp/\libucosii_bsp.a(alt_tick.o)
                0x00000000000987b4                _alt_tick_rate
                0x00000000000987b8                _alt_nticks
 *(.sbss2 .sbss2.* .gnu.linkonce.sb2.*)
 *(.scommon)
                0x00000000000987bc                PROVIDE (__sbss_end, ABSOLUTE (.))
                0x00000000000987bc                PROVIDE (___sbss_end, ABSOLUTE (.))
 *(.dynbss)
 *(.bss .bss.* .gnu.linkonce.b.*)
 .bss           0x00000000000987bc        0x0 ../ControlUnit_bsp//obj/HAL/src/crt0.o
 .bss           0x00000000000987bc        0x0 obj/default/main.o
 .bss           0x00000000000987bc        0x0 obj/default/switchesIRQhandler.o
 .bss           0x00000000000987bc        0x0 c:/altera/14.0/nios2eds/bin/gnu/h-x86_64-mingw32/bin/../lib/gcc/nios2-elf/4.7.3/../../../../../H-x86_64-mingw32/nios2-elf/lib/mno-hw-mul\libc.a(lib_a-printf.o)
 .bss           0x00000000000987bc        0x0 c:/altera/14.0/nios2eds/bin/gnu/h-x86_64-mingw32/bin/../lib/gcc/nios2-elf/4.7.3/../../../../../H-x86_64-mingw32/nios2-elf/lib/mno-hw-mul\libc.a(lib_a-puts.o)
 .bss           0x00000000000987bc        0x0 c:/altera/14.0/nios2eds/bin/gnu/h-x86_64-mingw32/bin/../lib/gcc/nios2-elf/4.7.3/../../../../../H-x86_64-mingw32/nios2-elf/lib/mno-hw-mul\libc.a(lib_a-strlen.o)
 .bss           0x00000000000987bc        0x0 c:/altera/14.0/nios2eds/bin/gnu/h-x86_64-mingw32/bin/../lib/gcc/nios2-elf/4.7.3/../../../../../H-x86_64-mingw32/nios2-elf/lib/mno-hw-mul\libc.a(lib_a-vfprintf.o)
 .bss           0x00000000000987bc        0x0 c:/altera/14.0/nios2eds/bin/gnu/h-x86_64-mingw32/bin/../lib/gcc/nios2-elf/4.7.3/../../../../../H-x86_64-mingw32/nios2-elf/lib/mno-hw-mul\libc.a(lib_a-wsetup.o)
 .bss           0x00000000000987bc        0x0 c:/altera/14.0/nios2eds/bin/gnu/h-x86_64-mingw32/bin/../lib/gcc/nios2-elf/4.7.3/../../../../../H-x86_64-mingw32/nios2-elf/lib/mno-hw-mul\libc.a(lib_a-dtoa.o)
 .bss           0x00000000000987bc        0x0 c:/altera/14.0/nios2eds/bin/gnu/h-x86_64-mingw32/bin/../lib/gcc/nios2-elf/4.7.3/../../../../../H-x86_64-mingw32/nios2-elf/lib/mno-hw-mul\libc.a(lib_a-fflush.o)
 .bss           0x00000000000987bc        0x0 c:/altera/14.0/nios2eds/bin/gnu/h-x86_64-mingw32/bin/../lib/gcc/nios2-elf/4.7.3/../../../../../H-x86_64-mingw32/nios2-elf/lib/mno-hw-mul\libc.a(lib_a-findfp.o)
 .bss           0x00000000000987bc        0x0 c:/altera/14.0/nios2eds/bin/gnu/h-x86_64-mingw32/bin/../lib/gcc/nios2-elf/4.7.3/../../../../../H-x86_64-mingw32/nios2-elf/lib/mno-hw-mul\libc.a(lib_a-freer.o)
 .bss           0x00000000000987bc        0x0 c:/altera/14.0/nios2eds/bin/gnu/h-x86_64-mingw32/bin/../lib/gcc/nios2-elf/4.7.3/../../../../../H-x86_64-mingw32/nios2-elf/lib/mno-hw-mul\libc.a(lib_a-fvwrite.o)
 .bss           0x00000000000987bc        0x0 c:/altera/14.0/nios2eds/bin/gnu/h-x86_64-mingw32/bin/../lib/gcc/nios2-elf/4.7.3/../../../../../H-x86_64-mingw32/nios2-elf/lib/mno-hw-mul\libc.a(lib_a-fwalk.o)
 .bss           0x00000000000987bc        0x0 c:/altera/14.0/nios2eds/bin/gnu/h-x86_64-mingw32/bin/../lib/gcc/nios2-elf/4.7.3/../../../../../H-x86_64-mingw32/nios2-elf/lib/mno-hw-mul\libc.a(lib_a-impure.o)
 .bss           0x00000000000987bc        0x0 c:/altera/14.0/nios2eds/bin/gnu/h-x86_64-mingw32/bin/../lib/gcc/nios2-elf/4.7.3/../../../../../H-x86_64-mingw32/nios2-elf/lib/mno-hw-mul\libc.a(lib_a-locale.o)
 .bss           0x00000000000987bc        0x0 c:/altera/14.0/nios2eds/bin/gnu/h-x86_64-mingw32/bin/../lib/gcc/nios2-elf/4.7.3/../../../../../H-x86_64-mingw32/nios2-elf/lib/mno-hw-mul\libc.a(lib_a-makebuf.o)
 .bss           0x00000000000987bc       0x28 c:/altera/14.0/nios2eds/bin/gnu/h-x86_64-mingw32/bin/../lib/gcc/nios2-elf/4.7.3/../../../../../H-x86_64-mingw32/nios2-elf/lib/mno-hw-mul\libc.a(lib_a-mallocr.o)
                0x00000000000987bc                __malloc_current_mallinfo
 .bss           0x00000000000987e4        0x0 c:/altera/14.0/nios2eds/bin/gnu/h-x86_64-mingw32/bin/../lib/gcc/nios2-elf/4.7.3/../../../../../H-x86_64-mingw32/nios2-elf/lib/mno-hw-mul\libc.a(lib_a-memchr.o)
 .bss           0x00000000000987e4        0x0 c:/altera/14.0/nios2eds/bin/gnu/h-x86_64-mingw32/bin/../lib/gcc/nios2-elf/4.7.3/../../../../../H-x86_64-mingw32/nios2-elf/lib/mno-hw-mul\libc.a(lib_a-memcpy.o)
 .bss           0x00000000000987e4        0x0 c:/altera/14.0/nios2eds/bin/gnu/h-x86_64-mingw32/bin/../lib/gcc/nios2-elf/4.7.3/../../../../../H-x86_64-mingw32/nios2-elf/lib/mno-hw-mul\libc.a(lib_a-memmove.o)
 .bss           0x00000000000987e4        0x0 c:/altera/14.0/nios2eds/bin/gnu/h-x86_64-mingw32/bin/../lib/gcc/nios2-elf/4.7.3/../../../../../H-x86_64-mingw32/nios2-elf/lib/mno-hw-mul\libc.a(lib_a-memset.o)
 .bss           0x00000000000987e4        0x0 c:/altera/14.0/nios2eds/bin/gnu/h-x86_64-mingw32/bin/../lib/gcc/nios2-elf/4.7.3/../../../../../H-x86_64-mingw32/nios2-elf/lib/mno-hw-mul\libc.a(lib_a-mprec.o)
 .bss           0x00000000000987e4        0x0 c:/altera/14.0/nios2eds/bin/gnu/h-x86_64-mingw32/bin/../lib/gcc/nios2-elf/4.7.3/../../../../../H-x86_64-mingw32/nios2-elf/lib/mno-hw-mul\libc.a(lib_a-reallocr.o)
 .bss           0x00000000000987e4        0x0 c:/altera/14.0/nios2eds/bin/gnu/h-x86_64-mingw32/bin/../lib/gcc/nios2-elf/4.7.3/../../../../../H-x86_64-mingw32/nios2-elf/lib/mno-hw-mul\libc.a(lib_a-s_isinfd.o)
 .bss           0x00000000000987e4        0x0 c:/altera/14.0/nios2eds/bin/gnu/h-x86_64-mingw32/bin/../lib/gcc/nios2-elf/4.7.3/../../../../../H-x86_64-mingw32/nios2-elf/lib/mno-hw-mul\libc.a(lib_a-s_isnand.o)
 .bss           0x00000000000987e4        0x0 c:/altera/14.0/nios2eds/bin/gnu/h-x86_64-mingw32/bin/../lib/gcc/nios2-elf/4.7.3/../../../../../H-x86_64-mingw32/nios2-elf/lib/mno-hw-mul\libc.a(lib_a-sbrkr.o)
 .bss           0x00000000000987e4        0x0 c:/altera/14.0/nios2eds/bin/gnu/h-x86_64-mingw32/bin/../lib/gcc/nios2-elf/4.7.3/../../../../../H-x86_64-mingw32/nios2-elf/lib/mno-hw-mul\libc.a(lib_a-stdio.o)
 .bss           0x00000000000987e4        0x0 c:/altera/14.0/nios2eds/bin/gnu/h-x86_64-mingw32/bin/../lib/gcc/nios2-elf/4.7.3/../../../../../H-x86_64-mingw32/nios2-elf/lib/mno-hw-mul\libc.a(lib_a-strcmp.o)
 .bss           0x00000000000987e4        0x0 c:/altera/14.0/nios2eds/bin/gnu/h-x86_64-mingw32/bin/../lib/gcc/nios2-elf/4.7.3/../../../../../H-x86_64-mingw32/nios2-elf/lib/mno-hw-mul\libc.a(lib_a-writer.o)
 .bss           0x00000000000987e4        0x0 c:/altera/14.0/nios2eds/bin/gnu/h-x86_64-mingw32/bin/../lib/gcc/nios2-elf/4.7.3/../../../../../H-x86_64-mingw32/nios2-elf/lib/mno-hw-mul\libc.a(lib_a-callocr.o)
 .bss           0x00000000000987e4        0x0 c:/altera/14.0/nios2eds/bin/gnu/h-x86_64-mingw32/bin/../lib/gcc/nios2-elf/4.7.3/../../../../../H-x86_64-mingw32/nios2-elf/lib/mno-hw-mul\libc.a(lib_a-closer.o)
 .bss           0x00000000000987e4        0x0 c:/altera/14.0/nios2eds/bin/gnu/h-x86_64-mingw32/bin/../lib/gcc/nios2-elf/4.7.3/../../../../../H-x86_64-mingw32/nios2-elf/lib/mno-hw-mul\libc.a(lib_a-fclose.o)
 .bss           0x00000000000987e4        0x0 c:/altera/14.0/nios2eds/bin/gnu/h-x86_64-mingw32/bin/../lib/gcc/nios2-elf/4.7.3/../../../../../H-x86_64-mingw32/nios2-elf/lib/mno-hw-mul\libc.a(lib_a-fstatr.o)
 .bss           0x00000000000987e4        0x0 c:/altera/14.0/nios2eds/bin/gnu/h-x86_64-mingw32/bin/../lib/gcc/nios2-elf/4.7.3/../../../../../H-x86_64-mingw32/nios2-elf/lib/mno-hw-mul\libc.a(lib_a-int_errno.o)
 .bss           0x00000000000987e4        0x0 c:/altera/14.0/nios2eds/bin/gnu/h-x86_64-mingw32/bin/../lib/gcc/nios2-elf/4.7.3/../../../../../H-x86_64-mingw32/nios2-elf/lib/mno-hw-mul\libc.a(lib_a-isattyr.o)
 .bss           0x00000000000987e4        0x0 c:/altera/14.0/nios2eds/bin/gnu/h-x86_64-mingw32/bin/../lib/gcc/nios2-elf/4.7.3/../../../../../H-x86_64-mingw32/nios2-elf/lib/mno-hw-mul\libc.a(lib_a-lseekr.o)
 .bss           0x00000000000987e4        0x0 c:/altera/14.0/nios2eds/bin/gnu/h-x86_64-mingw32/bin/../lib/gcc/nios2-elf/4.7.3/../../../../../H-x86_64-mingw32/nios2-elf/lib/mno-hw-mul\libc.a(lib_a-readr.o)
 .bss           0x00000000000987e4        0x0 c:/altera/14.0/nios2eds/bin/gnu/h-x86_64-mingw32/bin/../lib/gcc/nios2-elf/4.7.3/mno-hw-mul\libgcc.a(_udivdi3.o)
 .bss           0x00000000000987e4        0x0 c:/altera/14.0/nios2eds/bin/gnu/h-x86_64-mingw32/bin/../lib/gcc/nios2-elf/4.7.3/mno-hw-mul\libgcc.a(_umoddi3.o)
 .bss           0x00000000000987e4        0x0 c:/altera/14.0/nios2eds/bin/gnu/h-x86_64-mingw32/bin/../lib/gcc/nios2-elf/4.7.3/mno-hw-mul\libgcc.a(_addsub_df.o)
 .bss           0x00000000000987e4        0x0 c:/altera/14.0/nios2eds/bin/gnu/h-x86_64-mingw32/bin/../lib/gcc/nios2-elf/4.7.3/mno-hw-mul\libgcc.a(_mul_df.o)
 .bss           0x00000000000987e4        0x0 c:/altera/14.0/nios2eds/bin/gnu/h-x86_64-mingw32/bin/../lib/gcc/nios2-elf/4.7.3/mno-hw-mul\libgcc.a(_div_df.o)
 .bss           0x00000000000987e4        0x0 c:/altera/14.0/nios2eds/bin/gnu/h-x86_64-mingw32/bin/../lib/gcc/nios2-elf/4.7.3/mno-hw-mul\libgcc.a(_eq_df.o)
 .bss           0x00000000000987e4        0x0 c:/altera/14.0/nios2eds/bin/gnu/h-x86_64-mingw32/bin/../lib/gcc/nios2-elf/4.7.3/mno-hw-mul\libgcc.a(_ne_df.o)
 .bss           0x00000000000987e4        0x0 c:/altera/14.0/nios2eds/bin/gnu/h-x86_64-mingw32/bin/../lib/gcc/nios2-elf/4.7.3/mno-hw-mul\libgcc.a(_gt_df.o)
 .bss           0x00000000000987e4        0x0 c:/altera/14.0/nios2eds/bin/gnu/h-x86_64-mingw32/bin/../lib/gcc/nios2-elf/4.7.3/mno-hw-mul\libgcc.a(_ge_df.o)
 .bss           0x00000000000987e4        0x0 c:/altera/14.0/nios2eds/bin/gnu/h-x86_64-mingw32/bin/../lib/gcc/nios2-elf/4.7.3/mno-hw-mul\libgcc.a(_lt_df.o)
 .bss           0x00000000000987e4        0x0 c:/altera/14.0/nios2eds/bin/gnu/h-x86_64-mingw32/bin/../lib/gcc/nios2-elf/4.7.3/mno-hw-mul\libgcc.a(_si_to_df.o)
 .bss           0x00000000000987e4        0x0 c:/altera/14.0/nios2eds/bin/gnu/h-x86_64-mingw32/bin/../lib/gcc/nios2-elf/4.7.3/mno-hw-mul\libgcc.a(_df_to_si.o)
 .bss           0x00000000000987e4        0x0 c:/altera/14.0/nios2eds/bin/gnu/h-x86_64-mingw32/bin/../lib/gcc/nios2-elf/4.7.3/mno-hw-mul\libgcc.a(_thenan_df.o)
 .bss           0x00000000000987e4        0x0 c:/altera/14.0/nios2eds/bin/gnu/h-x86_64-mingw32/bin/../lib/gcc/nios2-elf/4.7.3/mno-hw-mul\libgcc.a(_usi_to_df.o)
 .bss           0x00000000000987e4        0x0 c:/altera/14.0/nios2eds/bin/gnu/h-x86_64-mingw32/bin/../lib/gcc/nios2-elf/4.7.3/mno-hw-mul\libgcc.a(lib2-divmod.o)
 .bss           0x00000000000987e4        0x0 c:/altera/14.0/nios2eds/bin/gnu/h-x86_64-mingw32/bin/../lib/gcc/nios2-elf/4.7.3/mno-hw-mul\libgcc.a(lib2-mul.o)
 .bss           0x00000000000987e4        0x0 c:/altera/14.0/nios2eds/bin/gnu/h-x86_64-mingw32/bin/../lib/gcc/nios2-elf/4.7.3/mno-hw-mul\libgcc.a(_muldi3.o)
 .bss           0x00000000000987e4        0x0 c:/altera/14.0/nios2eds/bin/gnu/h-x86_64-mingw32/bin/../lib/gcc/nios2-elf/4.7.3/mno-hw-mul\libgcc.a(_clz.o)
 .bss           0x00000000000987e4        0x0 c:/altera/14.0/nios2eds/bin/gnu/h-x86_64-mingw32/bin/../lib/gcc/nios2-elf/4.7.3/mno-hw-mul\libgcc.a(_clzsi2.o)
 .bss           0x00000000000987e4        0x0 c:/altera/14.0/nios2eds/bin/gnu/h-x86_64-mingw32/bin/../lib/gcc/nios2-elf/4.7.3/mno-hw-mul\libgcc.a(_pack_df.o)
 .bss           0x00000000000987e4        0x0 c:/altera/14.0/nios2eds/bin/gnu/h-x86_64-mingw32/bin/../lib/gcc/nios2-elf/4.7.3/mno-hw-mul\libgcc.a(_unpack_df.o)
 .bss           0x00000000000987e4        0x0 c:/altera/14.0/nios2eds/bin/gnu/h-x86_64-mingw32/bin/../lib/gcc/nios2-elf/4.7.3/mno-hw-mul\libgcc.a(_fpcmp_parts_df.o)
 .bss           0x00000000000987e4        0x0 c:/altera/14.0/nios2eds/bin/gnu/h-x86_64-mingw32/bin/../lib/gcc/nios2-elf/4.7.3/mno-hw-mul\libgcc.a(_lshrdi3.o)
 .bss           0x00000000000987e4        0x0 c:/altera/14.0/nios2eds/bin/gnu/h-x86_64-mingw32/bin/../lib/gcc/nios2-elf/4.7.3/mno-hw-mul\libgcc.a(_ashldi3.o)
 .bss           0x00000000000987e4        0x0 ../ControlUnit_bsp/\libucosii_bsp.a(alt_close.o)
 .bss           0x00000000000987e4        0x0 ../ControlUnit_bsp/\libucosii_bsp.a(alt_dev.o)
 .bss           0x00000000000987e4        0x0 ../ControlUnit_bsp/\libucosii_bsp.a(alt_errno.o)
 .bss           0x00000000000987e4        0x0 ../ControlUnit_bsp/\libucosii_bsp.a(alt_fstat.o)
 .bss           0x00000000000987e4        0x0 ../ControlUnit_bsp/\libucosii_bsp.a(alt_iic.o)
 .bss           0x00000000000987e4        0x0 ../ControlUnit_bsp/\libucosii_bsp.a(alt_iic_isr_register.o)
 .bss           0x00000000000987e4        0x0 ../ControlUnit_bsp/\libucosii_bsp.a(alt_irq_entry.o)
 .bss           0x00000000000987e4        0x0 ../ControlUnit_bsp/\libucosii_bsp.a(alt_irq_handler.o)
 .bss           0x00000000000987e4        0x0 ../ControlUnit_bsp/\libucosii_bsp.a(alt_irq_vars.o)
 .bss           0x00000000000987e4        0x0 ../ControlUnit_bsp/\libucosii_bsp.a(alt_isatty.o)
 .bss           0x00000000000987e4        0x0 ../ControlUnit_bsp/\libucosii_bsp.a(alt_load.o)
 .bss           0x00000000000987e4        0x0 ../ControlUnit_bsp/\libucosii_bsp.a(alt_lseek.o)
 .bss           0x00000000000987e4        0x0 ../ControlUnit_bsp/\libucosii_bsp.a(alt_main.o)
 .bss           0x00000000000987e4        0x0 ../ControlUnit_bsp/\libucosii_bsp.a(alt_read.o)
 .bss           0x00000000000987e4        0x0 ../ControlUnit_bsp/\libucosii_bsp.a(alt_release_fd.o)
 .bss           0x00000000000987e4        0x0 ../ControlUnit_bsp/\libucosii_bsp.a(alt_sbrk.o)
 .bss           0x00000000000987e4        0x0 ../ControlUnit_bsp/\libucosii_bsp.a(alt_write.o)
 .bss           0x00000000000987e4        0x0 ../ControlUnit_bsp/\libucosii_bsp.a(alt_env_lock.o)
 .bss           0x00000000000987e4        0x0 ../ControlUnit_bsp/\libucosii_bsp.a(alt_malloc_lock.o)
 .bss           0x00000000000987e4        0x0 ../ControlUnit_bsp/\libucosii_bsp.a(os_core.o)
 .bss           0x00000000000987e4        0x0 ../ControlUnit_bsp/\libucosii_bsp.a(os_dbg.o)
 .bss           0x00000000000987e4        0x0 ../ControlUnit_bsp/\libucosii_bsp.a(os_flag.o)
 .bss           0x00000000000987e4        0x0 ../ControlUnit_bsp/\libucosii_bsp.a(os_mem.o)
 .bss           0x00000000000987e4        0x0 ../ControlUnit_bsp/\libucosii_bsp.a(os_q.o)
 .bss           0x00000000000987e4        0x0 ../ControlUnit_bsp/\libucosii_bsp.a(os_sem.o)
 .bss           0x00000000000987e4        0x0 ../ControlUnit_bsp/\libucosii_bsp.a(os_task.o)
 .bss           0x00000000000987e4        0x0 ../ControlUnit_bsp/\libucosii_bsp.a(os_time.o)
 .bss           0x00000000000987e4        0x0 ../ControlUnit_bsp/\libucosii_bsp.a(alt_sys_init.o)
 .bss           0x00000000000987e4        0x0 ../ControlUnit_bsp/\libucosii_bsp.a(altera_avalon_jtag_uart_fd.o)
 .bss           0x00000000000987e4        0x0 ../ControlUnit_bsp/\libucosii_bsp.a(altera_avalon_jtag_uart_init.o)
 .bss           0x00000000000987e4        0x0 ../ControlUnit_bsp/\libucosii_bsp.a(altera_avalon_jtag_uart_ioctl.o)
 .bss           0x00000000000987e4        0x0 ../ControlUnit_bsp/\libucosii_bsp.a(altera_avalon_jtag_uart_read.o)
 .bss           0x00000000000987e4        0x0 ../ControlUnit_bsp/\libucosii_bsp.a(altera_avalon_jtag_uart_write.o)
 .bss           0x00000000000987e4        0x0 ../ControlUnit_bsp/\libucosii_bsp.a(altera_avalon_timer_sc.o)
 .bss           0x00000000000987e4        0x0 ../ControlUnit_bsp/\libucosii_bsp.a(alt_alarm_start.o)
 .bss           0x00000000000987e4        0x0 ../ControlUnit_bsp/\libucosii_bsp.a(alt_dcache_flush_all.o)
 .bss           0x00000000000987e4        0x0 ../ControlUnit_bsp/\libucosii_bsp.a(alt_dev_llist_insert.o)
 .bss           0x00000000000987e4        0x0 ../ControlUnit_bsp/\libucosii_bsp.a(alt_do_ctors.o)
 .bss           0x00000000000987e4        0x0 ../ControlUnit_bsp/\libucosii_bsp.a(alt_do_dtors.o)
 .bss           0x00000000000987e4        0x0 ../ControlUnit_bsp/\libucosii_bsp.a(alt_exception_entry.o)
 .bss           0x00000000000987e4        0x0 ../ControlUnit_bsp/\libucosii_bsp.a(alt_icache_flush_all.o)
 .bss           0x00000000000987e4        0x0 ../ControlUnit_bsp/\libucosii_bsp.a(alt_io_redirect.o)
 .bss           0x00000000000987e4        0x0 ../ControlUnit_bsp/\libucosii_bsp.a(alt_open.o)
 .bss           0x00000000000987e4        0x0 ../ControlUnit_bsp/\libucosii_bsp.a(alt_tick.o)
 .bss           0x00000000000987e4        0x0 ../ControlUnit_bsp/\libucosii_bsp.a(altera_nios2_qsys_irq.o)
 .bss           0x00000000000987e4        0x0 ../ControlUnit_bsp/\libucosii_bsp.a(os_cpu_a.o)
 .bss           0x00000000000987e4        0x0 ../ControlUnit_bsp/\libucosii_bsp.a(os_cpu_c.o)
 .bss           0x00000000000987e4        0x0 ../ControlUnit_bsp/\libucosii_bsp.a(alt_find_dev.o)
 .bss           0x00000000000987e4        0x0 ../ControlUnit_bsp/\libucosii_bsp.a(alt_find_file.o)
 .bss           0x00000000000987e4        0x0 ../ControlUnit_bsp/\libucosii_bsp.a(alt_get_fd.o)
 .bss           0x00000000000987e4        0x0 c:/altera/14.0/nios2eds/bin/gnu/h-x86_64-mingw32/bin/../lib/gcc/nios2-elf/4.7.3/../../../../../H-x86_64-mingw32/nios2-elf/lib/mno-hw-mul\libc.a(lib_a-atexit.o)
 .bss           0x00000000000987e4        0x0 c:/altera/14.0/nios2eds/bin/gnu/h-x86_64-mingw32/bin/../lib/gcc/nios2-elf/4.7.3/../../../../../H-x86_64-mingw32/nios2-elf/lib/mno-hw-mul\libc.a(lib_a-exit.o)
 .bss           0x00000000000987e4        0x0 c:/altera/14.0/nios2eds/bin/gnu/h-x86_64-mingw32/bin/../lib/gcc/nios2-elf/4.7.3/../../../../../H-x86_64-mingw32/nios2-elf/lib/mno-hw-mul\libc.a(lib_a-memcmp.o)
 .bss           0x00000000000987e4        0x0 c:/altera/14.0/nios2eds/bin/gnu/h-x86_64-mingw32/bin/../lib/gcc/nios2-elf/4.7.3/../../../../../H-x86_64-mingw32/nios2-elf/lib/mno-hw-mul\libc.a(lib_a-__atexit.o)
 .bss           0x00000000000987e4        0x0 c:/altera/14.0/nios2eds/bin/gnu/h-x86_64-mingw32/bin/../lib/gcc/nios2-elf/4.7.3/../../../../../H-x86_64-mingw32/nios2-elf/lib/mno-hw-mul\libc.a(lib_a-__call_atexit.o)
 .bss           0x00000000000987e4        0x0 ../ControlUnit_bsp/\libucosii_bsp.a(alt_exit.o)
 *(COMMON)
 COMMON         0x00000000000987e4     0x4000 obj/default/main.o
                0x00000000000987e4                GreenLedtask_stk
                0x000000000009a7e4                RedLedtask_stk
 COMMON         0x000000000009c7e4      0x100 ../ControlUnit_bsp/\libucosii_bsp.a(alt_irq_handler.o)
                0x000000000009c7e4                alt_irq
 COMMON         0x000000000009c8e4     0x3224 ../ControlUnit_bsp/\libucosii_bsp.a(os_core.o)
                0x000000000009c8e4                OSFlagTbl
                0x000000000009cc54                OSMemTbl
                0x000000000009d884                OSTaskStatStk
                0x000000000009e084                OSQTbl
                0x000000000009e264                OSTaskIdleStk
                0x000000000009ea64                OSEventTbl
                0x000000000009f5a4                OSTCBTbl
                0x000000000009fab4                OSTCBPrioTbl
 COMMON         0x000000000009fb08      0x190 c:/altera/14.0/nios2eds/bin/gnu/h-x86_64-mingw32/bin/../lib/gcc/nios2-elf/4.7.3/../../../../../H-x86_64-mingw32/nios2-elf/lib/mno-hw-mul\libc.a(lib_a-atexit.o)
                0x000000000009fb08                _atexit0
                0x000000000009fc98                . = ALIGN (0x4)
                0x000000000009fc98                __bss_end = ABSOLUTE (.)

.SRAM_CVGX      0x000000000009fc98        0x0
                0x000000000009fc98                PROVIDE (_alt_partition_SRAM_CVGX_start, ABSOLUTE (.))
 *(.SRAM_CVGX .SRAM_CVGX. SRAM_CVGX.*)
                0x000000000009fc98                . = ALIGN (0x4)
                0x000000000009fc98                PROVIDE (_alt_partition_SRAM_CVGX_end, ABSOLUTE (.))
                0x000000000009fc98                _end = ABSOLUTE (.)
                0x000000000009fc98                end = ABSOLUTE (.)
                0x000000000009fc98                __alt_stack_base = ABSOLUTE (.)
                0x000000000009fc98                PROVIDE (_alt_partition_SRAM_CVGX_load_addr, LOADADDR (.SRAM_CVGX))

.stab
 *(.stab)

.stabstr
 *(.stabstr)

.stab.excl
 *(.stab.excl)

.stab.exclstr
 *(.stab.exclstr)

.stab.index
 *(.stab.index)

.stab.indexstr
 *(.stab.indexstr)

.comment        0x0000000000000000       0x23
 *(.comment)
 .comment       0x0000000000000000       0x23 obj/default/main.o
                                         0x24 (size before relaxing)
 .comment       0x0000000000000000       0x24 obj/default/switchesIRQhandler.o
 .comment       0x0000000000000000       0x24 c:/altera/14.0/nios2eds/bin/gnu/h-x86_64-mingw32/bin/../lib/gcc/nios2-elf/4.7.3/../../../../../H-x86_64-mingw32/nios2-elf/lib/mno-hw-mul\libc.a(lib_a-printf.o)
 .comment       0x0000000000000000       0x24 c:/altera/14.0/nios2eds/bin/gnu/h-x86_64-mingw32/bin/../lib/gcc/nios2-elf/4.7.3/../../../../../H-x86_64-mingw32/nios2-elf/lib/mno-hw-mul\libc.a(lib_a-puts.o)
 .comment       0x0000000000000000       0x24 c:/altera/14.0/nios2eds/bin/gnu/h-x86_64-mingw32/bin/../lib/gcc/nios2-elf/4.7.3/../../../../../H-x86_64-mingw32/nios2-elf/lib/mno-hw-mul\libc.a(lib_a-strlen.o)
 .comment       0x0000000000000000       0x24 c:/altera/14.0/nios2eds/bin/gnu/h-x86_64-mingw32/bin/../lib/gcc/nios2-elf/4.7.3/../../../../../H-x86_64-mingw32/nios2-elf/lib/mno-hw-mul\libc.a(lib_a-vfprintf.o)
 .comment       0x0000000000000000       0x24 c:/altera/14.0/nios2eds/bin/gnu/h-x86_64-mingw32/bin/../lib/gcc/nios2-elf/4.7.3/../../../../../H-x86_64-mingw32/nios2-elf/lib/mno-hw-mul\libc.a(lib_a-wsetup.o)
 .comment       0x0000000000000000       0x24 c:/altera/14.0/nios2eds/bin/gnu/h-x86_64-mingw32/bin/../lib/gcc/nios2-elf/4.7.3/../../../../../H-x86_64-mingw32/nios2-elf/lib/mno-hw-mul\libc.a(lib_a-dtoa.o)
 .comment       0x0000000000000000       0x24 c:/altera/14.0/nios2eds/bin/gnu/h-x86_64-mingw32/bin/../lib/gcc/nios2-elf/4.7.3/../../../../../H-x86_64-mingw32/nios2-elf/lib/mno-hw-mul\libc.a(lib_a-fflush.o)
 .comment       0x0000000000000000       0x24 c:/altera/14.0/nios2eds/bin/gnu/h-x86_64-mingw32/bin/../lib/gcc/nios2-elf/4.7.3/../../../../../H-x86_64-mingw32/nios2-elf/lib/mno-hw-mul\libc.a(lib_a-findfp.o)
 .comment       0x0000000000000000       0x24 c:/altera/14.0/nios2eds/bin/gnu/h-x86_64-mingw32/bin/../lib/gcc/nios2-elf/4.7.3/../../../../../H-x86_64-mingw32/nios2-elf/lib/mno-hw-mul\libc.a(lib_a-freer.o)
 .comment       0x0000000000000000       0x24 c:/altera/14.0/nios2eds/bin/gnu/h-x86_64-mingw32/bin/../lib/gcc/nios2-elf/4.7.3/../../../../../H-x86_64-mingw32/nios2-elf/lib/mno-hw-mul\libc.a(lib_a-fvwrite.o)
 .comment       0x0000000000000000       0x24 c:/altera/14.0/nios2eds/bin/gnu/h-x86_64-mingw32/bin/../lib/gcc/nios2-elf/4.7.3/../../../../../H-x86_64-mingw32/nios2-elf/lib/mno-hw-mul\libc.a(lib_a-fwalk.o)
 .comment       0x0000000000000000       0x24 c:/altera/14.0/nios2eds/bin/gnu/h-x86_64-mingw32/bin/../lib/gcc/nios2-elf/4.7.3/../../../../../H-x86_64-mingw32/nios2-elf/lib/mno-hw-mul\libc.a(lib_a-impure.o)
 .comment       0x0000000000000000       0x24 c:/altera/14.0/nios2eds/bin/gnu/h-x86_64-mingw32/bin/../lib/gcc/nios2-elf/4.7.3/../../../../../H-x86_64-mingw32/nios2-elf/lib/mno-hw-mul\libc.a(lib_a-locale.o)
 .comment       0x0000000000000000       0x24 c:/altera/14.0/nios2eds/bin/gnu/h-x86_64-mingw32/bin/../lib/gcc/nios2-elf/4.7.3/../../../../../H-x86_64-mingw32/nios2-elf/lib/mno-hw-mul\libc.a(lib_a-makebuf.o)
 .comment       0x0000000000000000       0x24 c:/altera/14.0/nios2eds/bin/gnu/h-x86_64-mingw32/bin/../lib/gcc/nios2-elf/4.7.3/../../../../../H-x86_64-mingw32/nios2-elf/lib/mno-hw-mul\libc.a(lib_a-mallocr.o)
 .comment       0x0000000000000000       0x24 c:/altera/14.0/nios2eds/bin/gnu/h-x86_64-mingw32/bin/../lib/gcc/nios2-elf/4.7.3/../../../../../H-x86_64-mingw32/nios2-elf/lib/mno-hw-mul\libc.a(lib_a-memchr.o)
 .comment       0x0000000000000000       0x24 c:/altera/14.0/nios2eds/bin/gnu/h-x86_64-mingw32/bin/../lib/gcc/nios2-elf/4.7.3/../../../../../H-x86_64-mingw32/nios2-elf/lib/mno-hw-mul\libc.a(lib_a-memcpy.o)
 .comment       0x0000000000000000       0x24 c:/altera/14.0/nios2eds/bin/gnu/h-x86_64-mingw32/bin/../lib/gcc/nios2-elf/4.7.3/../../../../../H-x86_64-mingw32/nios2-elf/lib/mno-hw-mul\libc.a(lib_a-memmove.o)
 .comment       0x0000000000000000       0x24 c:/altera/14.0/nios2eds/bin/gnu/h-x86_64-mingw32/bin/../lib/gcc/nios2-elf/4.7.3/../../../../../H-x86_64-mingw32/nios2-elf/lib/mno-hw-mul\libc.a(lib_a-memset.o)
 .comment       0x0000000000000000       0x24 c:/altera/14.0/nios2eds/bin/gnu/h-x86_64-mingw32/bin/../lib/gcc/nios2-elf/4.7.3/../../../../../H-x86_64-mingw32/nios2-elf/lib/mno-hw-mul\libc.a(lib_a-mprec.o)
 .comment       0x0000000000000000       0x24 c:/altera/14.0/nios2eds/bin/gnu/h-x86_64-mingw32/bin/../lib/gcc/nios2-elf/4.7.3/../../../../../H-x86_64-mingw32/nios2-elf/lib/mno-hw-mul\libc.a(lib_a-reallocr.o)
 .comment       0x0000000000000000       0x24 c:/altera/14.0/nios2eds/bin/gnu/h-x86_64-mingw32/bin/../lib/gcc/nios2-elf/4.7.3/../../../../../H-x86_64-mingw32/nios2-elf/lib/mno-hw-mul\libc.a(lib_a-s_isinfd.o)
 .comment       0x0000000000000000       0x24 c:/altera/14.0/nios2eds/bin/gnu/h-x86_64-mingw32/bin/../lib/gcc/nios2-elf/4.7.3/../../../../../H-x86_64-mingw32/nios2-elf/lib/mno-hw-mul\libc.a(lib_a-s_isnand.o)
 .comment       0x0000000000000000       0x24 c:/altera/14.0/nios2eds/bin/gnu/h-x86_64-mingw32/bin/../lib/gcc/nios2-elf/4.7.3/../../../../../H-x86_64-mingw32/nios2-elf/lib/mno-hw-mul\libc.a(lib_a-sbrkr.o)
 .comment       0x0000000000000000       0x24 c:/altera/14.0/nios2eds/bin/gnu/h-x86_64-mingw32/bin/../lib/gcc/nios2-elf/4.7.3/../../../../../H-x86_64-mingw32/nios2-elf/lib/mno-hw-mul\libc.a(lib_a-stdio.o)
 .comment       0x0000000000000000       0x24 c:/altera/14.0/nios2eds/bin/gnu/h-x86_64-mingw32/bin/../lib/gcc/nios2-elf/4.7.3/../../../../../H-x86_64-mingw32/nios2-elf/lib/mno-hw-mul\libc.a(lib_a-strcmp.o)
 .comment       0x0000000000000000       0x24 c:/altera/14.0/nios2eds/bin/gnu/h-x86_64-mingw32/bin/../lib/gcc/nios2-elf/4.7.3/../../../../../H-x86_64-mingw32/nios2-elf/lib/mno-hw-mul\libc.a(lib_a-writer.o)
 .comment       0x0000000000000000       0x24 c:/altera/14.0/nios2eds/bin/gnu/h-x86_64-mingw32/bin/../lib/gcc/nios2-elf/4.7.3/../../../../../H-x86_64-mingw32/nios2-elf/lib/mno-hw-mul\libc.a(lib_a-callocr.o)
 .comment       0x0000000000000000       0x24 c:/altera/14.0/nios2eds/bin/gnu/h-x86_64-mingw32/bin/../lib/gcc/nios2-elf/4.7.3/../../../../../H-x86_64-mingw32/nios2-elf/lib/mno-hw-mul\libc.a(lib_a-closer.o)
 .comment       0x0000000000000000       0x24 c:/altera/14.0/nios2eds/bin/gnu/h-x86_64-mingw32/bin/../lib/gcc/nios2-elf/4.7.3/../../../../../H-x86_64-mingw32/nios2-elf/lib/mno-hw-mul\libc.a(lib_a-fclose.o)
 .comment       0x0000000000000000       0x24 c:/altera/14.0/nios2eds/bin/gnu/h-x86_64-mingw32/bin/../lib/gcc/nios2-elf/4.7.3/../../../../../H-x86_64-mingw32/nios2-elf/lib/mno-hw-mul\libc.a(lib_a-fstatr.o)
 .comment       0x0000000000000000       0x24 c:/altera/14.0/nios2eds/bin/gnu/h-x86_64-mingw32/bin/../lib/gcc/nios2-elf/4.7.3/../../../../../H-x86_64-mingw32/nios2-elf/lib/mno-hw-mul\libc.a(lib_a-int_errno.o)
 .comment       0x0000000000000000       0x24 c:/altera/14.0/nios2eds/bin/gnu/h-x86_64-mingw32/bin/../lib/gcc/nios2-elf/4.7.3/../../../../../H-x86_64-mingw32/nios2-elf/lib/mno-hw-mul\libc.a(lib_a-isattyr.o)
 .comment       0x0000000000000000       0x24 c:/altera/14.0/nios2eds/bin/gnu/h-x86_64-mingw32/bin/../lib/gcc/nios2-elf/4.7.3/../../../../../H-x86_64-mingw32/nios2-elf/lib/mno-hw-mul\libc.a(lib_a-lseekr.o)
 .comment       0x0000000000000000       0x24 c:/altera/14.0/nios2eds/bin/gnu/h-x86_64-mingw32/bin/../lib/gcc/nios2-elf/4.7.3/../../../../../H-x86_64-mingw32/nios2-elf/lib/mno-hw-mul\libc.a(lib_a-readr.o)
 .comment       0x0000000000000000       0x24 c:/altera/14.0/nios2eds/bin/gnu/h-x86_64-mingw32/bin/../lib/gcc/nios2-elf/4.7.3/mno-hw-mul\libgcc.a(_udivdi3.o)
 .comment       0x0000000000000000       0x24 c:/altera/14.0/nios2eds/bin/gnu/h-x86_64-mingw32/bin/../lib/gcc/nios2-elf/4.7.3/mno-hw-mul\libgcc.a(_umoddi3.o)
 .comment       0x0000000000000000       0x24 c:/altera/14.0/nios2eds/bin/gnu/h-x86_64-mingw32/bin/../lib/gcc/nios2-elf/4.7.3/mno-hw-mul\libgcc.a(_addsub_df.o)
 .comment       0x0000000000000000       0x24 c:/altera/14.0/nios2eds/bin/gnu/h-x86_64-mingw32/bin/../lib/gcc/nios2-elf/4.7.3/mno-hw-mul\libgcc.a(_mul_df.o)
 .comment       0x0000000000000000       0x24 c:/altera/14.0/nios2eds/bin/gnu/h-x86_64-mingw32/bin/../lib/gcc/nios2-elf/4.7.3/mno-hw-mul\libgcc.a(_div_df.o)
 .comment       0x0000000000000000       0x24 c:/altera/14.0/nios2eds/bin/gnu/h-x86_64-mingw32/bin/../lib/gcc/nios2-elf/4.7.3/mno-hw-mul\libgcc.a(_eq_df.o)
 .comment       0x0000000000000000       0x24 c:/altera/14.0/nios2eds/bin/gnu/h-x86_64-mingw32/bin/../lib/gcc/nios2-elf/4.7.3/mno-hw-mul\libgcc.a(_ne_df.o)
 .comment       0x0000000000000000       0x24 c:/altera/14.0/nios2eds/bin/gnu/h-x86_64-mingw32/bin/../lib/gcc/nios2-elf/4.7.3/mno-hw-mul\libgcc.a(_gt_df.o)
 .comment       0x0000000000000000       0x24 c:/altera/14.0/nios2eds/bin/gnu/h-x86_64-mingw32/bin/../lib/gcc/nios2-elf/4.7.3/mno-hw-mul\libgcc.a(_ge_df.o)
 .comment       0x0000000000000000       0x24 c:/altera/14.0/nios2eds/bin/gnu/h-x86_64-mingw32/bin/../lib/gcc/nios2-elf/4.7.3/mno-hw-mul\libgcc.a(_lt_df.o)
 .comment       0x0000000000000000       0x24 c:/altera/14.0/nios2eds/bin/gnu/h-x86_64-mingw32/bin/../lib/gcc/nios2-elf/4.7.3/mno-hw-mul\libgcc.a(_si_to_df.o)
 .comment       0x0000000000000000       0x24 c:/altera/14.0/nios2eds/bin/gnu/h-x86_64-mingw32/bin/../lib/gcc/nios2-elf/4.7.3/mno-hw-mul\libgcc.a(_df_to_si.o)
 .comment       0x0000000000000000       0x24 c:/altera/14.0/nios2eds/bin/gnu/h-x86_64-mingw32/bin/../lib/gcc/nios2-elf/4.7.3/mno-hw-mul\libgcc.a(_thenan_df.o)
 .comment       0x0000000000000000       0x24 c:/altera/14.0/nios2eds/bin/gnu/h-x86_64-mingw32/bin/../lib/gcc/nios2-elf/4.7.3/mno-hw-mul\libgcc.a(_usi_to_df.o)
 .comment       0x0000000000000000       0x24 c:/altera/14.0/nios2eds/bin/gnu/h-x86_64-mingw32/bin/../lib/gcc/nios2-elf/4.7.3/mno-hw-mul\libgcc.a(lib2-divmod.o)
 .comment       0x0000000000000000       0x24 c:/altera/14.0/nios2eds/bin/gnu/h-x86_64-mingw32/bin/../lib/gcc/nios2-elf/4.7.3/mno-hw-mul\libgcc.a(lib2-mul.o)
 .comment       0x0000000000000000       0x24 c:/altera/14.0/nios2eds/bin/gnu/h-x86_64-mingw32/bin/../lib/gcc/nios2-elf/4.7.3/mno-hw-mul\libgcc.a(_muldi3.o)
 .comment       0x0000000000000000       0x24 c:/altera/14.0/nios2eds/bin/gnu/h-x86_64-mingw32/bin/../lib/gcc/nios2-elf/4.7.3/mno-hw-mul\libgcc.a(_clz.o)
 .comment       0x0000000000000000       0x24 c:/altera/14.0/nios2eds/bin/gnu/h-x86_64-mingw32/bin/../lib/gcc/nios2-elf/4.7.3/mno-hw-mul\libgcc.a(_clzsi2.o)
 .comment       0x0000000000000000       0x24 c:/altera/14.0/nios2eds/bin/gnu/h-x86_64-mingw32/bin/../lib/gcc/nios2-elf/4.7.3/mno-hw-mul\libgcc.a(_pack_df.o)
 .comment       0x0000000000000000       0x24 c:/altera/14.0/nios2eds/bin/gnu/h-x86_64-mingw32/bin/../lib/gcc/nios2-elf/4.7.3/mno-hw-mul\libgcc.a(_unpack_df.o)
 .comment       0x0000000000000000       0x24 c:/altera/14.0/nios2eds/bin/gnu/h-x86_64-mingw32/bin/../lib/gcc/nios2-elf/4.7.3/mno-hw-mul\libgcc.a(_fpcmp_parts_df.o)
 .comment       0x0000000000000000       0x24 c:/altera/14.0/nios2eds/bin/gnu/h-x86_64-mingw32/bin/../lib/gcc/nios2-elf/4.7.3/mno-hw-mul\libgcc.a(_lshrdi3.o)
 .comment       0x0000000000000000       0x24 c:/altera/14.0/nios2eds/bin/gnu/h-x86_64-mingw32/bin/../lib/gcc/nios2-elf/4.7.3/mno-hw-mul\libgcc.a(_ashldi3.o)
 .comment       0x0000000000000000       0x24 ../ControlUnit_bsp/\libucosii_bsp.a(alt_close.o)
 .comment       0x0000000000000000       0x24 ../ControlUnit_bsp/\libucosii_bsp.a(alt_dev.o)
 .comment       0x0000000000000000       0x24 ../ControlUnit_bsp/\libucosii_bsp.a(alt_errno.o)
 .comment       0x0000000000000000       0x24 ../ControlUnit_bsp/\libucosii_bsp.a(alt_fstat.o)
 .comment       0x0000000000000000       0x24 ../ControlUnit_bsp/\libucosii_bsp.a(alt_iic.o)
 .comment       0x0000000000000000       0x24 ../ControlUnit_bsp/\libucosii_bsp.a(alt_iic_isr_register.o)
 .comment       0x0000000000000000       0x24 ../ControlUnit_bsp/\libucosii_bsp.a(alt_irq_handler.o)
 .comment       0x0000000000000000       0x24 ../ControlUnit_bsp/\libucosii_bsp.a(alt_irq_vars.o)
 .comment       0x0000000000000000       0x24 ../ControlUnit_bsp/\libucosii_bsp.a(alt_isatty.o)
 .comment       0x0000000000000000       0x24 ../ControlUnit_bsp/\libucosii_bsp.a(alt_load.o)
 .comment       0x0000000000000000       0x24 ../ControlUnit_bsp/\libucosii_bsp.a(alt_lseek.o)
 .comment       0x0000000000000000       0x24 ../ControlUnit_bsp/\libucosii_bsp.a(alt_main.o)
 .comment       0x0000000000000000       0x24 ../ControlUnit_bsp/\libucosii_bsp.a(alt_read.o)
 .comment       0x0000000000000000       0x24 ../ControlUnit_bsp/\libucosii_bsp.a(alt_release_fd.o)
 .comment       0x0000000000000000       0x24 ../ControlUnit_bsp/\libucosii_bsp.a(alt_sbrk.o)
 .comment       0x0000000000000000       0x24 ../ControlUnit_bsp/\libucosii_bsp.a(alt_write.o)
 .comment       0x0000000000000000       0x24 ../ControlUnit_bsp/\libucosii_bsp.a(alt_env_lock.o)
 .comment       0x0000000000000000       0x24 ../ControlUnit_bsp/\libucosii_bsp.a(alt_malloc_lock.o)
 .comment       0x0000000000000000       0x24 ../ControlUnit_bsp/\libucosii_bsp.a(os_core.o)
 .comment       0x0000000000000000       0x24 ../ControlUnit_bsp/\libucosii_bsp.a(os_dbg.o)
 .comment       0x0000000000000000       0x24 ../ControlUnit_bsp/\libucosii_bsp.a(os_flag.o)
 .comment       0x0000000000000000       0x24 ../ControlUnit_bsp/\libucosii_bsp.a(os_mem.o)
 .comment       0x0000000000000000       0x24 ../ControlUnit_bsp/\libucosii_bsp.a(os_q.o)
 .comment       0x0000000000000000       0x24 ../ControlUnit_bsp/\libucosii_bsp.a(os_sem.o)
 .comment       0x0000000000000000       0x24 ../ControlUnit_bsp/\libucosii_bsp.a(os_task.o)
 .comment       0x0000000000000000       0x24 ../ControlUnit_bsp/\libucosii_bsp.a(os_time.o)
 .comment       0x0000000000000000       0x24 ../ControlUnit_bsp/\libucosii_bsp.a(alt_sys_init.o)
 .comment       0x0000000000000000       0x24 ../ControlUnit_bsp/\libucosii_bsp.a(altera_avalon_jtag_uart_fd.o)
 .comment       0x0000000000000000       0x24 ../ControlUnit_bsp/\libucosii_bsp.a(altera_avalon_jtag_uart_init.o)
 .comment       0x0000000000000000       0x24 ../ControlUnit_bsp/\libucosii_bsp.a(altera_avalon_jtag_uart_ioctl.o)
 .comment       0x0000000000000000       0x24 ../ControlUnit_bsp/\libucosii_bsp.a(altera_avalon_jtag_uart_read.o)
 .comment       0x0000000000000000       0x24 ../ControlUnit_bsp/\libucosii_bsp.a(altera_avalon_jtag_uart_write.o)
 .comment       0x0000000000000000       0x24 ../ControlUnit_bsp/\libucosii_bsp.a(altera_avalon_timer_sc.o)
 .comment       0x0000000000000000       0x24 ../ControlUnit_bsp/\libucosii_bsp.a(alt_alarm_start.o)
 .comment       0x0000000000000000       0x24 ../ControlUnit_bsp/\libucosii_bsp.a(alt_dcache_flush_all.o)
 .comment       0x0000000000000000       0x24 ../ControlUnit_bsp/\libucosii_bsp.a(alt_dev_llist_insert.o)
 .comment       0x0000000000000000       0x24 ../ControlUnit_bsp/\libucosii_bsp.a(alt_do_ctors.o)
 .comment       0x0000000000000000       0x24 ../ControlUnit_bsp/\libucosii_bsp.a(alt_do_dtors.o)
 .comment       0x0000000000000000       0x24 ../ControlUnit_bsp/\libucosii_bsp.a(alt_icache_flush_all.o)
 .comment       0x0000000000000000       0x24 ../ControlUnit_bsp/\libucosii_bsp.a(alt_io_redirect.o)
 .comment       0x0000000000000000       0x24 ../ControlUnit_bsp/\libucosii_bsp.a(alt_open.o)
 .comment       0x0000000000000000       0x24 ../ControlUnit_bsp/\libucosii_bsp.a(alt_tick.o)
 .comment       0x0000000000000000       0x24 ../ControlUnit_bsp/\libucosii_bsp.a(altera_nios2_qsys_irq.o)
 .comment       0x0000000000000000       0x24 ../ControlUnit_bsp/\libucosii_bsp.a(os_cpu_c.o)
 .comment       0x0000000000000000       0x24 ../ControlUnit_bsp/\libucosii_bsp.a(alt_find_dev.o)
 .comment       0x0000000000000000       0x24 ../ControlUnit_bsp/\libucosii_bsp.a(alt_find_file.o)
 .comment       0x0000000000000000       0x24 ../ControlUnit_bsp/\libucosii_bsp.a(alt_get_fd.o)
 .comment       0x0000000000000000       0x24 c:/altera/14.0/nios2eds/bin/gnu/h-x86_64-mingw32/bin/../lib/gcc/nios2-elf/4.7.3/../../../../../H-x86_64-mingw32/nios2-elf/lib/mno-hw-mul\libc.a(lib_a-atexit.o)
 .comment       0x0000000000000000       0x24 c:/altera/14.0/nios2eds/bin/gnu/h-x86_64-mingw32/bin/../lib/gcc/nios2-elf/4.7.3/../../../../../H-x86_64-mingw32/nios2-elf/lib/mno-hw-mul\libc.a(lib_a-exit.o)
 .comment       0x0000000000000000       0x24 c:/altera/14.0/nios2eds/bin/gnu/h-x86_64-mingw32/bin/../lib/gcc/nios2-elf/4.7.3/../../../../../H-x86_64-mingw32/nios2-elf/lib/mno-hw-mul\libc.a(lib_a-memcmp.o)
 .comment       0x0000000000000000       0x24 c:/altera/14.0/nios2eds/bin/gnu/h-x86_64-mingw32/bin/../lib/gcc/nios2-elf/4.7.3/../../../../../H-x86_64-mingw32/nios2-elf/lib/mno-hw-mul\libc.a(lib_a-__atexit.o)
 .comment       0x0000000000000000       0x24 c:/altera/14.0/nios2eds/bin/gnu/h-x86_64-mingw32/bin/../lib/gcc/nios2-elf/4.7.3/../../../../../H-x86_64-mingw32/nios2-elf/lib/mno-hw-mul\libc.a(lib_a-__call_atexit.o)
 .comment       0x0000000000000000       0x24 ../ControlUnit_bsp/\libucosii_bsp.a(alt_exit.o)

.debug
 *(.debug)

.line
 *(.line)

.debug_srcinfo
 *(.debug_srcinfo)

.debug_sfnames
 *(.debug_sfnames)

.debug_aranges  0x0000000000000000      0xec0
 *(.debug_aranges)
 .debug_aranges
                0x0000000000000000       0x28 ../ControlUnit_bsp//obj/HAL/src/crt0.o
 .debug_aranges
                0x0000000000000028       0x20 obj/default/main.o
 .debug_aranges
                0x0000000000000048       0x20 obj/default/switchesIRQhandler.o
 .debug_aranges
                0x0000000000000068       0x20 c:/altera/14.0/nios2eds/bin/gnu/h-x86_64-mingw32/bin/../lib/gcc/nios2-elf/4.7.3/../../../../../H-x86_64-mingw32/nios2-elf/lib/mno-hw-mul\libc.a(lib_a-printf.o)
 .debug_aranges
                0x0000000000000088       0x20 c:/altera/14.0/nios2eds/bin/gnu/h-x86_64-mingw32/bin/../lib/gcc/nios2-elf/4.7.3/../../../../../H-x86_64-mingw32/nios2-elf/lib/mno-hw-mul\libc.a(lib_a-puts.o)
 .debug_aranges
                0x00000000000000a8       0x20 c:/altera/14.0/nios2eds/bin/gnu/h-x86_64-mingw32/bin/../lib/gcc/nios2-elf/4.7.3/../../../../../H-x86_64-mingw32/nios2-elf/lib/mno-hw-mul\libc.a(lib_a-strlen.o)
 .debug_aranges
                0x00000000000000c8       0x20 c:/altera/14.0/nios2eds/bin/gnu/h-x86_64-mingw32/bin/../lib/gcc/nios2-elf/4.7.3/../../../../../H-x86_64-mingw32/nios2-elf/lib/mno-hw-mul\libc.a(lib_a-vfprintf.o)
 .debug_aranges
                0x00000000000000e8       0x20 c:/altera/14.0/nios2eds/bin/gnu/h-x86_64-mingw32/bin/../lib/gcc/nios2-elf/4.7.3/../../../../../H-x86_64-mingw32/nios2-elf/lib/mno-hw-mul\libc.a(lib_a-wsetup.o)
 .debug_aranges
                0x0000000000000108       0x20 c:/altera/14.0/nios2eds/bin/gnu/h-x86_64-mingw32/bin/../lib/gcc/nios2-elf/4.7.3/../../../../../H-x86_64-mingw32/nios2-elf/lib/mno-hw-mul\libc.a(lib_a-dtoa.o)
 .debug_aranges
                0x0000000000000128       0x20 c:/altera/14.0/nios2eds/bin/gnu/h-x86_64-mingw32/bin/../lib/gcc/nios2-elf/4.7.3/../../../../../H-x86_64-mingw32/nios2-elf/lib/mno-hw-mul\libc.a(lib_a-fflush.o)
 .debug_aranges
                0x0000000000000148       0x20 c:/altera/14.0/nios2eds/bin/gnu/h-x86_64-mingw32/bin/../lib/gcc/nios2-elf/4.7.3/../../../../../H-x86_64-mingw32/nios2-elf/lib/mno-hw-mul\libc.a(lib_a-findfp.o)
 .debug_aranges
                0x0000000000000168       0x20 c:/altera/14.0/nios2eds/bin/gnu/h-x86_64-mingw32/bin/../lib/gcc/nios2-elf/4.7.3/../../../../../H-x86_64-mingw32/nios2-elf/lib/mno-hw-mul\libc.a(lib_a-freer.o)
 .debug_aranges
                0x0000000000000188       0x20 c:/altera/14.0/nios2eds/bin/gnu/h-x86_64-mingw32/bin/../lib/gcc/nios2-elf/4.7.3/../../../../../H-x86_64-mingw32/nios2-elf/lib/mno-hw-mul\libc.a(lib_a-fvwrite.o)
 .debug_aranges
                0x00000000000001a8       0x20 c:/altera/14.0/nios2eds/bin/gnu/h-x86_64-mingw32/bin/../lib/gcc/nios2-elf/4.7.3/../../../../../H-x86_64-mingw32/nios2-elf/lib/mno-hw-mul\libc.a(lib_a-fwalk.o)
 .debug_aranges
                0x00000000000001c8       0x18 c:/altera/14.0/nios2eds/bin/gnu/h-x86_64-mingw32/bin/../lib/gcc/nios2-elf/4.7.3/../../../../../H-x86_64-mingw32/nios2-elf/lib/mno-hw-mul\libc.a(lib_a-impure.o)
 .debug_aranges
                0x00000000000001e0       0x20 c:/altera/14.0/nios2eds/bin/gnu/h-x86_64-mingw32/bin/../lib/gcc/nios2-elf/4.7.3/../../../../../H-x86_64-mingw32/nios2-elf/lib/mno-hw-mul\libc.a(lib_a-locale.o)
 .debug_aranges
                0x0000000000000200       0x20 c:/altera/14.0/nios2eds/bin/gnu/h-x86_64-mingw32/bin/../lib/gcc/nios2-elf/4.7.3/../../../../../H-x86_64-mingw32/nios2-elf/lib/mno-hw-mul\libc.a(lib_a-makebuf.o)
 .debug_aranges
                0x0000000000000220       0x20 c:/altera/14.0/nios2eds/bin/gnu/h-x86_64-mingw32/bin/../lib/gcc/nios2-elf/4.7.3/../../../../../H-x86_64-mingw32/nios2-elf/lib/mno-hw-mul\libc.a(lib_a-mallocr.o)
 .debug_aranges
                0x0000000000000240       0x20 c:/altera/14.0/nios2eds/bin/gnu/h-x86_64-mingw32/bin/../lib/gcc/nios2-elf/4.7.3/../../../../../H-x86_64-mingw32/nios2-elf/lib/mno-hw-mul\libc.a(lib_a-memchr.o)
 .debug_aranges
                0x0000000000000260       0x20 c:/altera/14.0/nios2eds/bin/gnu/h-x86_64-mingw32/bin/../lib/gcc/nios2-elf/4.7.3/../../../../../H-x86_64-mingw32/nios2-elf/lib/mno-hw-mul\libc.a(lib_a-memcpy.o)
 .debug_aranges
                0x0000000000000280       0x20 c:/altera/14.0/nios2eds/bin/gnu/h-x86_64-mingw32/bin/../lib/gcc/nios2-elf/4.7.3/../../../../../H-x86_64-mingw32/nios2-elf/lib/mno-hw-mul\libc.a(lib_a-memmove.o)
 .debug_aranges
                0x00000000000002a0       0x20 c:/altera/14.0/nios2eds/bin/gnu/h-x86_64-mingw32/bin/../lib/gcc/nios2-elf/4.7.3/../../../../../H-x86_64-mingw32/nios2-elf/lib/mno-hw-mul\libc.a(lib_a-memset.o)
 .debug_aranges
                0x00000000000002c0       0x20 c:/altera/14.0/nios2eds/bin/gnu/h-x86_64-mingw32/bin/../lib/gcc/nios2-elf/4.7.3/../../../../../H-x86_64-mingw32/nios2-elf/lib/mno-hw-mul\libc.a(lib_a-mprec.o)
 .debug_aranges
                0x00000000000002e0       0x20 c:/altera/14.0/nios2eds/bin/gnu/h-x86_64-mingw32/bin/../lib/gcc/nios2-elf/4.7.3/../../../../../H-x86_64-mingw32/nios2-elf/lib/mno-hw-mul\libc.a(lib_a-reallocr.o)
 .debug_aranges
                0x0000000000000300       0x20 c:/altera/14.0/nios2eds/bin/gnu/h-x86_64-mingw32/bin/../lib/gcc/nios2-elf/4.7.3/../../../../../H-x86_64-mingw32/nios2-elf/lib/mno-hw-mul\libc.a(lib_a-s_isinfd.o)
 .debug_aranges
                0x0000000000000320       0x20 c:/altera/14.0/nios2eds/bin/gnu/h-x86_64-mingw32/bin/../lib/gcc/nios2-elf/4.7.3/../../../../../H-x86_64-mingw32/nios2-elf/lib/mno-hw-mul\libc.a(lib_a-s_isnand.o)
 .debug_aranges
                0x0000000000000340       0x20 c:/altera/14.0/nios2eds/bin/gnu/h-x86_64-mingw32/bin/../lib/gcc/nios2-elf/4.7.3/../../../../../H-x86_64-mingw32/nios2-elf/lib/mno-hw-mul\libc.a(lib_a-sbrkr.o)
 .debug_aranges
                0x0000000000000360       0x20 c:/altera/14.0/nios2eds/bin/gnu/h-x86_64-mingw32/bin/../lib/gcc/nios2-elf/4.7.3/../../../../../H-x86_64-mingw32/nios2-elf/lib/mno-hw-mul\libc.a(lib_a-stdio.o)
 .debug_aranges
                0x0000000000000380       0x20 c:/altera/14.0/nios2eds/bin/gnu/h-x86_64-mingw32/bin/../lib/gcc/nios2-elf/4.7.3/../../../../../H-x86_64-mingw32/nios2-elf/lib/mno-hw-mul\libc.a(lib_a-strcmp.o)
 .debug_aranges
                0x00000000000003a0       0x20 c:/altera/14.0/nios2eds/bin/gnu/h-x86_64-mingw32/bin/../lib/gcc/nios2-elf/4.7.3/../../../../../H-x86_64-mingw32/nios2-elf/lib/mno-hw-mul\libc.a(lib_a-writer.o)
 .debug_aranges
                0x00000000000003c0       0x20 c:/altera/14.0/nios2eds/bin/gnu/h-x86_64-mingw32/bin/../lib/gcc/nios2-elf/4.7.3/../../../../../H-x86_64-mingw32/nios2-elf/lib/mno-hw-mul\libc.a(lib_a-callocr.o)
 .debug_aranges
                0x00000000000003e0       0x20 c:/altera/14.0/nios2eds/bin/gnu/h-x86_64-mingw32/bin/../lib/gcc/nios2-elf/4.7.3/../../../../../H-x86_64-mingw32/nios2-elf/lib/mno-hw-mul\libc.a(lib_a-closer.o)
 .debug_aranges
                0x0000000000000400       0x20 c:/altera/14.0/nios2eds/bin/gnu/h-x86_64-mingw32/bin/../lib/gcc/nios2-elf/4.7.3/../../../../../H-x86_64-mingw32/nios2-elf/lib/mno-hw-mul\libc.a(lib_a-fclose.o)
 .debug_aranges
                0x0000000000000420       0x20 c:/altera/14.0/nios2eds/bin/gnu/h-x86_64-mingw32/bin/../lib/gcc/nios2-elf/4.7.3/../../../../../H-x86_64-mingw32/nios2-elf/lib/mno-hw-mul\libc.a(lib_a-fstatr.o)
 .debug_aranges
                0x0000000000000440       0x18 c:/altera/14.0/nios2eds/bin/gnu/h-x86_64-mingw32/bin/../lib/gcc/nios2-elf/4.7.3/../../../../../H-x86_64-mingw32/nios2-elf/lib/mno-hw-mul\libc.a(lib_a-int_errno.o)
 .debug_aranges
                0x0000000000000458       0x20 c:/altera/14.0/nios2eds/bin/gnu/h-x86_64-mingw32/bin/../lib/gcc/nios2-elf/4.7.3/../../../../../H-x86_64-mingw32/nios2-elf/lib/mno-hw-mul\libc.a(lib_a-isattyr.o)
 .debug_aranges
                0x0000000000000478       0x20 c:/altera/14.0/nios2eds/bin/gnu/h-x86_64-mingw32/bin/../lib/gcc/nios2-elf/4.7.3/../../../../../H-x86_64-mingw32/nios2-elf/lib/mno-hw-mul\libc.a(lib_a-lseekr.o)
 .debug_aranges
                0x0000000000000498       0x20 c:/altera/14.0/nios2eds/bin/gnu/h-x86_64-mingw32/bin/../lib/gcc/nios2-elf/4.7.3/../../../../../H-x86_64-mingw32/nios2-elf/lib/mno-hw-mul\libc.a(lib_a-readr.o)
 .debug_aranges
                0x00000000000004b8       0x20 c:/altera/14.0/nios2eds/bin/gnu/h-x86_64-mingw32/bin/../lib/gcc/nios2-elf/4.7.3/mno-hw-mul\libgcc.a(_udivdi3.o)
 .debug_aranges
                0x00000000000004d8       0x20 c:/altera/14.0/nios2eds/bin/gnu/h-x86_64-mingw32/bin/../lib/gcc/nios2-elf/4.7.3/mno-hw-mul\libgcc.a(_umoddi3.o)
 .debug_aranges
                0x00000000000004f8       0x20 c:/altera/14.0/nios2eds/bin/gnu/h-x86_64-mingw32/bin/../lib/gcc/nios2-elf/4.7.3/mno-hw-mul\libgcc.a(_addsub_df.o)
 .debug_aranges
                0x0000000000000518       0x20 c:/altera/14.0/nios2eds/bin/gnu/h-x86_64-mingw32/bin/../lib/gcc/nios2-elf/4.7.3/mno-hw-mul\libgcc.a(_mul_df.o)
 .debug_aranges
                0x0000000000000538       0x20 c:/altera/14.0/nios2eds/bin/gnu/h-x86_64-mingw32/bin/../lib/gcc/nios2-elf/4.7.3/mno-hw-mul\libgcc.a(_div_df.o)
 .debug_aranges
                0x0000000000000558       0x20 c:/altera/14.0/nios2eds/bin/gnu/h-x86_64-mingw32/bin/../lib/gcc/nios2-elf/4.7.3/mno-hw-mul\libgcc.a(_eq_df.o)
 .debug_aranges
                0x0000000000000578       0x20 c:/altera/14.0/nios2eds/bin/gnu/h-x86_64-mingw32/bin/../lib/gcc/nios2-elf/4.7.3/mno-hw-mul\libgcc.a(_ne_df.o)
 .debug_aranges
                0x0000000000000598       0x20 c:/altera/14.0/nios2eds/bin/gnu/h-x86_64-mingw32/bin/../lib/gcc/nios2-elf/4.7.3/mno-hw-mul\libgcc.a(_gt_df.o)
 .debug_aranges
                0x00000000000005b8       0x20 c:/altera/14.0/nios2eds/bin/gnu/h-x86_64-mingw32/bin/../lib/gcc/nios2-elf/4.7.3/mno-hw-mul\libgcc.a(_ge_df.o)
 .debug_aranges
                0x00000000000005d8       0x20 c:/altera/14.0/nios2eds/bin/gnu/h-x86_64-mingw32/bin/../lib/gcc/nios2-elf/4.7.3/mno-hw-mul\libgcc.a(_lt_df.o)
 .debug_aranges
                0x00000000000005f8       0x20 c:/altera/14.0/nios2eds/bin/gnu/h-x86_64-mingw32/bin/../lib/gcc/nios2-elf/4.7.3/mno-hw-mul\libgcc.a(_si_to_df.o)
 .debug_aranges
                0x0000000000000618       0x20 c:/altera/14.0/nios2eds/bin/gnu/h-x86_64-mingw32/bin/../lib/gcc/nios2-elf/4.7.3/mno-hw-mul\libgcc.a(_df_to_si.o)
 .debug_aranges
                0x0000000000000638       0x18 c:/altera/14.0/nios2eds/bin/gnu/h-x86_64-mingw32/bin/../lib/gcc/nios2-elf/4.7.3/mno-hw-mul\libgcc.a(_thenan_df.o)
 .debug_aranges
                0x0000000000000650       0x20 c:/altera/14.0/nios2eds/bin/gnu/h-x86_64-mingw32/bin/../lib/gcc/nios2-elf/4.7.3/mno-hw-mul\libgcc.a(_usi_to_df.o)
 .debug_aranges
                0x0000000000000670       0x20 c:/altera/14.0/nios2eds/bin/gnu/h-x86_64-mingw32/bin/../lib/gcc/nios2-elf/4.7.3/mno-hw-mul\libgcc.a(lib2-divmod.o)
 .debug_aranges
                0x0000000000000690       0x20 c:/altera/14.0/nios2eds/bin/gnu/h-x86_64-mingw32/bin/../lib/gcc/nios2-elf/4.7.3/mno-hw-mul\libgcc.a(lib2-mul.o)
 .debug_aranges
                0x00000000000006b0       0x20 c:/altera/14.0/nios2eds/bin/gnu/h-x86_64-mingw32/bin/../lib/gcc/nios2-elf/4.7.3/mno-hw-mul\libgcc.a(_muldi3.o)
 .debug_aranges
                0x00000000000006d0       0x18 c:/altera/14.0/nios2eds/bin/gnu/h-x86_64-mingw32/bin/../lib/gcc/nios2-elf/4.7.3/mno-hw-mul\libgcc.a(_clz.o)
 .debug_aranges
                0x00000000000006e8       0x20 c:/altera/14.0/nios2eds/bin/gnu/h-x86_64-mingw32/bin/../lib/gcc/nios2-elf/4.7.3/mno-hw-mul\libgcc.a(_clzsi2.o)
 .debug_aranges
                0x0000000000000708       0x20 c:/altera/14.0/nios2eds/bin/gnu/h-x86_64-mingw32/bin/../lib/gcc/nios2-elf/4.7.3/mno-hw-mul\libgcc.a(_pack_df.o)
 .debug_aranges
                0x0000000000000728       0x20 c:/altera/14.0/nios2eds/bin/gnu/h-x86_64-mingw32/bin/../lib/gcc/nios2-elf/4.7.3/mno-hw-mul\libgcc.a(_unpack_df.o)
 .debug_aranges
                0x0000000000000748       0x20 c:/altera/14.0/nios2eds/bin/gnu/h-x86_64-mingw32/bin/../lib/gcc/nios2-elf/4.7.3/mno-hw-mul\libgcc.a(_fpcmp_parts_df.o)
 .debug_aranges
                0x0000000000000768       0x20 c:/altera/14.0/nios2eds/bin/gnu/h-x86_64-mingw32/bin/../lib/gcc/nios2-elf/4.7.3/mno-hw-mul\libgcc.a(_lshrdi3.o)
 .debug_aranges
                0x0000000000000788       0x20 c:/altera/14.0/nios2eds/bin/gnu/h-x86_64-mingw32/bin/../lib/gcc/nios2-elf/4.7.3/mno-hw-mul\libgcc.a(_ashldi3.o)
 .debug_aranges
                0x00000000000007a8       0x20 ../ControlUnit_bsp/\libucosii_bsp.a(alt_close.o)
 .debug_aranges
                0x00000000000007c8       0x20 ../ControlUnit_bsp/\libucosii_bsp.a(alt_dev.o)
 .debug_aranges
                0x00000000000007e8       0x18 ../ControlUnit_bsp/\libucosii_bsp.a(alt_errno.o)
 .debug_aranges
                0x0000000000000800       0x20 ../ControlUnit_bsp/\libucosii_bsp.a(alt_fstat.o)
 .debug_aranges
                0x0000000000000820       0x20 ../ControlUnit_bsp/\libucosii_bsp.a(alt_iic.o)
 .debug_aranges
                0x0000000000000840       0x20 ../ControlUnit_bsp/\libucosii_bsp.a(alt_iic_isr_register.o)
 .debug_aranges
                0x0000000000000860       0x30 ../ControlUnit_bsp/\libucosii_bsp.a(alt_irq_entry.o)
 .debug_aranges
                0x0000000000000890       0x20 ../ControlUnit_bsp/\libucosii_bsp.a(alt_irq_handler.o)
 .debug_aranges
                0x00000000000008b0       0x18 ../ControlUnit_bsp/\libucosii_bsp.a(alt_irq_vars.o)
 .debug_aranges
                0x00000000000008c8       0x20 ../ControlUnit_bsp/\libucosii_bsp.a(alt_isatty.o)
 .debug_aranges
                0x00000000000008e8       0x20 ../ControlUnit_bsp/\libucosii_bsp.a(alt_load.o)
 .debug_aranges
                0x0000000000000908       0x20 ../ControlUnit_bsp/\libucosii_bsp.a(alt_lseek.o)
 .debug_aranges
                0x0000000000000928       0x20 ../ControlUnit_bsp/\libucosii_bsp.a(alt_main.o)
 .debug_aranges
                0x0000000000000948       0x20 ../ControlUnit_bsp/\libucosii_bsp.a(alt_read.o)
 .debug_aranges
                0x0000000000000968       0x20 ../ControlUnit_bsp/\libucosii_bsp.a(alt_release_fd.o)
 .debug_aranges
                0x0000000000000988       0x20 ../ControlUnit_bsp/\libucosii_bsp.a(alt_sbrk.o)
 .debug_aranges
                0x00000000000009a8       0x20 ../ControlUnit_bsp/\libucosii_bsp.a(alt_write.o)
 .debug_aranges
                0x00000000000009c8       0x20 ../ControlUnit_bsp/\libucosii_bsp.a(alt_env_lock.o)
 .debug_aranges
                0x00000000000009e8       0x20 ../ControlUnit_bsp/\libucosii_bsp.a(alt_malloc_lock.o)
 .debug_aranges
                0x0000000000000a08       0x20 ../ControlUnit_bsp/\libucosii_bsp.a(os_core.o)
 .debug_aranges
                0x0000000000000a28       0x20 ../ControlUnit_bsp/\libucosii_bsp.a(os_dbg.o)
 .debug_aranges
                0x0000000000000a48       0x20 ../ControlUnit_bsp/\libucosii_bsp.a(os_flag.o)
 .debug_aranges
                0x0000000000000a68       0x20 ../ControlUnit_bsp/\libucosii_bsp.a(os_mem.o)
 .debug_aranges
                0x0000000000000a88       0x20 ../ControlUnit_bsp/\libucosii_bsp.a(os_q.o)
 .debug_aranges
                0x0000000000000aa8       0x20 ../ControlUnit_bsp/\libucosii_bsp.a(os_sem.o)
 .debug_aranges
                0x0000000000000ac8       0x20 ../ControlUnit_bsp/\libucosii_bsp.a(os_task.o)
 .debug_aranges
                0x0000000000000ae8       0x20 ../ControlUnit_bsp/\libucosii_bsp.a(os_time.o)
 .debug_aranges
                0x0000000000000b08       0x20 ../ControlUnit_bsp/\libucosii_bsp.a(alt_sys_init.o)
 .debug_aranges
                0x0000000000000b28       0x20 ../ControlUnit_bsp/\libucosii_bsp.a(altera_avalon_jtag_uart_fd.o)
 .debug_aranges
                0x0000000000000b48       0x20 ../ControlUnit_bsp/\libucosii_bsp.a(altera_avalon_jtag_uart_init.o)
 .debug_aranges
                0x0000000000000b68       0x20 ../ControlUnit_bsp/\libucosii_bsp.a(altera_avalon_jtag_uart_ioctl.o)
 .debug_aranges
                0x0000000000000b88       0x20 ../ControlUnit_bsp/\libucosii_bsp.a(altera_avalon_jtag_uart_read.o)
 .debug_aranges
                0x0000000000000ba8       0x20 ../ControlUnit_bsp/\libucosii_bsp.a(altera_avalon_jtag_uart_write.o)
 .debug_aranges
                0x0000000000000bc8       0x20 ../ControlUnit_bsp/\libucosii_bsp.a(altera_avalon_timer_sc.o)
 .debug_aranges
                0x0000000000000be8       0x20 ../ControlUnit_bsp/\libucosii_bsp.a(alt_alarm_start.o)
 .debug_aranges
                0x0000000000000c08       0x20 ../ControlUnit_bsp/\libucosii_bsp.a(alt_dcache_flush_all.o)
 .debug_aranges
                0x0000000000000c28       0x20 ../ControlUnit_bsp/\libucosii_bsp.a(alt_dev_llist_insert.o)
 .debug_aranges
                0x0000000000000c48       0x20 ../ControlUnit_bsp/\libucosii_bsp.a(alt_do_ctors.o)
 .debug_aranges
                0x0000000000000c68       0x20 ../ControlUnit_bsp/\libucosii_bsp.a(alt_do_dtors.o)
 .debug_aranges
                0x0000000000000c88       0x38 ../ControlUnit_bsp/\libucosii_bsp.a(alt_exception_entry.o)
 .debug_aranges
                0x0000000000000cc0       0x20 ../ControlUnit_bsp/\libucosii_bsp.a(alt_icache_flush_all.o)
 .debug_aranges
                0x0000000000000ce0       0x20 ../ControlUnit_bsp/\libucosii_bsp.a(alt_io_redirect.o)
 .debug_aranges
                0x0000000000000d00       0x20 ../ControlUnit_bsp/\libucosii_bsp.a(alt_open.o)
 .debug_aranges
                0x0000000000000d20       0x20 ../ControlUnit_bsp/\libucosii_bsp.a(alt_tick.o)
 .debug_aranges
                0x0000000000000d40       0x20 ../ControlUnit_bsp/\libucosii_bsp.a(altera_nios2_qsys_irq.o)
 .debug_aranges
                0x0000000000000d60       0x20 ../ControlUnit_bsp/\libucosii_bsp.a(os_cpu_a.o)
 .debug_aranges
                0x0000000000000d80       0x20 ../ControlUnit_bsp/\libucosii_bsp.a(os_cpu_c.o)
 .debug_aranges
                0x0000000000000da0       0x20 ../ControlUnit_bsp/\libucosii_bsp.a(alt_find_dev.o)
 .debug_aranges
                0x0000000000000dc0       0x20 ../ControlUnit_bsp/\libucosii_bsp.a(alt_find_file.o)
 .debug_aranges
                0x0000000000000de0       0x20 ../ControlUnit_bsp/\libucosii_bsp.a(alt_get_fd.o)
 .debug_aranges
                0x0000000000000e00       0x20 c:/altera/14.0/nios2eds/bin/gnu/h-x86_64-mingw32/bin/../lib/gcc/nios2-elf/4.7.3/../../../../../H-x86_64-mingw32/nios2-elf/lib/mno-hw-mul\libc.a(lib_a-atexit.o)
 .debug_aranges
                0x0000000000000e20       0x20 c:/altera/14.0/nios2eds/bin/gnu/h-x86_64-mingw32/bin/../lib/gcc/nios2-elf/4.7.3/../../../../../H-x86_64-mingw32/nios2-elf/lib/mno-hw-mul\libc.a(lib_a-exit.o)
 .debug_aranges
                0x0000000000000e40       0x20 c:/altera/14.0/nios2eds/bin/gnu/h-x86_64-mingw32/bin/../lib/gcc/nios2-elf/4.7.3/../../../../../H-x86_64-mingw32/nios2-elf/lib/mno-hw-mul\libc.a(lib_a-memcmp.o)
 .debug_aranges
                0x0000000000000e60       0x20 c:/altera/14.0/nios2eds/bin/gnu/h-x86_64-mingw32/bin/../lib/gcc/nios2-elf/4.7.3/../../../../../H-x86_64-mingw32/nios2-elf/lib/mno-hw-mul\libc.a(lib_a-__atexit.o)
 .debug_aranges
                0x0000000000000e80       0x20 c:/altera/14.0/nios2eds/bin/gnu/h-x86_64-mingw32/bin/../lib/gcc/nios2-elf/4.7.3/../../../../../H-x86_64-mingw32/nios2-elf/lib/mno-hw-mul\libc.a(lib_a-__call_atexit.o)
 .debug_aranges
                0x0000000000000ea0       0x20 ../ControlUnit_bsp/\libucosii_bsp.a(alt_exit.o)

.debug_pubnames
 *(.debug_pubnames)

.debug_info     0x0000000000000000    0x2caf7
 *(.debug_info .gnu.linkonce.wi.*)
 .debug_info    0x0000000000000000       0x74 ../ControlUnit_bsp//obj/HAL/src/crt0.o
 .debug_info    0x0000000000000074      0x2d9 obj/default/main.o
 .debug_info    0x000000000000034d      0x1eb obj/default/switchesIRQhandler.o
 .debug_info    0x0000000000000538      0xa6c c:/altera/14.0/nios2eds/bin/gnu/h-x86_64-mingw32/bin/../lib/gcc/nios2-elf/4.7.3/../../../../../H-x86_64-mingw32/nios2-elf/lib/mno-hw-mul\libc.a(lib_a-printf.o)
 .debug_info    0x0000000000000fa4      0xab7 c:/altera/14.0/nios2eds/bin/gnu/h-x86_64-mingw32/bin/../lib/gcc/nios2-elf/4.7.3/../../../../../H-x86_64-mingw32/nios2-elf/lib/mno-hw-mul\libc.a(lib_a-puts.o)
 .debug_info    0x0000000000001a5b       0xdf c:/altera/14.0/nios2eds/bin/gnu/h-x86_64-mingw32/bin/../lib/gcc/nios2-elf/4.7.3/../../../../../H-x86_64-mingw32/nios2-elf/lib/mno-hw-mul\libc.a(lib_a-strlen.o)
 .debug_info    0x0000000000001b3a     0x195a c:/altera/14.0/nios2eds/bin/gnu/h-x86_64-mingw32/bin/../lib/gcc/nios2-elf/4.7.3/../../../../../H-x86_64-mingw32/nios2-elf/lib/mno-hw-mul\libc.a(lib_a-vfprintf.o)
 .debug_info    0x0000000000003494      0x9d4 c:/altera/14.0/nios2eds/bin/gnu/h-x86_64-mingw32/bin/../lib/gcc/nios2-elf/4.7.3/../../../../../H-x86_64-mingw32/nios2-elf/lib/mno-hw-mul\libc.a(lib_a-wsetup.o)
 .debug_info    0x0000000000003e68     0x1409 c:/altera/14.0/nios2eds/bin/gnu/h-x86_64-mingw32/bin/../lib/gcc/nios2-elf/4.7.3/../../../../../H-x86_64-mingw32/nios2-elf/lib/mno-hw-mul\libc.a(lib_a-dtoa.o)
 .debug_info    0x0000000000005271      0xad0 c:/altera/14.0/nios2eds/bin/gnu/h-x86_64-mingw32/bin/../lib/gcc/nios2-elf/4.7.3/../../../../../H-x86_64-mingw32/nios2-elf/lib/mno-hw-mul\libc.a(lib_a-fflush.o)
 .debug_info    0x0000000000005d41      0xd6e c:/altera/14.0/nios2eds/bin/gnu/h-x86_64-mingw32/bin/../lib/gcc/nios2-elf/4.7.3/../../../../../H-x86_64-mingw32/nios2-elf/lib/mno-hw-mul\libc.a(lib_a-findfp.o)
 .debug_info    0x0000000000006aaf      0xcf9 c:/altera/14.0/nios2eds/bin/gnu/h-x86_64-mingw32/bin/../lib/gcc/nios2-elf/4.7.3/../../../../../H-x86_64-mingw32/nios2-elf/lib/mno-hw-mul\libc.a(lib_a-freer.o)
 .debug_info    0x00000000000077a8      0xd05 c:/altera/14.0/nios2eds/bin/gnu/h-x86_64-mingw32/bin/../lib/gcc/nios2-elf/4.7.3/../../../../../H-x86_64-mingw32/nios2-elf/lib/mno-hw-mul\libc.a(lib_a-fvwrite.o)
 .debug_info    0x00000000000084ad      0xb72 c:/altera/14.0/nios2eds/bin/gnu/h-x86_64-mingw32/bin/../lib/gcc/nios2-elf/4.7.3/../../../../../H-x86_64-mingw32/nios2-elf/lib/mno-hw-mul\libc.a(lib_a-fwalk.o)
 .debug_info    0x000000000000901f      0x938 c:/altera/14.0/nios2eds/bin/gnu/h-x86_64-mingw32/bin/../lib/gcc/nios2-elf/4.7.3/../../../../../H-x86_64-mingw32/nios2-elf/lib/mno-hw-mul\libc.a(lib_a-impure.o)
 .debug_info    0x0000000000009957      0xc10 c:/altera/14.0/nios2eds/bin/gnu/h-x86_64-mingw32/bin/../lib/gcc/nios2-elf/4.7.3/../../../../../H-x86_64-mingw32/nios2-elf/lib/mno-hw-mul\libc.a(lib_a-locale.o)
 .debug_info    0x000000000000a567      0xbc2 c:/altera/14.0/nios2eds/bin/gnu/h-x86_64-mingw32/bin/../lib/gcc/nios2-elf/4.7.3/../../../../../H-x86_64-mingw32/nios2-elf/lib/mno-hw-mul\libc.a(lib_a-makebuf.o)
 .debug_info    0x000000000000b129      0xe44 c:/altera/14.0/nios2eds/bin/gnu/h-x86_64-mingw32/bin/../lib/gcc/nios2-elf/4.7.3/../../../../../H-x86_64-mingw32/nios2-elf/lib/mno-hw-mul\libc.a(lib_a-mallocr.o)
 .debug_info    0x000000000000bf6d      0x13e c:/altera/14.0/nios2eds/bin/gnu/h-x86_64-mingw32/bin/../lib/gcc/nios2-elf/4.7.3/../../../../../H-x86_64-mingw32/nios2-elf/lib/mno-hw-mul\libc.a(lib_a-memchr.o)
 .debug_info    0x000000000000c0ab      0x10f c:/altera/14.0/nios2eds/bin/gnu/h-x86_64-mingw32/bin/../lib/gcc/nios2-elf/4.7.3/../../../../../H-x86_64-mingw32/nios2-elf/lib/mno-hw-mul\libc.a(lib_a-memcpy.o)
 .debug_info    0x000000000000c1ba      0x147 c:/altera/14.0/nios2eds/bin/gnu/h-x86_64-mingw32/bin/../lib/gcc/nios2-elf/4.7.3/../../../../../H-x86_64-mingw32/nios2-elf/lib/mno-hw-mul\libc.a(lib_a-memmove.o)
 .debug_info    0x000000000000c301      0x117 c:/altera/14.0/nios2eds/bin/gnu/h-x86_64-mingw32/bin/../lib/gcc/nios2-elf/4.7.3/../../../../../H-x86_64-mingw32/nios2-elf/lib/mno-hw-mul\libc.a(lib_a-memset.o)
 .debug_info    0x000000000000c418     0x1734 c:/altera/14.0/nios2eds/bin/gnu/h-x86_64-mingw32/bin/../lib/gcc/nios2-elf/4.7.3/../../../../../H-x86_64-mingw32/nios2-elf/lib/mno-hw-mul\libc.a(lib_a-mprec.o)
 .debug_info    0x000000000000db4c      0xd8e c:/altera/14.0/nios2eds/bin/gnu/h-x86_64-mingw32/bin/../lib/gcc/nios2-elf/4.7.3/../../../../../H-x86_64-mingw32/nios2-elf/lib/mno-hw-mul\libc.a(lib_a-reallocr.o)
 .debug_info    0x000000000000e8da       0xe8 c:/altera/14.0/nios2eds/bin/gnu/h-x86_64-mingw32/bin/../lib/gcc/nios2-elf/4.7.3/../../../../../H-x86_64-mingw32/nios2-elf/lib/mno-hw-mul\libc.a(lib_a-s_isinfd.o)
 .debug_info    0x000000000000e9c2       0xe8 c:/altera/14.0/nios2eds/bin/gnu/h-x86_64-mingw32/bin/../lib/gcc/nios2-elf/4.7.3/../../../../../H-x86_64-mingw32/nios2-elf/lib/mno-hw-mul\libc.a(lib_a-s_isnand.o)
 .debug_info    0x000000000000eaaa      0x9a3 c:/altera/14.0/nios2eds/bin/gnu/h-x86_64-mingw32/bin/../lib/gcc/nios2-elf/4.7.3/../../../../../H-x86_64-mingw32/nios2-elf/lib/mno-hw-mul\libc.a(lib_a-sbrkr.o)
 .debug_info    0x000000000000f44d      0xbfd c:/altera/14.0/nios2eds/bin/gnu/h-x86_64-mingw32/bin/../lib/gcc/nios2-elf/4.7.3/../../../../../H-x86_64-mingw32/nios2-elf/lib/mno-hw-mul\libc.a(lib_a-stdio.o)
 .debug_info    0x000000000001004a       0xe1 c:/altera/14.0/nios2eds/bin/gnu/h-x86_64-mingw32/bin/../lib/gcc/nios2-elf/4.7.3/../../../../../H-x86_64-mingw32/nios2-elf/lib/mno-hw-mul\libc.a(lib_a-strcmp.o)
 .debug_info    0x000000000001012b      0x9d2 c:/altera/14.0/nios2eds/bin/gnu/h-x86_64-mingw32/bin/../lib/gcc/nios2-elf/4.7.3/../../../../../H-x86_64-mingw32/nios2-elf/lib/mno-hw-mul\libc.a(lib_a-writer.o)
 .debug_info    0x0000000000010afd      0xa8b c:/altera/14.0/nios2eds/bin/gnu/h-x86_64-mingw32/bin/../lib/gcc/nios2-elf/4.7.3/../../../../../H-x86_64-mingw32/nios2-elf/lib/mno-hw-mul\libc.a(lib_a-callocr.o)
 .debug_info    0x0000000000011588      0x97f c:/altera/14.0/nios2eds/bin/gnu/h-x86_64-mingw32/bin/../lib/gcc/nios2-elf/4.7.3/../../../../../H-x86_64-mingw32/nios2-elf/lib/mno-hw-mul\libc.a(lib_a-closer.o)
 .debug_info    0x0000000000011f07      0xa97 c:/altera/14.0/nios2eds/bin/gnu/h-x86_64-mingw32/bin/../lib/gcc/nios2-elf/4.7.3/../../../../../H-x86_64-mingw32/nios2-elf/lib/mno-hw-mul\libc.a(lib_a-fclose.o)
 .debug_info    0x000000000001299e      0xb2f c:/altera/14.0/nios2eds/bin/gnu/h-x86_64-mingw32/bin/../lib/gcc/nios2-elf/4.7.3/../../../../../H-x86_64-mingw32/nios2-elf/lib/mno-hw-mul\libc.a(lib_a-fstatr.o)
 .debug_info    0x00000000000134cd       0x84 c:/altera/14.0/nios2eds/bin/gnu/h-x86_64-mingw32/bin/../lib/gcc/nios2-elf/4.7.3/../../../../../H-x86_64-mingw32/nios2-elf/lib/mno-hw-mul\libc.a(lib_a-int_errno.o)
 .debug_info    0x0000000000013551      0x97f c:/altera/14.0/nios2eds/bin/gnu/h-x86_64-mingw32/bin/../lib/gcc/nios2-elf/4.7.3/../../../../../H-x86_64-mingw32/nios2-elf/lib/mno-hw-mul\libc.a(lib_a-isattyr.o)
 .debug_info    0x0000000000013ed0      0x9cb c:/altera/14.0/nios2eds/bin/gnu/h-x86_64-mingw32/bin/../lib/gcc/nios2-elf/4.7.3/../../../../../H-x86_64-mingw32/nios2-elf/lib/mno-hw-mul\libc.a(lib_a-lseekr.o)
 .debug_info    0x000000000001489b      0x9cb c:/altera/14.0/nios2eds/bin/gnu/h-x86_64-mingw32/bin/../lib/gcc/nios2-elf/4.7.3/../../../../../H-x86_64-mingw32/nios2-elf/lib/mno-hw-mul\libc.a(lib_a-readr.o)
 .debug_info    0x0000000000015266      0x71c c:/altera/14.0/nios2eds/bin/gnu/h-x86_64-mingw32/bin/../lib/gcc/nios2-elf/4.7.3/mno-hw-mul\libgcc.a(_udivdi3.o)
 .debug_info    0x0000000000015982      0x773 c:/altera/14.0/nios2eds/bin/gnu/h-x86_64-mingw32/bin/../lib/gcc/nios2-elf/4.7.3/mno-hw-mul\libgcc.a(_umoddi3.o)
 .debug_info    0x00000000000160f5      0x588 c:/altera/14.0/nios2eds/bin/gnu/h-x86_64-mingw32/bin/../lib/gcc/nios2-elf/4.7.3/mno-hw-mul\libgcc.a(_addsub_df.o)
 .debug_info    0x000000000001667d      0x519 c:/altera/14.0/nios2eds/bin/gnu/h-x86_64-mingw32/bin/../lib/gcc/nios2-elf/4.7.3/mno-hw-mul\libgcc.a(_mul_df.o)
 .debug_info    0x0000000000016b96      0x443 c:/altera/14.0/nios2eds/bin/gnu/h-x86_64-mingw32/bin/../lib/gcc/nios2-elf/4.7.3/mno-hw-mul\libgcc.a(_div_df.o)
 .debug_info    0x0000000000016fd9      0x320 c:/altera/14.0/nios2eds/bin/gnu/h-x86_64-mingw32/bin/../lib/gcc/nios2-elf/4.7.3/mno-hw-mul\libgcc.a(_eq_df.o)
 .debug_info    0x00000000000172f9      0x320 c:/altera/14.0/nios2eds/bin/gnu/h-x86_64-mingw32/bin/../lib/gcc/nios2-elf/4.7.3/mno-hw-mul\libgcc.a(_ne_df.o)
 .debug_info    0x0000000000017619      0x320 c:/altera/14.0/nios2eds/bin/gnu/h-x86_64-mingw32/bin/../lib/gcc/nios2-elf/4.7.3/mno-hw-mul\libgcc.a(_gt_df.o)
 .debug_info    0x0000000000017939      0x320 c:/altera/14.0/nios2eds/bin/gnu/h-x86_64-mingw32/bin/../lib/gcc/nios2-elf/4.7.3/mno-hw-mul\libgcc.a(_ge_df.o)
 .debug_info    0x0000000000017c59      0x320 c:/altera/14.0/nios2eds/bin/gnu/h-x86_64-mingw32/bin/../lib/gcc/nios2-elf/4.7.3/mno-hw-mul\libgcc.a(_lt_df.o)
 .debug_info    0x0000000000017f79      0x261 c:/altera/14.0/nios2eds/bin/gnu/h-x86_64-mingw32/bin/../lib/gcc/nios2-elf/4.7.3/mno-hw-mul\libgcc.a(_si_to_df.o)
 .debug_info    0x00000000000181da      0x30b c:/altera/14.0/nios2eds/bin/gnu/h-x86_64-mingw32/bin/../lib/gcc/nios2-elf/4.7.3/mno-hw-mul\libgcc.a(_df_to_si.o)
 .debug_info    0x00000000000184e5      0x155 c:/altera/14.0/nios2eds/bin/gnu/h-x86_64-mingw32/bin/../lib/gcc/nios2-elf/4.7.3/mno-hw-mul\libgcc.a(_thenan_df.o)
 .debug_info    0x000000000001863a      0x284 c:/altera/14.0/nios2eds/bin/gnu/h-x86_64-mingw32/bin/../lib/gcc/nios2-elf/4.7.3/mno-hw-mul\libgcc.a(_usi_to_df.o)
 .debug_info    0x00000000000188be      0x289 c:/altera/14.0/nios2eds/bin/gnu/h-x86_64-mingw32/bin/../lib/gcc/nios2-elf/4.7.3/mno-hw-mul\libgcc.a(lib2-divmod.o)
 .debug_info    0x0000000000018b47       0xb8 c:/altera/14.0/nios2eds/bin/gnu/h-x86_64-mingw32/bin/../lib/gcc/nios2-elf/4.7.3/mno-hw-mul\libgcc.a(lib2-mul.o)
 .debug_info    0x0000000000018bff      0x1eb c:/altera/14.0/nios2eds/bin/gnu/h-x86_64-mingw32/bin/../lib/gcc/nios2-elf/4.7.3/mno-hw-mul\libgcc.a(_muldi3.o)
 .debug_info    0x0000000000018dea       0xac c:/altera/14.0/nios2eds/bin/gnu/h-x86_64-mingw32/bin/../lib/gcc/nios2-elf/4.7.3/mno-hw-mul\libgcc.a(_clz.o)
 .debug_info    0x0000000000018e96      0x123 c:/altera/14.0/nios2eds/bin/gnu/h-x86_64-mingw32/bin/../lib/gcc/nios2-elf/4.7.3/mno-hw-mul\libgcc.a(_clzsi2.o)
 .debug_info    0x0000000000018fb9      0x2f7 c:/altera/14.0/nios2eds/bin/gnu/h-x86_64-mingw32/bin/../lib/gcc/nios2-elf/4.7.3/mno-hw-mul\libgcc.a(_pack_df.o)
 .debug_info    0x00000000000192b0      0x265 c:/altera/14.0/nios2eds/bin/gnu/h-x86_64-mingw32/bin/../lib/gcc/nios2-elf/4.7.3/mno-hw-mul\libgcc.a(_unpack_df.o)
 .debug_info    0x0000000000019515      0x226 c:/altera/14.0/nios2eds/bin/gnu/h-x86_64-mingw32/bin/../lib/gcc/nios2-elf/4.7.3/mno-hw-mul\libgcc.a(_fpcmp_parts_df.o)
 .debug_info    0x000000000001973b      0x185 c:/altera/14.0/nios2eds/bin/gnu/h-x86_64-mingw32/bin/../lib/gcc/nios2-elf/4.7.3/mno-hw-mul\libgcc.a(_lshrdi3.o)
 .debug_info    0x00000000000198c0      0x185 c:/altera/14.0/nios2eds/bin/gnu/h-x86_64-mingw32/bin/../lib/gcc/nios2-elf/4.7.3/mno-hw-mul\libgcc.a(_ashldi3.o)
 .debug_info    0x0000000000019a45      0x388 ../ControlUnit_bsp/\libucosii_bsp.a(alt_close.o)
 .debug_info    0x0000000000019dcd      0x5dd ../ControlUnit_bsp/\libucosii_bsp.a(alt_dev.o)
 .debug_info    0x000000000001a3aa       0xa3 ../ControlUnit_bsp/\libucosii_bsp.a(alt_errno.o)
 .debug_info    0x000000000001a44d      0x510 ../ControlUnit_bsp/\libucosii_bsp.a(alt_fstat.o)
 .debug_info    0x000000000001a95d      0x364 ../ControlUnit_bsp/\libucosii_bsp.a(alt_iic.o)
 .debug_info    0x000000000001acc1      0x1f6 ../ControlUnit_bsp/\libucosii_bsp.a(alt_iic_isr_register.o)
 .debug_info    0x000000000001aeb7       0x7d ../ControlUnit_bsp/\libucosii_bsp.a(alt_irq_entry.o)
 .debug_info    0x000000000001af34      0x1bd ../ControlUnit_bsp/\libucosii_bsp.a(alt_irq_handler.o)
 .debug_info    0x000000000001b0f1       0x8a ../ControlUnit_bsp/\libucosii_bsp.a(alt_irq_vars.o)
 .debug_info    0x000000000001b17b      0x513 ../ControlUnit_bsp/\libucosii_bsp.a(alt_isatty.o)
 .debug_info    0x000000000001b68e      0x159 ../ControlUnit_bsp/\libucosii_bsp.a(alt_load.o)
 .debug_info    0x000000000001b7e7      0x3b9 ../ControlUnit_bsp/\libucosii_bsp.a(alt_lseek.o)
 .debug_info    0x000000000001bba0      0x28b ../ControlUnit_bsp/\libucosii_bsp.a(alt_main.o)
 .debug_info    0x000000000001be2b      0x538 ../ControlUnit_bsp/\libucosii_bsp.a(alt_read.o)
 .debug_info    0x000000000001c363      0x323 ../ControlUnit_bsp/\libucosii_bsp.a(alt_release_fd.o)
 .debug_info    0x000000000001c686      0x1b2 ../ControlUnit_bsp/\libucosii_bsp.a(alt_sbrk.o)
 .debug_info    0x000000000001c838      0x53f ../ControlUnit_bsp/\libucosii_bsp.a(alt_write.o)
 .debug_info    0x000000000001cd77      0xd5c ../ControlUnit_bsp/\libucosii_bsp.a(alt_env_lock.o)
 .debug_info    0x000000000001dad3      0xea6 ../ControlUnit_bsp/\libucosii_bsp.a(alt_malloc_lock.o)
 .debug_info    0x000000000001e979     0x174b ../ControlUnit_bsp/\libucosii_bsp.a(os_core.o)
 .debug_info    0x00000000000200c4      0xb93 ../ControlUnit_bsp/\libucosii_bsp.a(os_dbg.o)
 .debug_info    0x0000000000020c57     0x1040 ../ControlUnit_bsp/\libucosii_bsp.a(os_flag.o)
 .debug_info    0x0000000000021c97      0x6ba ../ControlUnit_bsp/\libucosii_bsp.a(os_mem.o)
 .debug_info    0x0000000000022351      0xe4d ../ControlUnit_bsp/\libucosii_bsp.a(os_q.o)
 .debug_info    0x000000000002319e      0xa89 ../ControlUnit_bsp/\libucosii_bsp.a(os_sem.o)
 .debug_info    0x0000000000023c27     0x11bb ../ControlUnit_bsp/\libucosii_bsp.a(os_task.o)
 .debug_info    0x0000000000024de2      0x75d ../ControlUnit_bsp/\libucosii_bsp.a(os_time.o)
 .debug_info    0x000000000002553f      0x6a2 ../ControlUnit_bsp/\libucosii_bsp.a(alt_sys_init.o)
 .debug_info    0x0000000000025be1      0x6f3 ../ControlUnit_bsp/\libucosii_bsp.a(altera_avalon_jtag_uart_fd.o)
 .debug_info    0x00000000000262d4      0x709 ../ControlUnit_bsp/\libucosii_bsp.a(altera_avalon_jtag_uart_init.o)
 .debug_info    0x00000000000269dd      0x412 ../ControlUnit_bsp/\libucosii_bsp.a(altera_avalon_jtag_uart_ioctl.o)
 .debug_info    0x0000000000026def      0x5c4 ../ControlUnit_bsp/\libucosii_bsp.a(altera_avalon_jtag_uart_read.o)
 .debug_info    0x00000000000273b3      0x5c2 ../ControlUnit_bsp/\libucosii_bsp.a(altera_avalon_jtag_uart_write.o)
 .debug_info    0x0000000000027975      0x235 ../ControlUnit_bsp/\libucosii_bsp.a(altera_avalon_timer_sc.o)
 .debug_info    0x0000000000027baa      0x2e4 ../ControlUnit_bsp/\libucosii_bsp.a(alt_alarm_start.o)
 .debug_info    0x0000000000027e8e       0x90 ../ControlUnit_bsp/\libucosii_bsp.a(alt_dcache_flush_all.o)
 .debug_info    0x0000000000027f1e      0x1b9 ../ControlUnit_bsp/\libucosii_bsp.a(alt_dev_llist_insert.o)
 .debug_info    0x00000000000280d7       0x8d ../ControlUnit_bsp/\libucosii_bsp.a(alt_do_ctors.o)
 .debug_info    0x0000000000028164       0x8d ../ControlUnit_bsp/\libucosii_bsp.a(alt_do_dtors.o)
 .debug_info    0x00000000000281f1       0x83 ../ControlUnit_bsp/\libucosii_bsp.a(alt_exception_entry.o)
 .debug_info    0x0000000000028274       0x90 ../ControlUnit_bsp/\libucosii_bsp.a(alt_icache_flush_all.o)
 .debug_info    0x0000000000028304      0x528 ../ControlUnit_bsp/\libucosii_bsp.a(alt_io_redirect.o)
 .debug_info    0x000000000002882c      0x41d ../ControlUnit_bsp/\libucosii_bsp.a(alt_open.o)
 .debug_info    0x0000000000028c49      0x2bf ../ControlUnit_bsp/\libucosii_bsp.a(alt_tick.o)
 .debug_info    0x0000000000028f08       0x90 ../ControlUnit_bsp/\libucosii_bsp.a(altera_nios2_qsys_irq.o)
 .debug_info    0x0000000000028f98       0x7c ../ControlUnit_bsp/\libucosii_bsp.a(os_cpu_a.o)
 .debug_info    0x0000000000029014      0xe03 ../ControlUnit_bsp/\libucosii_bsp.a(os_cpu_c.o)
 .debug_info    0x0000000000029e17      0x345 ../ControlUnit_bsp/\libucosii_bsp.a(alt_find_dev.o)
 .debug_info    0x000000000002a15c      0x344 ../ControlUnit_bsp/\libucosii_bsp.a(alt_find_file.o)
 .debug_info    0x000000000002a4a0      0x486 ../ControlUnit_bsp/\libucosii_bsp.a(alt_get_fd.o)
 .debug_info    0x000000000002a926      0x1e6 c:/altera/14.0/nios2eds/bin/gnu/h-x86_64-mingw32/bin/../lib/gcc/nios2-elf/4.7.3/../../../../../H-x86_64-mingw32/nios2-elf/lib/mno-hw-mul\libc.a(lib_a-atexit.o)
 .debug_info    0x000000000002ab0c      0x993 c:/altera/14.0/nios2eds/bin/gnu/h-x86_64-mingw32/bin/../lib/gcc/nios2-elf/4.7.3/../../../../../H-x86_64-mingw32/nios2-elf/lib/mno-hw-mul\libc.a(lib_a-exit.o)
 .debug_info    0x000000000002b49f      0x117 c:/altera/14.0/nios2eds/bin/gnu/h-x86_64-mingw32/bin/../lib/gcc/nios2-elf/4.7.3/../../../../../H-x86_64-mingw32/nios2-elf/lib/mno-hw-mul\libc.a(lib_a-memcmp.o)
 .debug_info    0x000000000002b5b6      0x9f9 c:/altera/14.0/nios2eds/bin/gnu/h-x86_64-mingw32/bin/../lib/gcc/nios2-elf/4.7.3/../../../../../H-x86_64-mingw32/nios2-elf/lib/mno-hw-mul\libc.a(lib_a-__atexit.o)
 .debug_info    0x000000000002bfaf      0xa07 c:/altera/14.0/nios2eds/bin/gnu/h-x86_64-mingw32/bin/../lib/gcc/nios2-elf/4.7.3/../../../../../H-x86_64-mingw32/nios2-elf/lib/mno-hw-mul\libc.a(lib_a-__call_atexit.o)
 .debug_info    0x000000000002c9b6      0x141 ../ControlUnit_bsp/\libucosii_bsp.a(alt_exit.o)

.debug_abbrev   0x0000000000000000     0xa9f2
 *(.debug_abbrev)
 .debug_abbrev  0x0000000000000000       0x12 ../ControlUnit_bsp//obj/HAL/src/crt0.o
 .debug_abbrev  0x0000000000000012      0x149 obj/default/main.o
 .debug_abbrev  0x000000000000015b      0x113 obj/default/switchesIRQhandler.o
 .debug_abbrev  0x000000000000026e      0x209 c:/altera/14.0/nios2eds/bin/gnu/h-x86_64-mingw32/bin/../lib/gcc/nios2-elf/4.7.3/../../../../../H-x86_64-mingw32/nios2-elf/lib/mno-hw-mul\libc.a(lib_a-printf.o)
 .debug_abbrev  0x0000000000000477      0x208 c:/altera/14.0/nios2eds/bin/gnu/h-x86_64-mingw32/bin/../lib/gcc/nios2-elf/4.7.3/../../../../../H-x86_64-mingw32/nios2-elf/lib/mno-hw-mul\libc.a(lib_a-puts.o)
 .debug_abbrev  0x000000000000067f       0x90 c:/altera/14.0/nios2eds/bin/gnu/h-x86_64-mingw32/bin/../lib/gcc/nios2-elf/4.7.3/../../../../../H-x86_64-mingw32/nios2-elf/lib/mno-hw-mul\libc.a(lib_a-strlen.o)
 .debug_abbrev  0x000000000000070f      0x3d9 c:/altera/14.0/nios2eds/bin/gnu/h-x86_64-mingw32/bin/../lib/gcc/nios2-elf/4.7.3/../../../../../H-x86_64-mingw32/nios2-elf/lib/mno-hw-mul\libc.a(lib_a-vfprintf.o)
 .debug_abbrev  0x0000000000000ae8      0x1d5 c:/altera/14.0/nios2eds/bin/gnu/h-x86_64-mingw32/bin/../lib/gcc/nios2-elf/4.7.3/../../../../../H-x86_64-mingw32/nios2-elf/lib/mno-hw-mul\libc.a(lib_a-wsetup.o)
 .debug_abbrev  0x0000000000000cbd      0x2ab c:/altera/14.0/nios2eds/bin/gnu/h-x86_64-mingw32/bin/../lib/gcc/nios2-elf/4.7.3/../../../../../H-x86_64-mingw32/nios2-elf/lib/mno-hw-mul\libc.a(lib_a-dtoa.o)
 .debug_abbrev  0x0000000000000f68      0x259 c:/altera/14.0/nios2eds/bin/gnu/h-x86_64-mingw32/bin/../lib/gcc/nios2-elf/4.7.3/../../../../../H-x86_64-mingw32/nios2-elf/lib/mno-hw-mul\libc.a(lib_a-fflush.o)
 .debug_abbrev  0x00000000000011c1      0x333 c:/altera/14.0/nios2eds/bin/gnu/h-x86_64-mingw32/bin/../lib/gcc/nios2-elf/4.7.3/../../../../../H-x86_64-mingw32/nios2-elf/lib/mno-hw-mul\libc.a(lib_a-findfp.o)
 .debug_abbrev  0x00000000000014f4      0x25d c:/altera/14.0/nios2eds/bin/gnu/h-x86_64-mingw32/bin/../lib/gcc/nios2-elf/4.7.3/../../../../../H-x86_64-mingw32/nios2-elf/lib/mno-hw-mul\libc.a(lib_a-freer.o)
 .debug_abbrev  0x0000000000001751      0x234 c:/altera/14.0/nios2eds/bin/gnu/h-x86_64-mingw32/bin/../lib/gcc/nios2-elf/4.7.3/../../../../../H-x86_64-mingw32/nios2-elf/lib/mno-hw-mul\libc.a(lib_a-fvwrite.o)
 .debug_abbrev  0x0000000000001985      0x224 c:/altera/14.0/nios2eds/bin/gnu/h-x86_64-mingw32/bin/../lib/gcc/nios2-elf/4.7.3/../../../../../H-x86_64-mingw32/nios2-elf/lib/mno-hw-mul\libc.a(lib_a-fwalk.o)
 .debug_abbrev  0x0000000000001ba9      0x162 c:/altera/14.0/nios2eds/bin/gnu/h-x86_64-mingw32/bin/../lib/gcc/nios2-elf/4.7.3/../../../../../H-x86_64-mingw32/nios2-elf/lib/mno-hw-mul\libc.a(lib_a-impure.o)
 .debug_abbrev  0x0000000000001d0b      0x29f c:/altera/14.0/nios2eds/bin/gnu/h-x86_64-mingw32/bin/../lib/gcc/nios2-elf/4.7.3/../../../../../H-x86_64-mingw32/nios2-elf/lib/mno-hw-mul\libc.a(lib_a-locale.o)
 .debug_abbrev  0x0000000000001faa      0x1e8 c:/altera/14.0/nios2eds/bin/gnu/h-x86_64-mingw32/bin/../lib/gcc/nios2-elf/4.7.3/../../../../../H-x86_64-mingw32/nios2-elf/lib/mno-hw-mul\libc.a(lib_a-makebuf.o)
 .debug_abbrev  0x0000000000002192      0x284 c:/altera/14.0/nios2eds/bin/gnu/h-x86_64-mingw32/bin/../lib/gcc/nios2-elf/4.7.3/../../../../../H-x86_64-mingw32/nios2-elf/lib/mno-hw-mul\libc.a(lib_a-mallocr.o)
 .debug_abbrev  0x0000000000002416       0xab c:/altera/14.0/nios2eds/bin/gnu/h-x86_64-mingw32/bin/../lib/gcc/nios2-elf/4.7.3/../../../../../H-x86_64-mingw32/nios2-elf/lib/mno-hw-mul\libc.a(lib_a-memchr.o)
 .debug_abbrev  0x00000000000024c1       0x9c c:/altera/14.0/nios2eds/bin/gnu/h-x86_64-mingw32/bin/../lib/gcc/nios2-elf/4.7.3/../../../../../H-x86_64-mingw32/nios2-elf/lib/mno-hw-mul\libc.a(lib_a-memcpy.o)
 .debug_abbrev  0x000000000000255d       0x9c c:/altera/14.0/nios2eds/bin/gnu/h-x86_64-mingw32/bin/../lib/gcc/nios2-elf/4.7.3/../../../../../H-x86_64-mingw32/nios2-elf/lib/mno-hw-mul\libc.a(lib_a-memmove.o)
 .debug_abbrev  0x00000000000025f9       0xac c:/altera/14.0/nios2eds/bin/gnu/h-x86_64-mingw32/bin/../lib/gcc/nios2-elf/4.7.3/../../../../../H-x86_64-mingw32/nios2-elf/lib/mno-hw-mul\libc.a(lib_a-memset.o)
 .debug_abbrev  0x00000000000026a5      0x394 c:/altera/14.0/nios2eds/bin/gnu/h-x86_64-mingw32/bin/../lib/gcc/nios2-elf/4.7.3/../../../../../H-x86_64-mingw32/nios2-elf/lib/mno-hw-mul\libc.a(lib_a-mprec.o)
 .debug_abbrev  0x0000000000002a39      0x242 c:/altera/14.0/nios2eds/bin/gnu/h-x86_64-mingw32/bin/../lib/gcc/nios2-elf/4.7.3/../../../../../H-x86_64-mingw32/nios2-elf/lib/mno-hw-mul\libc.a(lib_a-reallocr.o)
 .debug_abbrev  0x0000000000002c7b       0x6f c:/altera/14.0/nios2eds/bin/gnu/h-x86_64-mingw32/bin/../lib/gcc/nios2-elf/4.7.3/../../../../../H-x86_64-mingw32/nios2-elf/lib/mno-hw-mul\libc.a(lib_a-s_isinfd.o)
 .debug_abbrev  0x0000000000002cea       0x6f c:/altera/14.0/nios2eds/bin/gnu/h-x86_64-mingw32/bin/../lib/gcc/nios2-elf/4.7.3/../../../../../H-x86_64-mingw32/nios2-elf/lib/mno-hw-mul\libc.a(lib_a-s_isnand.o)
 .debug_abbrev  0x0000000000002d59      0x1df c:/altera/14.0/nios2eds/bin/gnu/h-x86_64-mingw32/bin/../lib/gcc/nios2-elf/4.7.3/../../../../../H-x86_64-mingw32/nios2-elf/lib/mno-hw-mul\libc.a(lib_a-sbrkr.o)
 .debug_abbrev  0x0000000000002f38      0x226 c:/altera/14.0/nios2eds/bin/gnu/h-x86_64-mingw32/bin/../lib/gcc/nios2-elf/4.7.3/../../../../../H-x86_64-mingw32/nios2-elf/lib/mno-hw-mul\libc.a(lib_a-stdio.o)
 .debug_abbrev  0x000000000000315e       0x74 c:/altera/14.0/nios2eds/bin/gnu/h-x86_64-mingw32/bin/../lib/gcc/nios2-elf/4.7.3/../../../../../H-x86_64-mingw32/nios2-elf/lib/mno-hw-mul\libc.a(lib_a-strcmp.o)
 .debug_abbrev  0x00000000000031d2      0x1c0 c:/altera/14.0/nios2eds/bin/gnu/h-x86_64-mingw32/bin/../lib/gcc/nios2-elf/4.7.3/../../../../../H-x86_64-mingw32/nios2-elf/lib/mno-hw-mul\libc.a(lib_a-writer.o)
 .debug_abbrev  0x0000000000003392      0x202 c:/altera/14.0/nios2eds/bin/gnu/h-x86_64-mingw32/bin/../lib/gcc/nios2-elf/4.7.3/../../../../../H-x86_64-mingw32/nios2-elf/lib/mno-hw-mul\libc.a(lib_a-callocr.o)
 .debug_abbrev  0x0000000000003594      0x1bb c:/altera/14.0/nios2eds/bin/gnu/h-x86_64-mingw32/bin/../lib/gcc/nios2-elf/4.7.3/../../../../../H-x86_64-mingw32/nios2-elf/lib/mno-hw-mul\libc.a(lib_a-closer.o)
 .debug_abbrev  0x000000000000374f      0x24e c:/altera/14.0/nios2eds/bin/gnu/h-x86_64-mingw32/bin/../lib/gcc/nios2-elf/4.7.3/../../../../../H-x86_64-mingw32/nios2-elf/lib/mno-hw-mul\libc.a(lib_a-fclose.o)
 .debug_abbrev  0x000000000000399d      0x1ca c:/altera/14.0/nios2eds/bin/gnu/h-x86_64-mingw32/bin/../lib/gcc/nios2-elf/4.7.3/../../../../../H-x86_64-mingw32/nios2-elf/lib/mno-hw-mul\libc.a(lib_a-fstatr.o)
 .debug_abbrev  0x0000000000003b67       0x37 c:/altera/14.0/nios2eds/bin/gnu/h-x86_64-mingw32/bin/../lib/gcc/nios2-elf/4.7.3/../../../../../H-x86_64-mingw32/nios2-elf/lib/mno-hw-mul\libc.a(lib_a-int_errno.o)
 .debug_abbrev  0x0000000000003b9e      0x1bb c:/altera/14.0/nios2eds/bin/gnu/h-x86_64-mingw32/bin/../lib/gcc/nios2-elf/4.7.3/../../../../../H-x86_64-mingw32/nios2-elf/lib/mno-hw-mul\libc.a(lib_a-isattyr.o)
 .debug_abbrev  0x0000000000003d59      0x1ca c:/altera/14.0/nios2eds/bin/gnu/h-x86_64-mingw32/bin/../lib/gcc/nios2-elf/4.7.3/../../../../../H-x86_64-mingw32/nios2-elf/lib/mno-hw-mul\libc.a(lib_a-lseekr.o)
 .debug_abbrev  0x0000000000003f23      0x1bb c:/altera/14.0/nios2eds/bin/gnu/h-x86_64-mingw32/bin/../lib/gcc/nios2-elf/4.7.3/../../../../../H-x86_64-mingw32/nios2-elf/lib/mno-hw-mul\libc.a(lib_a-readr.o)
 .debug_abbrev  0x00000000000040de      0x170 c:/altera/14.0/nios2eds/bin/gnu/h-x86_64-mingw32/bin/../lib/gcc/nios2-elf/4.7.3/mno-hw-mul\libgcc.a(_udivdi3.o)
 .debug_abbrev  0x000000000000424e      0x19c c:/altera/14.0/nios2eds/bin/gnu/h-x86_64-mingw32/bin/../lib/gcc/nios2-elf/4.7.3/mno-hw-mul\libgcc.a(_umoddi3.o)
 .debug_abbrev  0x00000000000043ea      0x22d c:/altera/14.0/nios2eds/bin/gnu/h-x86_64-mingw32/bin/../lib/gcc/nios2-elf/4.7.3/mno-hw-mul\libgcc.a(_addsub_df.o)
 .debug_abbrev  0x0000000000004617      0x240 c:/altera/14.0/nios2eds/bin/gnu/h-x86_64-mingw32/bin/../lib/gcc/nios2-elf/4.7.3/mno-hw-mul\libgcc.a(_mul_df.o)
 .debug_abbrev  0x0000000000004857      0x245 c:/altera/14.0/nios2eds/bin/gnu/h-x86_64-mingw32/bin/../lib/gcc/nios2-elf/4.7.3/mno-hw-mul\libgcc.a(_div_df.o)
 .debug_abbrev  0x0000000000004a9c      0x1a5 c:/altera/14.0/nios2eds/bin/gnu/h-x86_64-mingw32/bin/../lib/gcc/nios2-elf/4.7.3/mno-hw-mul\libgcc.a(_eq_df.o)
 .debug_abbrev  0x0000000000004c41      0x1a5 c:/altera/14.0/nios2eds/bin/gnu/h-x86_64-mingw32/bin/../lib/gcc/nios2-elf/4.7.3/mno-hw-mul\libgcc.a(_ne_df.o)
 .debug_abbrev  0x0000000000004de6      0x1a5 c:/altera/14.0/nios2eds/bin/gnu/h-x86_64-mingw32/bin/../lib/gcc/nios2-elf/4.7.3/mno-hw-mul\libgcc.a(_gt_df.o)
 .debug_abbrev  0x0000000000004f8b      0x1a5 c:/altera/14.0/nios2eds/bin/gnu/h-x86_64-mingw32/bin/../lib/gcc/nios2-elf/4.7.3/mno-hw-mul\libgcc.a(_ge_df.o)
 .debug_abbrev  0x0000000000005130      0x1a5 c:/altera/14.0/nios2eds/bin/gnu/h-x86_64-mingw32/bin/../lib/gcc/nios2-elf/4.7.3/mno-hw-mul\libgcc.a(_lt_df.o)
 .debug_abbrev  0x00000000000052d5      0x19c c:/altera/14.0/nios2eds/bin/gnu/h-x86_64-mingw32/bin/../lib/gcc/nios2-elf/4.7.3/mno-hw-mul\libgcc.a(_si_to_df.o)
 .debug_abbrev  0x0000000000005471      0x1ae c:/altera/14.0/nios2eds/bin/gnu/h-x86_64-mingw32/bin/../lib/gcc/nios2-elf/4.7.3/mno-hw-mul\libgcc.a(_df_to_si.o)
 .debug_abbrev  0x000000000000561f       0xb6 c:/altera/14.0/nios2eds/bin/gnu/h-x86_64-mingw32/bin/../lib/gcc/nios2-elf/4.7.3/mno-hw-mul\libgcc.a(_thenan_df.o)
 .debug_abbrev  0x00000000000056d5      0x1bf c:/altera/14.0/nios2eds/bin/gnu/h-x86_64-mingw32/bin/../lib/gcc/nios2-elf/4.7.3/mno-hw-mul\libgcc.a(_usi_to_df.o)
 .debug_abbrev  0x0000000000005894      0x112 c:/altera/14.0/nios2eds/bin/gnu/h-x86_64-mingw32/bin/../lib/gcc/nios2-elf/4.7.3/mno-hw-mul\libgcc.a(lib2-divmod.o)
 .debug_abbrev  0x00000000000059a6       0x6f c:/altera/14.0/nios2eds/bin/gnu/h-x86_64-mingw32/bin/../lib/gcc/nios2-elf/4.7.3/mno-hw-mul\libgcc.a(lib2-mul.o)
 .debug_abbrev  0x0000000000005a15       0xe0 c:/altera/14.0/nios2eds/bin/gnu/h-x86_64-mingw32/bin/../lib/gcc/nios2-elf/4.7.3/mno-hw-mul\libgcc.a(_muldi3.o)
 .debug_abbrev  0x0000000000005af5       0x5d c:/altera/14.0/nios2eds/bin/gnu/h-x86_64-mingw32/bin/../lib/gcc/nios2-elf/4.7.3/mno-hw-mul\libgcc.a(_clz.o)
 .debug_abbrev  0x0000000000005b52       0xbe c:/altera/14.0/nios2eds/bin/gnu/h-x86_64-mingw32/bin/../lib/gcc/nios2-elf/4.7.3/mno-hw-mul\libgcc.a(_clzsi2.o)
 .debug_abbrev  0x0000000000005c10      0x1b6 c:/altera/14.0/nios2eds/bin/gnu/h-x86_64-mingw32/bin/../lib/gcc/nios2-elf/4.7.3/mno-hw-mul\libgcc.a(_pack_df.o)
 .debug_abbrev  0x0000000000005dc6      0x15d c:/altera/14.0/nios2eds/bin/gnu/h-x86_64-mingw32/bin/../lib/gcc/nios2-elf/4.7.3/mno-hw-mul\libgcc.a(_unpack_df.o)
 .debug_abbrev  0x0000000000005f23      0x146 c:/altera/14.0/nios2eds/bin/gnu/h-x86_64-mingw32/bin/../lib/gcc/nios2-elf/4.7.3/mno-hw-mul\libgcc.a(_fpcmp_parts_df.o)
 .debug_abbrev  0x0000000000006069       0xf1 c:/altera/14.0/nios2eds/bin/gnu/h-x86_64-mingw32/bin/../lib/gcc/nios2-elf/4.7.3/mno-hw-mul\libgcc.a(_lshrdi3.o)
 .debug_abbrev  0x000000000000615a       0xf1 c:/altera/14.0/nios2eds/bin/gnu/h-x86_64-mingw32/bin/../lib/gcc/nios2-elf/4.7.3/mno-hw-mul\libgcc.a(_ashldi3.o)
 .debug_abbrev  0x000000000000624b      0x126 ../ControlUnit_bsp/\libucosii_bsp.a(alt_close.o)
 .debug_abbrev  0x0000000000006371      0x11c ../ControlUnit_bsp/\libucosii_bsp.a(alt_dev.o)
 .debug_abbrev  0x000000000000648d       0x5a ../ControlUnit_bsp/\libucosii_bsp.a(alt_errno.o)
 .debug_abbrev  0x00000000000064e7      0x126 ../ControlUnit_bsp/\libucosii_bsp.a(alt_fstat.o)
 .debug_abbrev  0x000000000000660d      0x16a ../ControlUnit_bsp/\libucosii_bsp.a(alt_iic.o)
 .debug_abbrev  0x0000000000006777      0x169 ../ControlUnit_bsp/\libucosii_bsp.a(alt_iic_isr_register.o)
 .debug_abbrev  0x00000000000068e0       0x12 ../ControlUnit_bsp/\libucosii_bsp.a(alt_irq_entry.o)
 .debug_abbrev  0x00000000000068f2      0x13c ../ControlUnit_bsp/\libucosii_bsp.a(alt_irq_handler.o)
 .debug_abbrev  0x0000000000006a2e       0x40 ../ControlUnit_bsp/\libucosii_bsp.a(alt_irq_vars.o)
 .debug_abbrev  0x0000000000006a6e      0x126 ../ControlUnit_bsp/\libucosii_bsp.a(alt_isatty.o)
 .debug_abbrev  0x0000000000006b94       0x9f ../ControlUnit_bsp/\libucosii_bsp.a(alt_load.o)
 .debug_abbrev  0x0000000000006c33      0x126 ../ControlUnit_bsp/\libucosii_bsp.a(alt_lseek.o)
 .debug_abbrev  0x0000000000006d59      0x139 ../ControlUnit_bsp/\libucosii_bsp.a(alt_main.o)
 .debug_abbrev  0x0000000000006e92      0x135 ../ControlUnit_bsp/\libucosii_bsp.a(alt_read.o)
 .debug_abbrev  0x0000000000006fc7       0xe5 ../ControlUnit_bsp/\libucosii_bsp.a(alt_release_fd.o)
 .debug_abbrev  0x00000000000070ac      0x112 ../ControlUnit_bsp/\libucosii_bsp.a(alt_sbrk.o)
 .debug_abbrev  0x00000000000071be      0x13a ../ControlUnit_bsp/\libucosii_bsp.a(alt_write.o)
 .debug_abbrev  0x00000000000072f8      0x1b6 ../ControlUnit_bsp/\libucosii_bsp.a(alt_env_lock.o)
 .debug_abbrev  0x00000000000074ae      0x240 ../ControlUnit_bsp/\libucosii_bsp.a(alt_malloc_lock.o)
 .debug_abbrev  0x00000000000076ee      0x302 ../ControlUnit_bsp/\libucosii_bsp.a(os_core.o)
 .debug_abbrev  0x00000000000079f0       0xf7 ../ControlUnit_bsp/\libucosii_bsp.a(os_dbg.o)
 .debug_abbrev  0x0000000000007ae7      0x25a ../ControlUnit_bsp/\libucosii_bsp.a(os_flag.o)
 .debug_abbrev  0x0000000000007d41      0x228 ../ControlUnit_bsp/\libucosii_bsp.a(os_mem.o)
 .debug_abbrev  0x0000000000007f69      0x248 ../ControlUnit_bsp/\libucosii_bsp.a(os_q.o)
 .debug_abbrev  0x00000000000081b1      0x262 ../ControlUnit_bsp/\libucosii_bsp.a(os_sem.o)
 .debug_abbrev  0x0000000000008413      0x247 ../ControlUnit_bsp/\libucosii_bsp.a(os_task.o)
 .debug_abbrev  0x000000000000865a      0x20c ../ControlUnit_bsp/\libucosii_bsp.a(os_time.o)
 .debug_abbrev  0x0000000000008866      0x1bb ../ControlUnit_bsp/\libucosii_bsp.a(alt_sys_init.o)
 .debug_abbrev  0x0000000000008a21      0x15d ../ControlUnit_bsp/\libucosii_bsp.a(altera_avalon_jtag_uart_fd.o)
 .debug_abbrev  0x0000000000008b7e      0x240 ../ControlUnit_bsp/\libucosii_bsp.a(altera_avalon_jtag_uart_init.o)
 .debug_abbrev  0x0000000000008dbe      0x147 ../ControlUnit_bsp/\libucosii_bsp.a(altera_avalon_jtag_uart_ioctl.o)
 .debug_abbrev  0x0000000000008f05      0x1e9 ../ControlUnit_bsp/\libucosii_bsp.a(altera_avalon_jtag_uart_read.o)
 .debug_abbrev  0x00000000000090ee      0x1e7 ../ControlUnit_bsp/\libucosii_bsp.a(altera_avalon_jtag_uart_write.o)
 .debug_abbrev  0x00000000000092d5      0x155 ../ControlUnit_bsp/\libucosii_bsp.a(altera_avalon_timer_sc.o)
 .debug_abbrev  0x000000000000942a      0x162 ../ControlUnit_bsp/\libucosii_bsp.a(alt_alarm_start.o)
 .debug_abbrev  0x000000000000958c       0x42 ../ControlUnit_bsp/\libucosii_bsp.a(alt_dcache_flush_all.o)
 .debug_abbrev  0x00000000000095ce      0x114 ../ControlUnit_bsp/\libucosii_bsp.a(alt_dev_llist_insert.o)
 .debug_abbrev  0x00000000000096e2       0x79 ../ControlUnit_bsp/\libucosii_bsp.a(alt_do_ctors.o)
 .debug_abbrev  0x000000000000975b       0x79 ../ControlUnit_bsp/\libucosii_bsp.a(alt_do_dtors.o)
 .debug_abbrev  0x00000000000097d4       0x12 ../ControlUnit_bsp/\libucosii_bsp.a(alt_exception_entry.o)
 .debug_abbrev  0x00000000000097e6       0x42 ../ControlUnit_bsp/\libucosii_bsp.a(alt_icache_flush_all.o)
 .debug_abbrev  0x0000000000009828      0x11b ../ControlUnit_bsp/\libucosii_bsp.a(alt_io_redirect.o)
 .debug_abbrev  0x0000000000009943      0x14f ../ControlUnit_bsp/\libucosii_bsp.a(alt_open.o)
 .debug_abbrev  0x0000000000009a92      0x15a ../ControlUnit_bsp/\libucosii_bsp.a(alt_tick.o)
 .debug_abbrev  0x0000000000009bec       0x42 ../ControlUnit_bsp/\libucosii_bsp.a(altera_nios2_qsys_irq.o)
 .debug_abbrev  0x0000000000009c2e       0x14 ../ControlUnit_bsp/\libucosii_bsp.a(os_cpu_a.o)
 .debug_abbrev  0x0000000000009c42      0x1e8 ../ControlUnit_bsp/\libucosii_bsp.a(os_cpu_c.o)
 .debug_abbrev  0x0000000000009e2a       0xf7 ../ControlUnit_bsp/\libucosii_bsp.a(alt_find_dev.o)
 .debug_abbrev  0x0000000000009f21       0xf7 ../ControlUnit_bsp/\libucosii_bsp.a(alt_find_file.o)
 .debug_abbrev  0x000000000000a018      0x19b ../ControlUnit_bsp/\libucosii_bsp.a(alt_get_fd.o)
 .debug_abbrev  0x000000000000a1b3      0x106 c:/altera/14.0/nios2eds/bin/gnu/h-x86_64-mingw32/bin/../lib/gcc/nios2-elf/4.7.3/../../../../../H-x86_64-mingw32/nios2-elf/lib/mno-hw-mul\libc.a(lib_a-atexit.o)
 .debug_abbrev  0x000000000000a2b9      0x1c8 c:/altera/14.0/nios2eds/bin/gnu/h-x86_64-mingw32/bin/../lib/gcc/nios2-elf/4.7.3/../../../../../H-x86_64-mingw32/nios2-elf/lib/mno-hw-mul\libc.a(lib_a-exit.o)
 .debug_abbrev  0x000000000000a481       0x7f c:/altera/14.0/nios2eds/bin/gnu/h-x86_64-mingw32/bin/../lib/gcc/nios2-elf/4.7.3/../../../../../H-x86_64-mingw32/nios2-elf/lib/mno-hw-mul\libc.a(lib_a-memcmp.o)
 .debug_abbrev  0x000000000000a500      0x211 c:/altera/14.0/nios2eds/bin/gnu/h-x86_64-mingw32/bin/../lib/gcc/nios2-elf/4.7.3/../../../../../H-x86_64-mingw32/nios2-elf/lib/mno-hw-mul\libc.a(lib_a-__atexit.o)
 .debug_abbrev  0x000000000000a711      0x203 c:/altera/14.0/nios2eds/bin/gnu/h-x86_64-mingw32/bin/../lib/gcc/nios2-elf/4.7.3/../../../../../H-x86_64-mingw32/nios2-elf/lib/mno-hw-mul\libc.a(lib_a-__call_atexit.o)
 .debug_abbrev  0x000000000000a914       0xde ../ControlUnit_bsp/\libucosii_bsp.a(alt_exit.o)

.debug_line     0x0000000000000000     0xc8ba
 *(.debug_line)
 .debug_line    0x0000000000000000       0x66 ../ControlUnit_bsp//obj/HAL/src/crt0.o
 .debug_line    0x0000000000000066      0x1bf obj/default/main.o
 .debug_line    0x0000000000000225      0x194 obj/default/switchesIRQhandler.o
 .debug_line    0x00000000000003b9      0x217 c:/altera/14.0/nios2eds/bin/gnu/h-x86_64-mingw32/bin/../lib/gcc/nios2-elf/4.7.3/../../../../../H-x86_64-mingw32/nios2-elf/lib/mno-hw-mul\libc.a(lib_a-printf.o)
 .debug_line    0x00000000000005d0      0x234 c:/altera/14.0/nios2eds/bin/gnu/h-x86_64-mingw32/bin/../lib/gcc/nios2-elf/4.7.3/../../../../../H-x86_64-mingw32/nios2-elf/lib/mno-hw-mul\libc.a(lib_a-puts.o)
 .debug_line    0x0000000000000804      0x183 c:/altera/14.0/nios2eds/bin/gnu/h-x86_64-mingw32/bin/../lib/gcc/nios2-elf/4.7.3/../../../../../H-x86_64-mingw32/nios2-elf/lib/mno-hw-mul\libc.a(lib_a-strlen.o)
 .debug_line    0x0000000000000987      0xb00 c:/altera/14.0/nios2eds/bin/gnu/h-x86_64-mingw32/bin/../lib/gcc/nios2-elf/4.7.3/../../../../../H-x86_64-mingw32/nios2-elf/lib/mno-hw-mul\libc.a(lib_a-vfprintf.o)
 .debug_line    0x0000000000001487      0x26a c:/altera/14.0/nios2eds/bin/gnu/h-x86_64-mingw32/bin/../lib/gcc/nios2-elf/4.7.3/../../../../../H-x86_64-mingw32/nios2-elf/lib/mno-hw-mul\libc.a(lib_a-wsetup.o)
 .debug_line    0x00000000000016f1      0x88d c:/altera/14.0/nios2eds/bin/gnu/h-x86_64-mingw32/bin/../lib/gcc/nios2-elf/4.7.3/../../../../../H-x86_64-mingw32/nios2-elf/lib/mno-hw-mul\libc.a(lib_a-dtoa.o)
 .debug_line    0x0000000000001f7e      0x29b c:/altera/14.0/nios2eds/bin/gnu/h-x86_64-mingw32/bin/../lib/gcc/nios2-elf/4.7.3/../../../../../H-x86_64-mingw32/nios2-elf/lib/mno-hw-mul\libc.a(lib_a-fflush.o)
 .debug_line    0x0000000000002219      0x2e6 c:/altera/14.0/nios2eds/bin/gnu/h-x86_64-mingw32/bin/../lib/gcc/nios2-elf/4.7.3/../../../../../H-x86_64-mingw32/nios2-elf/lib/mno-hw-mul\libc.a(lib_a-findfp.o)
 .debug_line    0x00000000000024ff      0x310 c:/altera/14.0/nios2eds/bin/gnu/h-x86_64-mingw32/bin/../lib/gcc/nios2-elf/4.7.3/../../../../../H-x86_64-mingw32/nios2-elf/lib/mno-hw-mul\libc.a(lib_a-freer.o)
 .debug_line    0x000000000000280f      0x35f c:/altera/14.0/nios2eds/bin/gnu/h-x86_64-mingw32/bin/../lib/gcc/nios2-elf/4.7.3/../../../../../H-x86_64-mingw32/nios2-elf/lib/mno-hw-mul\libc.a(lib_a-fvwrite.o)
 .debug_line    0x0000000000002b6e      0x258 c:/altera/14.0/nios2eds/bin/gnu/h-x86_64-mingw32/bin/../lib/gcc/nios2-elf/4.7.3/../../../../../H-x86_64-mingw32/nios2-elf/lib/mno-hw-mul\libc.a(lib_a-fwalk.o)
 .debug_line    0x0000000000002dc6      0x174 c:/altera/14.0/nios2eds/bin/gnu/h-x86_64-mingw32/bin/../lib/gcc/nios2-elf/4.7.3/../../../../../H-x86_64-mingw32/nios2-elf/lib/mno-hw-mul\libc.a(lib_a-impure.o)
 .debug_line    0x0000000000002f3a      0x230 c:/altera/14.0/nios2eds/bin/gnu/h-x86_64-mingw32/bin/../lib/gcc/nios2-elf/4.7.3/../../../../../H-x86_64-mingw32/nios2-elf/lib/mno-hw-mul\libc.a(lib_a-locale.o)
 .debug_line    0x000000000000316a      0x292 c:/altera/14.0/nios2eds/bin/gnu/h-x86_64-mingw32/bin/../lib/gcc/nios2-elf/4.7.3/../../../../../H-x86_64-mingw32/nios2-elf/lib/mno-hw-mul\libc.a(lib_a-makebuf.o)
 .debug_line    0x00000000000033fc      0x420 c:/altera/14.0/nios2eds/bin/gnu/h-x86_64-mingw32/bin/../lib/gcc/nios2-elf/4.7.3/../../../../../H-x86_64-mingw32/nios2-elf/lib/mno-hw-mul\libc.a(lib_a-mallocr.o)
 .debug_line    0x000000000000381c      0x1f2 c:/altera/14.0/nios2eds/bin/gnu/h-x86_64-mingw32/bin/../lib/gcc/nios2-elf/4.7.3/../../../../../H-x86_64-mingw32/nios2-elf/lib/mno-hw-mul\libc.a(lib_a-memchr.o)
 .debug_line    0x0000000000003a0e      0x144 c:/altera/14.0/nios2eds/bin/gnu/h-x86_64-mingw32/bin/../lib/gcc/nios2-elf/4.7.3/../../../../../H-x86_64-mingw32/nios2-elf/lib/mno-hw-mul\libc.a(lib_a-memcpy.o)
 .debug_line    0x0000000000003b52      0x1f7 c:/altera/14.0/nios2eds/bin/gnu/h-x86_64-mingw32/bin/../lib/gcc/nios2-elf/4.7.3/../../../../../H-x86_64-mingw32/nios2-elf/lib/mno-hw-mul\libc.a(lib_a-memmove.o)
 .debug_line    0x0000000000003d49      0x1f2 c:/altera/14.0/nios2eds/bin/gnu/h-x86_64-mingw32/bin/../lib/gcc/nios2-elf/4.7.3/../../../../../H-x86_64-mingw32/nios2-elf/lib/mno-hw-mul\libc.a(lib_a-memset.o)
 .debug_line    0x0000000000003f3b      0x70d c:/altera/14.0/nios2eds/bin/gnu/h-x86_64-mingw32/bin/../lib/gcc/nios2-elf/4.7.3/../../../../../H-x86_64-mingw32/nios2-elf/lib/mno-hw-mul\libc.a(lib_a-mprec.o)
 .debug_line    0x0000000000004648      0x331 c:/altera/14.0/nios2eds/bin/gnu/h-x86_64-mingw32/bin/../lib/gcc/nios2-elf/4.7.3/../../../../../H-x86_64-mingw32/nios2-elf/lib/mno-hw-mul\libc.a(lib_a-reallocr.o)
 .debug_line    0x0000000000004979      0x16f c:/altera/14.0/nios2eds/bin/gnu/h-x86_64-mingw32/bin/../lib/gcc/nios2-elf/4.7.3/../../../../../H-x86_64-mingw32/nios2-elf/lib/mno-hw-mul\libc.a(lib_a-s_isinfd.o)
 .debug_line    0x0000000000004ae8      0x16f c:/altera/14.0/nios2eds/bin/gnu/h-x86_64-mingw32/bin/../lib/gcc/nios2-elf/4.7.3/../../../../../H-x86_64-mingw32/nios2-elf/lib/mno-hw-mul\libc.a(lib_a-s_isnand.o)
 .debug_line    0x0000000000004c57      0x211 c:/altera/14.0/nios2eds/bin/gnu/h-x86_64-mingw32/bin/../lib/gcc/nios2-elf/4.7.3/../../../../../H-x86_64-mingw32/nios2-elf/lib/mno-hw-mul\libc.a(lib_a-sbrkr.o)
 .debug_line    0x0000000000004e68      0x244 c:/altera/14.0/nios2eds/bin/gnu/h-x86_64-mingw32/bin/../lib/gcc/nios2-elf/4.7.3/../../../../../H-x86_64-mingw32/nios2-elf/lib/mno-hw-mul\libc.a(lib_a-stdio.o)
 .debug_line    0x00000000000050ac      0x111 c:/altera/14.0/nios2eds/bin/gnu/h-x86_64-mingw32/bin/../lib/gcc/nios2-elf/4.7.3/../../../../../H-x86_64-mingw32/nios2-elf/lib/mno-hw-mul\libc.a(lib_a-strcmp.o)
 .debug_line    0x00000000000051bd      0x212 c:/altera/14.0/nios2eds/bin/gnu/h-x86_64-mingw32/bin/../lib/gcc/nios2-elf/4.7.3/../../../../../H-x86_64-mingw32/nios2-elf/lib/mno-hw-mul\libc.a(lib_a-writer.o)
 .debug_line    0x00000000000053cf      0x1c7 c:/altera/14.0/nios2eds/bin/gnu/h-x86_64-mingw32/bin/../lib/gcc/nios2-elf/4.7.3/../../../../../H-x86_64-mingw32/nios2-elf/lib/mno-hw-mul\libc.a(lib_a-callocr.o)
 .debug_line    0x0000000000005596      0x212 c:/altera/14.0/nios2eds/bin/gnu/h-x86_64-mingw32/bin/../lib/gcc/nios2-elf/4.7.3/../../../../../H-x86_64-mingw32/nios2-elf/lib/mno-hw-mul\libc.a(lib_a-closer.o)
 .debug_line    0x00000000000057a8      0x265 c:/altera/14.0/nios2eds/bin/gnu/h-x86_64-mingw32/bin/../lib/gcc/nios2-elf/4.7.3/../../../../../H-x86_64-mingw32/nios2-elf/lib/mno-hw-mul\libc.a(lib_a-fclose.o)
 .debug_line    0x0000000000005a0d      0x21b c:/altera/14.0/nios2eds/bin/gnu/h-x86_64-mingw32/bin/../lib/gcc/nios2-elf/4.7.3/../../../../../H-x86_64-mingw32/nios2-elf/lib/mno-hw-mul\libc.a(lib_a-fstatr.o)
 .debug_line    0x0000000000005c28       0x60 c:/altera/14.0/nios2eds/bin/gnu/h-x86_64-mingw32/bin/../lib/gcc/nios2-elf/4.7.3/../../../../../H-x86_64-mingw32/nios2-elf/lib/mno-hw-mul\libc.a(lib_a-int_errno.o)
 .debug_line    0x0000000000005c88      0x213 c:/altera/14.0/nios2eds/bin/gnu/h-x86_64-mingw32/bin/../lib/gcc/nios2-elf/4.7.3/../../../../../H-x86_64-mingw32/nios2-elf/lib/mno-hw-mul\libc.a(lib_a-isattyr.o)
 .debug_line    0x0000000000005e9b      0x21d c:/altera/14.0/nios2eds/bin/gnu/h-x86_64-mingw32/bin/../lib/gcc/nios2-elf/4.7.3/../../../../../H-x86_64-mingw32/nios2-elf/lib/mno-hw-mul\libc.a(lib_a-lseekr.o)
 .debug_line    0x00000000000060b8      0x211 c:/altera/14.0/nios2eds/bin/gnu/h-x86_64-mingw32/bin/../lib/gcc/nios2-elf/4.7.3/../../../../../H-x86_64-mingw32/nios2-elf/lib/mno-hw-mul\libc.a(lib_a-readr.o)
 .debug_line    0x00000000000062c9      0x11c c:/altera/14.0/nios2eds/bin/gnu/h-x86_64-mingw32/bin/../lib/gcc/nios2-elf/4.7.3/mno-hw-mul\libgcc.a(_udivdi3.o)
 .debug_line    0x00000000000063e5      0x124 c:/altera/14.0/nios2eds/bin/gnu/h-x86_64-mingw32/bin/../lib/gcc/nios2-elf/4.7.3/mno-hw-mul\libgcc.a(_umoddi3.o)
 .debug_line    0x0000000000006509      0x134 c:/altera/14.0/nios2eds/bin/gnu/h-x86_64-mingw32/bin/../lib/gcc/nios2-elf/4.7.3/mno-hw-mul\libgcc.a(_addsub_df.o)
 .debug_line    0x000000000000663d      0x117 c:/altera/14.0/nios2eds/bin/gnu/h-x86_64-mingw32/bin/../lib/gcc/nios2-elf/4.7.3/mno-hw-mul\libgcc.a(_mul_df.o)
 .debug_line    0x0000000000006754       0xd1 c:/altera/14.0/nios2eds/bin/gnu/h-x86_64-mingw32/bin/../lib/gcc/nios2-elf/4.7.3/mno-hw-mul\libgcc.a(_div_df.o)
 .debug_line    0x0000000000006825       0x70 c:/altera/14.0/nios2eds/bin/gnu/h-x86_64-mingw32/bin/../lib/gcc/nios2-elf/4.7.3/mno-hw-mul\libgcc.a(_eq_df.o)
 .debug_line    0x0000000000006895       0x70 c:/altera/14.0/nios2eds/bin/gnu/h-x86_64-mingw32/bin/../lib/gcc/nios2-elf/4.7.3/mno-hw-mul\libgcc.a(_ne_df.o)
 .debug_line    0x0000000000006905       0x71 c:/altera/14.0/nios2eds/bin/gnu/h-x86_64-mingw32/bin/../lib/gcc/nios2-elf/4.7.3/mno-hw-mul\libgcc.a(_gt_df.o)
 .debug_line    0x0000000000006976       0x71 c:/altera/14.0/nios2eds/bin/gnu/h-x86_64-mingw32/bin/../lib/gcc/nios2-elf/4.7.3/mno-hw-mul\libgcc.a(_ge_df.o)
 .debug_line    0x00000000000069e7       0x70 c:/altera/14.0/nios2eds/bin/gnu/h-x86_64-mingw32/bin/../lib/gcc/nios2-elf/4.7.3/mno-hw-mul\libgcc.a(_lt_df.o)
 .debug_line    0x0000000000006a57       0x97 c:/altera/14.0/nios2eds/bin/gnu/h-x86_64-mingw32/bin/../lib/gcc/nios2-elf/4.7.3/mno-hw-mul\libgcc.a(_si_to_df.o)
 .debug_line    0x0000000000006aee       0x90 c:/altera/14.0/nios2eds/bin/gnu/h-x86_64-mingw32/bin/../lib/gcc/nios2-elf/4.7.3/mno-hw-mul\libgcc.a(_df_to_si.o)
 .debug_line    0x0000000000006b7e       0x54 c:/altera/14.0/nios2eds/bin/gnu/h-x86_64-mingw32/bin/../lib/gcc/nios2-elf/4.7.3/mno-hw-mul\libgcc.a(_thenan_df.o)
 .debug_line    0x0000000000006bd2       0xa1 c:/altera/14.0/nios2eds/bin/gnu/h-x86_64-mingw32/bin/../lib/gcc/nios2-elf/4.7.3/mno-hw-mul\libgcc.a(_usi_to_df.o)
 .debug_line    0x0000000000006c73       0xd6 c:/altera/14.0/nios2eds/bin/gnu/h-x86_64-mingw32/bin/../lib/gcc/nios2-elf/4.7.3/mno-hw-mul\libgcc.a(lib2-divmod.o)
 .debug_line    0x0000000000006d49       0x80 c:/altera/14.0/nios2eds/bin/gnu/h-x86_64-mingw32/bin/../lib/gcc/nios2-elf/4.7.3/mno-hw-mul\libgcc.a(lib2-mul.o)
 .debug_line    0x0000000000006dc9       0xa2 c:/altera/14.0/nios2eds/bin/gnu/h-x86_64-mingw32/bin/../lib/gcc/nios2-elf/4.7.3/mno-hw-mul\libgcc.a(_muldi3.o)
 .debug_line    0x0000000000006e6b       0x56 c:/altera/14.0/nios2eds/bin/gnu/h-x86_64-mingw32/bin/../lib/gcc/nios2-elf/4.7.3/mno-hw-mul\libgcc.a(_clz.o)
 .debug_line    0x0000000000006ec1       0x8f c:/altera/14.0/nios2eds/bin/gnu/h-x86_64-mingw32/bin/../lib/gcc/nios2-elf/4.7.3/mno-hw-mul\libgcc.a(_clzsi2.o)
 .debug_line    0x0000000000006f50       0xca c:/altera/14.0/nios2eds/bin/gnu/h-x86_64-mingw32/bin/../lib/gcc/nios2-elf/4.7.3/mno-hw-mul\libgcc.a(_pack_df.o)
 .debug_line    0x000000000000701a       0xa5 c:/altera/14.0/nios2eds/bin/gnu/h-x86_64-mingw32/bin/../lib/gcc/nios2-elf/4.7.3/mno-hw-mul\libgcc.a(_unpack_df.o)
 .debug_line    0x00000000000070bf       0x99 c:/altera/14.0/nios2eds/bin/gnu/h-x86_64-mingw32/bin/../lib/gcc/nios2-elf/4.7.3/mno-hw-mul\libgcc.a(_fpcmp_parts_df.o)
 .debug_line    0x0000000000007158       0x7a c:/altera/14.0/nios2eds/bin/gnu/h-x86_64-mingw32/bin/../lib/gcc/nios2-elf/4.7.3/mno-hw-mul\libgcc.a(_lshrdi3.o)
 .debug_line    0x00000000000071d2       0x78 c:/altera/14.0/nios2eds/bin/gnu/h-x86_64-mingw32/bin/../lib/gcc/nios2-elf/4.7.3/mno-hw-mul\libgcc.a(_ashldi3.o)
 .debug_line    0x000000000000724a      0x197 ../ControlUnit_bsp/\libucosii_bsp.a(alt_close.o)
 .debug_line    0x00000000000073e1      0x15f ../ControlUnit_bsp/\libucosii_bsp.a(alt_dev.o)
 .debug_line    0x0000000000007540       0x51 ../ControlUnit_bsp/\libucosii_bsp.a(alt_errno.o)
 .debug_line    0x0000000000007591      0x191 ../ControlUnit_bsp/\libucosii_bsp.a(alt_fstat.o)
 .debug_line    0x0000000000007722       0xed ../ControlUnit_bsp/\libucosii_bsp.a(alt_iic.o)
 .debug_line    0x000000000000780f       0xdb ../ControlUnit_bsp/\libucosii_bsp.a(alt_iic_isr_register.o)
 .debug_line    0x00000000000078ea       0x6b ../ControlUnit_bsp/\libucosii_bsp.a(alt_irq_entry.o)
 .debug_line    0x0000000000007955       0xcc ../ControlUnit_bsp/\libucosii_bsp.a(alt_irq_handler.o)
 .debug_line    0x0000000000007a21       0x50 ../ControlUnit_bsp/\libucosii_bsp.a(alt_irq_vars.o)
 .debug_line    0x0000000000007a71      0x191 ../ControlUnit_bsp/\libucosii_bsp.a(alt_isatty.o)
 .debug_line    0x0000000000007c02       0x92 ../ControlUnit_bsp/\libucosii_bsp.a(alt_load.o)
 .debug_line    0x0000000000007c94      0x195 ../ControlUnit_bsp/\libucosii_bsp.a(alt_lseek.o)
 .debug_line    0x0000000000007e29      0x130 ../ControlUnit_bsp/\libucosii_bsp.a(alt_main.o)
 .debug_line    0x0000000000007f59      0x20c ../ControlUnit_bsp/\libucosii_bsp.a(alt_read.o)
 .debug_line    0x0000000000008165       0xbf ../ControlUnit_bsp/\libucosii_bsp.a(alt_release_fd.o)
 .debug_line    0x0000000000008224      0x116 ../ControlUnit_bsp/\libucosii_bsp.a(alt_sbrk.o)
 .debug_line    0x000000000000833a      0x20b ../ControlUnit_bsp/\libucosii_bsp.a(alt_write.o)
 .debug_line    0x0000000000008545      0x1c2 ../ControlUnit_bsp/\libucosii_bsp.a(alt_env_lock.o)
 .debug_line    0x0000000000008707      0x227 ../ControlUnit_bsp/\libucosii_bsp.a(alt_malloc_lock.o)
 .debug_line    0x000000000000892e      0x6ac ../ControlUnit_bsp/\libucosii_bsp.a(os_core.o)
 .debug_line    0x0000000000008fda       0xd2 ../ControlUnit_bsp/\libucosii_bsp.a(os_dbg.o)
 .debug_line    0x00000000000090ac      0x519 ../ControlUnit_bsp/\libucosii_bsp.a(os_flag.o)
 .debug_line    0x00000000000095c5      0x243 ../ControlUnit_bsp/\libucosii_bsp.a(os_mem.o)
 .debug_line    0x0000000000009808      0x424 ../ControlUnit_bsp/\libucosii_bsp.a(os_q.o)
 .debug_line    0x0000000000009c2c      0x2fc ../ControlUnit_bsp/\libucosii_bsp.a(os_sem.o)
 .debug_line    0x0000000000009f28      0x558 ../ControlUnit_bsp/\libucosii_bsp.a(os_task.o)
 .debug_line    0x000000000000a480      0x1b3 ../ControlUnit_bsp/\libucosii_bsp.a(os_time.o)
 .debug_line    0x000000000000a633      0x178 ../ControlUnit_bsp/\libucosii_bsp.a(alt_sys_init.o)
 .debug_line    0x000000000000a7ab      0x157 ../ControlUnit_bsp/\libucosii_bsp.a(altera_avalon_jtag_uart_fd.o)
 .debug_line    0x000000000000a902      0x23c ../ControlUnit_bsp/\libucosii_bsp.a(altera_avalon_jtag_uart_init.o)
 .debug_line    0x000000000000ab3e      0x14f ../ControlUnit_bsp/\libucosii_bsp.a(altera_avalon_jtag_uart_ioctl.o)
 .debug_line    0x000000000000ac8d      0x1e0 ../ControlUnit_bsp/\libucosii_bsp.a(altera_avalon_jtag_uart_read.o)
 .debug_line    0x000000000000ae6d      0x1e1 ../ControlUnit_bsp/\libucosii_bsp.a(altera_avalon_jtag_uart_write.o)
 .debug_line    0x000000000000b04e       0xfd ../ControlUnit_bsp/\libucosii_bsp.a(altera_avalon_timer_sc.o)
 .debug_line    0x000000000000b14b       0xfa ../ControlUnit_bsp/\libucosii_bsp.a(alt_alarm_start.o)
 .debug_line    0x000000000000b245       0x51 ../ControlUnit_bsp/\libucosii_bsp.a(alt_dcache_flush_all.o)
 .debug_line    0x000000000000b296       0xd0 ../ControlUnit_bsp/\libucosii_bsp.a(alt_dev_llist_insert.o)
 .debug_line    0x000000000000b366       0x59 ../ControlUnit_bsp/\libucosii_bsp.a(alt_do_ctors.o)
 .debug_line    0x000000000000b3bf       0x59 ../ControlUnit_bsp/\libucosii_bsp.a(alt_do_dtors.o)
 .debug_line    0x000000000000b418       0xab ../ControlUnit_bsp/\libucosii_bsp.a(alt_exception_entry.o)
 .debug_line    0x000000000000b4c3       0x4f ../ControlUnit_bsp/\libucosii_bsp.a(alt_icache_flush_all.o)
 .debug_line    0x000000000000b512      0x167 ../ControlUnit_bsp/\libucosii_bsp.a(alt_io_redirect.o)
 .debug_line    0x000000000000b679      0x137 ../ControlUnit_bsp/\libucosii_bsp.a(alt_open.o)
 .debug_line    0x000000000000b7b0      0x102 ../ControlUnit_bsp/\libucosii_bsp.a(alt_tick.o)
 .debug_line    0x000000000000b8b2       0x51 ../ControlUnit_bsp/\libucosii_bsp.a(altera_nios2_qsys_irq.o)
 .debug_line    0x000000000000b903       0x86 ../ControlUnit_bsp/\libucosii_bsp.a(os_cpu_a.o)
 .debug_line    0x000000000000b989      0x1cb ../ControlUnit_bsp/\libucosii_bsp.a(os_cpu_c.o)
 .debug_line    0x000000000000bb54       0xc8 ../ControlUnit_bsp/\libucosii_bsp.a(alt_find_dev.o)
 .debug_line    0x000000000000bc1c       0xe4 ../ControlUnit_bsp/\libucosii_bsp.a(alt_find_file.o)
 .debug_line    0x000000000000bd00      0x127 ../ControlUnit_bsp/\libucosii_bsp.a(alt_get_fd.o)
 .debug_line    0x000000000000be27      0x16c c:/altera/14.0/nios2eds/bin/gnu/h-x86_64-mingw32/bin/../lib/gcc/nios2-elf/4.7.3/../../../../../H-x86_64-mingw32/nios2-elf/lib/mno-hw-mul\libc.a(lib_a-atexit.o)
 .debug_line    0x000000000000bf93      0x218 c:/altera/14.0/nios2eds/bin/gnu/h-x86_64-mingw32/bin/../lib/gcc/nios2-elf/4.7.3/../../../../../H-x86_64-mingw32/nios2-elf/lib/mno-hw-mul\libc.a(lib_a-exit.o)
 .debug_line    0x000000000000c1ab      0x18e c:/altera/14.0/nios2eds/bin/gnu/h-x86_64-mingw32/bin/../lib/gcc/nios2-elf/4.7.3/../../../../../H-x86_64-mingw32/nios2-elf/lib/mno-hw-mul\libc.a(lib_a-memcmp.o)
 .debug_line    0x000000000000c339      0x24f c:/altera/14.0/nios2eds/bin/gnu/h-x86_64-mingw32/bin/../lib/gcc/nios2-elf/4.7.3/../../../../../H-x86_64-mingw32/nios2-elf/lib/mno-hw-mul\libc.a(lib_a-__atexit.o)
 .debug_line    0x000000000000c588      0x263 c:/altera/14.0/nios2eds/bin/gnu/h-x86_64-mingw32/bin/../lib/gcc/nios2-elf/4.7.3/../../../../../H-x86_64-mingw32/nios2-elf/lib/mno-hw-mul\libc.a(lib_a-__call_atexit.o)
 .debug_line    0x000000000000c7eb       0xcf ../ControlUnit_bsp/\libucosii_bsp.a(alt_exit.o)

.debug_frame    0x0000000000000000     0x24d8
 *(.debug_frame)
 .debug_frame   0x0000000000000000       0xb8 obj/default/main.o
 .debug_frame   0x00000000000000b8       0x64 obj/default/switchesIRQhandler.o
 .debug_frame   0x000000000000011c       0x40 c:/altera/14.0/nios2eds/bin/gnu/h-x86_64-mingw32/bin/../lib/gcc/nios2-elf/4.7.3/../../../../../H-x86_64-mingw32/nios2-elf/lib/mno-hw-mul\libc.a(lib_a-printf.o)
 .debug_frame   0x000000000000015c       0x3c c:/altera/14.0/nios2eds/bin/gnu/h-x86_64-mingw32/bin/../lib/gcc/nios2-elf/4.7.3/../../../../../H-x86_64-mingw32/nios2-elf/lib/mno-hw-mul\libc.a(lib_a-puts.o)
 .debug_frame   0x0000000000000198       0x20 c:/altera/14.0/nios2eds/bin/gnu/h-x86_64-mingw32/bin/../lib/gcc/nios2-elf/4.7.3/../../../../../H-x86_64-mingw32/nios2-elf/lib/mno-hw-mul\libc.a(lib_a-strlen.o)
 .debug_frame   0x00000000000001b8       0x64 c:/altera/14.0/nios2eds/bin/gnu/h-x86_64-mingw32/bin/../lib/gcc/nios2-elf/4.7.3/../../../../../H-x86_64-mingw32/nios2-elf/lib/mno-hw-mul\libc.a(lib_a-vfprintf.o)
 .debug_frame   0x000000000000021c       0x2c c:/altera/14.0/nios2eds/bin/gnu/h-x86_64-mingw32/bin/../lib/gcc/nios2-elf/4.7.3/../../../../../H-x86_64-mingw32/nios2-elf/lib/mno-hw-mul\libc.a(lib_a-wsetup.o)
 .debug_frame   0x0000000000000248       0x68 c:/altera/14.0/nios2eds/bin/gnu/h-x86_64-mingw32/bin/../lib/gcc/nios2-elf/4.7.3/../../../../../H-x86_64-mingw32/nios2-elf/lib/mno-hw-mul\libc.a(lib_a-dtoa.o)
 .debug_frame   0x00000000000002b0       0x40 c:/altera/14.0/nios2eds/bin/gnu/h-x86_64-mingw32/bin/../lib/gcc/nios2-elf/4.7.3/../../../../../H-x86_64-mingw32/nios2-elf/lib/mno-hw-mul\libc.a(lib_a-fflush.o)
 .debug_frame   0x00000000000002f0      0x100 c:/altera/14.0/nios2eds/bin/gnu/h-x86_64-mingw32/bin/../lib/gcc/nios2-elf/4.7.3/../../../../../H-x86_64-mingw32/nios2-elf/lib/mno-hw-mul\libc.a(lib_a-findfp.o)
 .debug_frame   0x00000000000003f0       0x4c c:/altera/14.0/nios2eds/bin/gnu/h-x86_64-mingw32/bin/../lib/gcc/nios2-elf/4.7.3/../../../../../H-x86_64-mingw32/nios2-elf/lib/mno-hw-mul\libc.a(lib_a-freer.o)
 .debug_frame   0x000000000000043c       0x38 c:/altera/14.0/nios2eds/bin/gnu/h-x86_64-mingw32/bin/../lib/gcc/nios2-elf/4.7.3/../../../../../H-x86_64-mingw32/nios2-elf/lib/mno-hw-mul\libc.a(lib_a-fvwrite.o)
 .debug_frame   0x0000000000000474       0x5c c:/altera/14.0/nios2eds/bin/gnu/h-x86_64-mingw32/bin/../lib/gcc/nios2-elf/4.7.3/../../../../../H-x86_64-mingw32/nios2-elf/lib/mno-hw-mul\libc.a(lib_a-fwalk.o)
 .debug_frame   0x00000000000004d0       0x6c c:/altera/14.0/nios2eds/bin/gnu/h-x86_64-mingw32/bin/../lib/gcc/nios2-elf/4.7.3/../../../../../H-x86_64-mingw32/nios2-elf/lib/mno-hw-mul\libc.a(lib_a-locale.o)
 .debug_frame   0x000000000000053c       0x2c c:/altera/14.0/nios2eds/bin/gnu/h-x86_64-mingw32/bin/../lib/gcc/nios2-elf/4.7.3/../../../../../H-x86_64-mingw32/nios2-elf/lib/mno-hw-mul\libc.a(lib_a-makebuf.o)
 .debug_frame   0x0000000000000568       0x38 c:/altera/14.0/nios2eds/bin/gnu/h-x86_64-mingw32/bin/../lib/gcc/nios2-elf/4.7.3/../../../../../H-x86_64-mingw32/nios2-elf/lib/mno-hw-mul\libc.a(lib_a-mallocr.o)
 .debug_frame   0x00000000000005a0       0x20 c:/altera/14.0/nios2eds/bin/gnu/h-x86_64-mingw32/bin/../lib/gcc/nios2-elf/4.7.3/../../../../../H-x86_64-mingw32/nios2-elf/lib/mno-hw-mul\libc.a(lib_a-memchr.o)
 .debug_frame   0x00000000000005c0       0x30 c:/altera/14.0/nios2eds/bin/gnu/h-x86_64-mingw32/bin/../lib/gcc/nios2-elf/4.7.3/../../../../../H-x86_64-mingw32/nios2-elf/lib/mno-hw-mul\libc.a(lib_a-memcpy.o)
 .debug_frame   0x00000000000005f0       0x30 c:/altera/14.0/nios2eds/bin/gnu/h-x86_64-mingw32/bin/../lib/gcc/nios2-elf/4.7.3/../../../../../H-x86_64-mingw32/nios2-elf/lib/mno-hw-mul\libc.a(lib_a-memmove.o)
 .debug_frame   0x0000000000000620       0x20 c:/altera/14.0/nios2eds/bin/gnu/h-x86_64-mingw32/bin/../lib/gcc/nios2-elf/4.7.3/../../../../../H-x86_64-mingw32/nios2-elf/lib/mno-hw-mul\libc.a(lib_a-memset.o)
 .debug_frame   0x0000000000000640      0x218 c:/altera/14.0/nios2eds/bin/gnu/h-x86_64-mingw32/bin/../lib/gcc/nios2-elf/4.7.3/../../../../../H-x86_64-mingw32/nios2-elf/lib/mno-hw-mul\libc.a(lib_a-mprec.o)
 .debug_frame   0x0000000000000858       0x38 c:/altera/14.0/nios2eds/bin/gnu/h-x86_64-mingw32/bin/../lib/gcc/nios2-elf/4.7.3/../../../../../H-x86_64-mingw32/nios2-elf/lib/mno-hw-mul\libc.a(lib_a-reallocr.o)
 .debug_frame   0x0000000000000890       0x20 c:/altera/14.0/nios2eds/bin/gnu/h-x86_64-mingw32/bin/../lib/gcc/nios2-elf/4.7.3/../../../../../H-x86_64-mingw32/nios2-elf/lib/mno-hw-mul\libc.a(lib_a-s_isinfd.o)
 .debug_frame   0x00000000000008b0       0x20 c:/altera/14.0/nios2eds/bin/gnu/h-x86_64-mingw32/bin/../lib/gcc/nios2-elf/4.7.3/../../../../../H-x86_64-mingw32/nios2-elf/lib/mno-hw-mul\libc.a(lib_a-s_isnand.o)
 .debug_frame   0x00000000000008d0       0x2c c:/altera/14.0/nios2eds/bin/gnu/h-x86_64-mingw32/bin/../lib/gcc/nios2-elf/4.7.3/../../../../../H-x86_64-mingw32/nios2-elf/lib/mno-hw-mul\libc.a(lib_a-sbrkr.o)
 .debug_frame   0x00000000000008fc       0x78 c:/altera/14.0/nios2eds/bin/gnu/h-x86_64-mingw32/bin/../lib/gcc/nios2-elf/4.7.3/../../../../../H-x86_64-mingw32/nios2-elf/lib/mno-hw-mul\libc.a(lib_a-stdio.o)
 .debug_frame   0x0000000000000974       0x20 c:/altera/14.0/nios2eds/bin/gnu/h-x86_64-mingw32/bin/../lib/gcc/nios2-elf/4.7.3/../../../../../H-x86_64-mingw32/nios2-elf/lib/mno-hw-mul\libc.a(lib_a-strcmp.o)
 .debug_frame   0x0000000000000994       0x2c c:/altera/14.0/nios2eds/bin/gnu/h-x86_64-mingw32/bin/../lib/gcc/nios2-elf/4.7.3/../../../../../H-x86_64-mingw32/nios2-elf/lib/mno-hw-mul\libc.a(lib_a-writer.o)
 .debug_frame   0x00000000000009c0       0x2c c:/altera/14.0/nios2eds/bin/gnu/h-x86_64-mingw32/bin/../lib/gcc/nios2-elf/4.7.3/../../../../../H-x86_64-mingw32/nios2-elf/lib/mno-hw-mul\libc.a(lib_a-callocr.o)
 .debug_frame   0x00000000000009ec       0x2c c:/altera/14.0/nios2eds/bin/gnu/h-x86_64-mingw32/bin/../lib/gcc/nios2-elf/4.7.3/../../../../../H-x86_64-mingw32/nios2-elf/lib/mno-hw-mul\libc.a(lib_a-closer.o)
 .debug_frame   0x0000000000000a18       0x3c c:/altera/14.0/nios2eds/bin/gnu/h-x86_64-mingw32/bin/../lib/gcc/nios2-elf/4.7.3/../../../../../H-x86_64-mingw32/nios2-elf/lib/mno-hw-mul\libc.a(lib_a-fclose.o)
 .debug_frame   0x0000000000000a54       0x2c c:/altera/14.0/nios2eds/bin/gnu/h-x86_64-mingw32/bin/../lib/gcc/nios2-elf/4.7.3/../../../../../H-x86_64-mingw32/nios2-elf/lib/mno-hw-mul\libc.a(lib_a-fstatr.o)
 .debug_frame   0x0000000000000a80       0x2c c:/altera/14.0/nios2eds/bin/gnu/h-x86_64-mingw32/bin/../lib/gcc/nios2-elf/4.7.3/../../../../../H-x86_64-mingw32/nios2-elf/lib/mno-hw-mul\libc.a(lib_a-isattyr.o)
 .debug_frame   0x0000000000000aac       0x2c c:/altera/14.0/nios2eds/bin/gnu/h-x86_64-mingw32/bin/../lib/gcc/nios2-elf/4.7.3/../../../../../H-x86_64-mingw32/nios2-elf/lib/mno-hw-mul\libc.a(lib_a-lseekr.o)
 .debug_frame   0x0000000000000ad8       0x2c c:/altera/14.0/nios2eds/bin/gnu/h-x86_64-mingw32/bin/../lib/gcc/nios2-elf/4.7.3/../../../../../H-x86_64-mingw32/nios2-elf/lib/mno-hw-mul\libc.a(lib_a-readr.o)
 .debug_frame   0x0000000000000b04       0x38 c:/altera/14.0/nios2eds/bin/gnu/h-x86_64-mingw32/bin/../lib/gcc/nios2-elf/4.7.3/mno-hw-mul\libgcc.a(_udivdi3.o)
 .debug_frame   0x0000000000000b3c       0x38 c:/altera/14.0/nios2eds/bin/gnu/h-x86_64-mingw32/bin/../lib/gcc/nios2-elf/4.7.3/mno-hw-mul\libgcc.a(_umoddi3.o)
 .debug_frame   0x0000000000000b74       0x50 c:/altera/14.0/nios2eds/bin/gnu/h-x86_64-mingw32/bin/../lib/gcc/nios2-elf/4.7.3/mno-hw-mul\libgcc.a(_addsub_df.o)
 .debug_frame   0x0000000000000bc4       0x38 c:/altera/14.0/nios2eds/bin/gnu/h-x86_64-mingw32/bin/../lib/gcc/nios2-elf/4.7.3/mno-hw-mul\libgcc.a(_mul_df.o)
 .debug_frame   0x0000000000000bfc       0x28 c:/altera/14.0/nios2eds/bin/gnu/h-x86_64-mingw32/bin/../lib/gcc/nios2-elf/4.7.3/mno-hw-mul\libgcc.a(_div_df.o)
 .debug_frame   0x0000000000000c24       0x28 c:/altera/14.0/nios2eds/bin/gnu/h-x86_64-mingw32/bin/../lib/gcc/nios2-elf/4.7.3/mno-hw-mul\libgcc.a(_eq_df.o)
 .debug_frame   0x0000000000000c4c       0x28 c:/altera/14.0/nios2eds/bin/gnu/h-x86_64-mingw32/bin/../lib/gcc/nios2-elf/4.7.3/mno-hw-mul\libgcc.a(_ne_df.o)
 .debug_frame   0x0000000000000c74       0x28 c:/altera/14.0/nios2eds/bin/gnu/h-x86_64-mingw32/bin/../lib/gcc/nios2-elf/4.7.3/mno-hw-mul\libgcc.a(_gt_df.o)
 .debug_frame   0x0000000000000c9c       0x28 c:/altera/14.0/nios2eds/bin/gnu/h-x86_64-mingw32/bin/../lib/gcc/nios2-elf/4.7.3/mno-hw-mul\libgcc.a(_ge_df.o)
 .debug_frame   0x0000000000000cc4       0x28 c:/altera/14.0/nios2eds/bin/gnu/h-x86_64-mingw32/bin/../lib/gcc/nios2-elf/4.7.3/mno-hw-mul\libgcc.a(_lt_df.o)
 .debug_frame   0x0000000000000cec       0x28 c:/altera/14.0/nios2eds/bin/gnu/h-x86_64-mingw32/bin/../lib/gcc/nios2-elf/4.7.3/mno-hw-mul\libgcc.a(_si_to_df.o)
 .debug_frame   0x0000000000000d14       0x28 c:/altera/14.0/nios2eds/bin/gnu/h-x86_64-mingw32/bin/../lib/gcc/nios2-elf/4.7.3/mno-hw-mul\libgcc.a(_df_to_si.o)
 .debug_frame   0x0000000000000d3c       0x28 c:/altera/14.0/nios2eds/bin/gnu/h-x86_64-mingw32/bin/../lib/gcc/nios2-elf/4.7.3/mno-hw-mul\libgcc.a(_usi_to_df.o)
 .debug_frame   0x0000000000000d64       0x70 c:/altera/14.0/nios2eds/bin/gnu/h-x86_64-mingw32/bin/../lib/gcc/nios2-elf/4.7.3/mno-hw-mul\libgcc.a(lib2-divmod.o)
 .debug_frame   0x0000000000000dd4       0x20 c:/altera/14.0/nios2eds/bin/gnu/h-x86_64-mingw32/bin/../lib/gcc/nios2-elf/4.7.3/mno-hw-mul\libgcc.a(lib2-mul.o)
 .debug_frame   0x0000000000000df4       0x3c c:/altera/14.0/nios2eds/bin/gnu/h-x86_64-mingw32/bin/../lib/gcc/nios2-elf/4.7.3/mno-hw-mul\libgcc.a(_muldi3.o)
 .debug_frame   0x0000000000000e30       0x20 c:/altera/14.0/nios2eds/bin/gnu/h-x86_64-mingw32/bin/../lib/gcc/nios2-elf/4.7.3/mno-hw-mul\libgcc.a(_clzsi2.o)
 .debug_frame   0x0000000000000e50       0x34 c:/altera/14.0/nios2eds/bin/gnu/h-x86_64-mingw32/bin/../lib/gcc/nios2-elf/4.7.3/mno-hw-mul\libgcc.a(_pack_df.o)
 .debug_frame   0x0000000000000e84       0x20 c:/altera/14.0/nios2eds/bin/gnu/h-x86_64-mingw32/bin/../lib/gcc/nios2-elf/4.7.3/mno-hw-mul\libgcc.a(_unpack_df.o)
 .debug_frame   0x0000000000000ea4       0x20 c:/altera/14.0/nios2eds/bin/gnu/h-x86_64-mingw32/bin/../lib/gcc/nios2-elf/4.7.3/mno-hw-mul\libgcc.a(_fpcmp_parts_df.o)
 .debug_frame   0x0000000000000ec4       0x20 c:/altera/14.0/nios2eds/bin/gnu/h-x86_64-mingw32/bin/../lib/gcc/nios2-elf/4.7.3/mno-hw-mul\libgcc.a(_lshrdi3.o)
 .debug_frame   0x0000000000000ee4       0x20 c:/altera/14.0/nios2eds/bin/gnu/h-x86_64-mingw32/bin/../lib/gcc/nios2-elf/4.7.3/mno-hw-mul\libgcc.a(_ashldi3.o)
 .debug_frame   0x0000000000000f04       0x48 ../ControlUnit_bsp/\libucosii_bsp.a(alt_close.o)
 .debug_frame   0x0000000000000f4c       0x2c ../ControlUnit_bsp/\libucosii_bsp.a(alt_dev.o)
 .debug_frame   0x0000000000000f78       0x48 ../ControlUnit_bsp/\libucosii_bsp.a(alt_fstat.o)
 .debug_frame   0x0000000000000fc0       0x80 ../ControlUnit_bsp/\libucosii_bsp.a(alt_iic.o)
 .debug_frame   0x0000000000001040       0x2c ../ControlUnit_bsp/\libucosii_bsp.a(alt_iic_isr_register.o)
 .debug_frame   0x000000000000106c       0x2c ../ControlUnit_bsp/\libucosii_bsp.a(alt_irq_handler.o)
 .debug_frame   0x0000000000001098       0x48 ../ControlUnit_bsp/\libucosii_bsp.a(alt_isatty.o)
 .debug_frame   0x00000000000010e0       0x48 ../ControlUnit_bsp/\libucosii_bsp.a(alt_load.o)
 .debug_frame   0x0000000000001128       0x48 ../ControlUnit_bsp/\libucosii_bsp.a(alt_lseek.o)
 .debug_frame   0x0000000000001170       0x2c ../ControlUnit_bsp/\libucosii_bsp.a(alt_main.o)
 .debug_frame   0x000000000000119c       0x48 ../ControlUnit_bsp/\libucosii_bsp.a(alt_read.o)
 .debug_frame   0x00000000000011e4       0x30 ../ControlUnit_bsp/\libucosii_bsp.a(alt_release_fd.o)
 .debug_frame   0x0000000000001214       0x2c ../ControlUnit_bsp/\libucosii_bsp.a(alt_sbrk.o)
 .debug_frame   0x0000000000001240       0x48 ../ControlUnit_bsp/\libucosii_bsp.a(alt_write.o)
 .debug_frame   0x0000000000001288       0x4c ../ControlUnit_bsp/\libucosii_bsp.a(alt_env_lock.o)
 .debug_frame   0x00000000000012d4       0x4c ../ControlUnit_bsp/\libucosii_bsp.a(alt_malloc_lock.o)
 .debug_frame   0x0000000000001320      0x3e4 ../ControlUnit_bsp/\libucosii_bsp.a(os_core.o)
 .debug_frame   0x0000000000001704       0x2c ../ControlUnit_bsp/\libucosii_bsp.a(os_dbg.o)
 .debug_frame   0x0000000000001730      0x17c ../ControlUnit_bsp/\libucosii_bsp.a(os_flag.o)
 .debug_frame   0x00000000000018ac       0xd4 ../ControlUnit_bsp/\libucosii_bsp.a(os_mem.o)
 .debug_frame   0x0000000000001980      0x144 ../ControlUnit_bsp/\libucosii_bsp.a(os_q.o)
 .debug_frame   0x0000000000001ac4       0xf0 ../ControlUnit_bsp/\libucosii_bsp.a(os_sem.o)
 .debug_frame   0x0000000000001bb4      0x160 ../ControlUnit_bsp/\libucosii_bsp.a(os_task.o)
 .debug_frame   0x0000000000001d14       0xa0 ../ControlUnit_bsp/\libucosii_bsp.a(os_time.o)
 .debug_frame   0x0000000000001db4       0x64 ../ControlUnit_bsp/\libucosii_bsp.a(alt_sys_init.o)
 .debug_frame   0x0000000000001e18       0x80 ../ControlUnit_bsp/\libucosii_bsp.a(altera_avalon_jtag_uart_fd.o)
 .debug_frame   0x0000000000001e98       0x80 ../ControlUnit_bsp/\libucosii_bsp.a(altera_avalon_jtag_uart_init.o)
 .debug_frame   0x0000000000001f18       0x2c ../ControlUnit_bsp/\libucosii_bsp.a(altera_avalon_jtag_uart_ioctl.o)
 .debug_frame   0x0000000000001f44       0x2c ../ControlUnit_bsp/\libucosii_bsp.a(altera_avalon_jtag_uart_read.o)
 .debug_frame   0x0000000000001f70       0x2c ../ControlUnit_bsp/\libucosii_bsp.a(altera_avalon_jtag_uart_write.o)
 .debug_frame   0x0000000000001f9c       0x48 ../ControlUnit_bsp/\libucosii_bsp.a(altera_avalon_timer_sc.o)
 .debug_frame   0x0000000000001fe4       0x2c ../ControlUnit_bsp/\libucosii_bsp.a(alt_alarm_start.o)
 .debug_frame   0x0000000000002010       0x2c ../ControlUnit_bsp/\libucosii_bsp.a(alt_dcache_flush_all.o)
 .debug_frame   0x000000000000203c       0x48 ../ControlUnit_bsp/\libucosii_bsp.a(alt_dev_llist_insert.o)
 .debug_frame   0x0000000000002084       0x2c ../ControlUnit_bsp/\libucosii_bsp.a(alt_do_ctors.o)
 .debug_frame   0x00000000000020b0       0x2c ../ControlUnit_bsp/\libucosii_bsp.a(alt_do_dtors.o)
 .debug_frame   0x00000000000020dc       0x2c ../ControlUnit_bsp/\libucosii_bsp.a(alt_icache_flush_all.o)
 .debug_frame   0x0000000000002108       0x4c ../ControlUnit_bsp/\libucosii_bsp.a(alt_io_redirect.o)
 .debug_frame   0x0000000000002154       0x68 ../ControlUnit_bsp/\libucosii_bsp.a(alt_open.o)
 .debug_frame   0x00000000000021bc       0x48 ../ControlUnit_bsp/\libucosii_bsp.a(alt_tick.o)
 .debug_frame   0x0000000000002204       0x2c ../ControlUnit_bsp/\libucosii_bsp.a(altera_nios2_qsys_irq.o)
 .debug_frame   0x0000000000002230      0x128 ../ControlUnit_bsp/\libucosii_bsp.a(os_cpu_c.o)
 .debug_frame   0x0000000000002358       0x2c ../ControlUnit_bsp/\libucosii_bsp.a(alt_find_dev.o)
 .debug_frame   0x0000000000002384       0x2c ../ControlUnit_bsp/\libucosii_bsp.a(alt_find_file.o)
 .debug_frame   0x00000000000023b0       0x30 ../ControlUnit_bsp/\libucosii_bsp.a(alt_get_fd.o)
 .debug_frame   0x00000000000023e0       0x20 c:/altera/14.0/nios2eds/bin/gnu/h-x86_64-mingw32/bin/../lib/gcc/nios2-elf/4.7.3/../../../../../H-x86_64-mingw32/nios2-elf/lib/mno-hw-mul\libc.a(lib_a-atexit.o)
 .debug_frame   0x0000000000002400       0x28 c:/altera/14.0/nios2eds/bin/gnu/h-x86_64-mingw32/bin/../lib/gcc/nios2-elf/4.7.3/../../../../../H-x86_64-mingw32/nios2-elf/lib/mno-hw-mul\libc.a(lib_a-exit.o)
 .debug_frame   0x0000000000002428       0x20 c:/altera/14.0/nios2eds/bin/gnu/h-x86_64-mingw32/bin/../lib/gcc/nios2-elf/4.7.3/../../../../../H-x86_64-mingw32/nios2-elf/lib/mno-hw-mul\libc.a(lib_a-memcmp.o)
 .debug_frame   0x0000000000002448       0x2c c:/altera/14.0/nios2eds/bin/gnu/h-x86_64-mingw32/bin/../lib/gcc/nios2-elf/4.7.3/../../../../../H-x86_64-mingw32/nios2-elf/lib/mno-hw-mul\libc.a(lib_a-__atexit.o)
 .debug_frame   0x0000000000002474       0x38 c:/altera/14.0/nios2eds/bin/gnu/h-x86_64-mingw32/bin/../lib/gcc/nios2-elf/4.7.3/../../../../../H-x86_64-mingw32/nios2-elf/lib/mno-hw-mul\libc.a(lib_a-__call_atexit.o)
 .debug_frame   0x00000000000024ac       0x2c ../ControlUnit_bsp/\libucosii_bsp.a(alt_exit.o)

.debug_str      0x0000000000000000     0x3f19
 *(.debug_str)
 .debug_str     0x0000000000000000      0x1e9 obj/default/main.o
                                        0x245 (size before relaxing)
 .debug_str     0x00000000000001e9       0x53 obj/default/switchesIRQhandler.o
                                        0x1f2 (size before relaxing)
 .debug_str     0x000000000000023c      0x456 c:/altera/14.0/nios2eds/bin/gnu/h-x86_64-mingw32/bin/../lib/gcc/nios2-elf/4.7.3/../../../../../H-x86_64-mingw32/nios2-elf/lib/mno-hw-mul\libc.a(lib_a-printf.o)
                                        0x57d (size before relaxing)
 .debug_str     0x0000000000000692       0x98 c:/altera/14.0/nios2eds/bin/gnu/h-x86_64-mingw32/bin/../lib/gcc/nios2-elf/4.7.3/../../../../../H-x86_64-mingw32/nios2-elf/lib/mno-hw-mul\libc.a(lib_a-puts.o)
                                        0x57a (size before relaxing)
 .debug_str     0x000000000000072a       0xe3 c:/altera/14.0/nios2eds/bin/gnu/h-x86_64-mingw32/bin/../lib/gcc/nios2-elf/4.7.3/../../../../../H-x86_64-mingw32/nios2-elf/lib/mno-hw-mul\libc.a(lib_a-strlen.o)
                                        0x195 (size before relaxing)
 .debug_str     0x000000000000080d      0x298 c:/altera/14.0/nios2eds/bin/gnu/h-x86_64-mingw32/bin/../lib/gcc/nios2-elf/4.7.3/../../../../../H-x86_64-mingw32/nios2-elf/lib/mno-hw-mul\libc.a(lib_a-vfprintf.o)
                                        0x894 (size before relaxing)
 .debug_str     0x0000000000000aa5       0x52 c:/altera/14.0/nios2eds/bin/gnu/h-x86_64-mingw32/bin/../lib/gcc/nios2-elf/4.7.3/../../../../../H-x86_64-mingw32/nios2-elf/lib/mno-hw-mul\libc.a(lib_a-wsetup.o)
                                        0x541 (size before relaxing)
 .debug_str     0x0000000000000af7      0x1f9 c:/altera/14.0/nios2eds/bin/gnu/h-x86_64-mingw32/bin/../lib/gcc/nios2-elf/4.7.3/../../../../../H-x86_64-mingw32/nios2-elf/lib/mno-hw-mul\libc.a(lib_a-dtoa.o)
                                        0x684 (size before relaxing)
 .debug_str     0x0000000000000cf0       0x5e c:/altera/14.0/nios2eds/bin/gnu/h-x86_64-mingw32/bin/../lib/gcc/nios2-elf/4.7.3/../../../../../H-x86_64-mingw32/nios2-elf/lib/mno-hw-mul\libc.a(lib_a-fflush.o)
                                        0x55f (size before relaxing)
 .debug_str     0x0000000000000d4e      0x10e c:/altera/14.0/nios2eds/bin/gnu/h-x86_64-mingw32/bin/../lib/gcc/nios2-elf/4.7.3/../../../../../H-x86_64-mingw32/nios2-elf/lib/mno-hw-mul\libc.a(lib_a-findfp.o)
                                        0x62b (size before relaxing)
 .debug_str     0x0000000000000e5c      0x186 c:/altera/14.0/nios2eds/bin/gnu/h-x86_64-mingw32/bin/../lib/gcc/nios2-elf/4.7.3/../../../../../H-x86_64-mingw32/nios2-elf/lib/mno-hw-mul\libc.a(lib_a-freer.o)
                                        0x68b (size before relaxing)
 .debug_str     0x0000000000000fe2       0x6f c:/altera/14.0/nios2eds/bin/gnu/h-x86_64-mingw32/bin/../lib/gcc/nios2-elf/4.7.3/../../../../../H-x86_64-mingw32/nios2-elf/lib/mno-hw-mul\libc.a(lib_a-fvwrite.o)
                                        0x5c4 (size before relaxing)
 .debug_str     0x0000000000001051       0x61 c:/altera/14.0/nios2eds/bin/gnu/h-x86_64-mingw32/bin/../lib/gcc/nios2-elf/4.7.3/../../../../../H-x86_64-mingw32/nios2-elf/lib/mno-hw-mul\libc.a(lib_a-fwalk.o)
                                        0x573 (size before relaxing)
 .debug_str     0x00000000000010b2       0xe0 c:/altera/14.0/nios2eds/bin/gnu/h-x86_64-mingw32/bin/../lib/gcc/nios2-elf/4.7.3/../../../../../H-x86_64-mingw32/nios2-elf/lib/mno-hw-mul\libc.a(lib_a-impure.o)
                                        0x532 (size before relaxing)
 .debug_str     0x0000000000001192      0x158 c:/altera/14.0/nios2eds/bin/gnu/h-x86_64-mingw32/bin/../lib/gcc/nios2-elf/4.7.3/../../../../../H-x86_64-mingw32/nios2-elf/lib/mno-hw-mul\libc.a(lib_a-locale.o)
                                        0x6c8 (size before relaxing)
 .debug_str     0x00000000000012ea      0x12c c:/altera/14.0/nios2eds/bin/gnu/h-x86_64-mingw32/bin/../lib/gcc/nios2-elf/4.7.3/../../../../../H-x86_64-mingw32/nios2-elf/lib/mno-hw-mul\libc.a(lib_a-makebuf.o)
                                        0x63b (size before relaxing)
 .debug_str     0x0000000000001416       0xe5 c:/altera/14.0/nios2eds/bin/gnu/h-x86_64-mingw32/bin/../lib/gcc/nios2-elf/4.7.3/../../../../../H-x86_64-mingw32/nios2-elf/lib/mno-hw-mul\libc.a(lib_a-mallocr.o)
                                        0x741 (size before relaxing)
 .debug_str     0x00000000000014fb       0x53 c:/altera/14.0/nios2eds/bin/gnu/h-x86_64-mingw32/bin/../lib/gcc/nios2-elf/4.7.3/../../../../../H-x86_64-mingw32/nios2-elf/lib/mno-hw-mul\libc.a(lib_a-memchr.o)
                                        0x1a3 (size before relaxing)
 .debug_str     0x000000000000154e       0x65 c:/altera/14.0/nios2eds/bin/gnu/h-x86_64-mingw32/bin/../lib/gcc/nios2-elf/4.7.3/../../../../../H-x86_64-mingw32/nios2-elf/lib/mno-hw-mul\libc.a(lib_a-memcpy.o)
                                        0x132 (size before relaxing)
 .debug_str     0x00000000000015b3       0x48 c:/altera/14.0/nios2eds/bin/gnu/h-x86_64-mingw32/bin/../lib/gcc/nios2-elf/4.7.3/../../../../../H-x86_64-mingw32/nios2-elf/lib/mno-hw-mul\libc.a(lib_a-memmove.o)
                                        0x1b5 (size before relaxing)
 .debug_str     0x00000000000015fb       0x3e c:/altera/14.0/nios2eds/bin/gnu/h-x86_64-mingw32/bin/../lib/gcc/nios2-elf/4.7.3/../../../../../H-x86_64-mingw32/nios2-elf/lib/mno-hw-mul\libc.a(lib_a-memset.o)
                                        0x196 (size before relaxing)
 .debug_str     0x0000000000001639       0xa8 c:/altera/14.0/nios2eds/bin/gnu/h-x86_64-mingw32/bin/../lib/gcc/nios2-elf/4.7.3/../../../../../H-x86_64-mingw32/nios2-elf/lib/mno-hw-mul\libc.a(lib_a-mprec.o)
                                        0x63e (size before relaxing)
 .debug_str     0x00000000000016e1       0x49 c:/altera/14.0/nios2eds/bin/gnu/h-x86_64-mingw32/bin/../lib/gcc/nios2-elf/4.7.3/../../../../../H-x86_64-mingw32/nios2-elf/lib/mno-hw-mul\libc.a(lib_a-reallocr.o)
                                        0x613 (size before relaxing)
 .debug_str     0x000000000000172a       0xe2 c:/altera/14.0/nios2eds/bin/gnu/h-x86_64-mingw32/bin/../lib/gcc/nios2-elf/4.7.3/../../../../../H-x86_64-mingw32/nios2-elf/lib/mno-hw-mul\libc.a(lib_a-s_isinfd.o)
                                        0x1ad (size before relaxing)
 .debug_str     0x000000000000180c       0x40 c:/altera/14.0/nios2eds/bin/gnu/h-x86_64-mingw32/bin/../lib/gcc/nios2-elf/4.7.3/../../../../../H-x86_64-mingw32/nios2-elf/lib/mno-hw-mul\libc.a(lib_a-s_isnand.o)
                                        0x1ad (size before relaxing)
 .debug_str     0x000000000000184c       0x46 c:/altera/14.0/nios2eds/bin/gnu/h-x86_64-mingw32/bin/../lib/gcc/nios2-elf/4.7.3/../../../../../H-x86_64-mingw32/nios2-elf/lib/mno-hw-mul\libc.a(lib_a-sbrkr.o)
                                        0x528 (size before relaxing)
 .debug_str     0x0000000000001892       0x91 c:/altera/14.0/nios2eds/bin/gnu/h-x86_64-mingw32/bin/../lib/gcc/nios2-elf/4.7.3/../../../../../H-x86_64-mingw32/nios2-elf/lib/mno-hw-mul\libc.a(lib_a-stdio.o)
                                        0x57c (size before relaxing)
 .debug_str     0x0000000000001923       0x3e c:/altera/14.0/nios2eds/bin/gnu/h-x86_64-mingw32/bin/../lib/gcc/nios2-elf/4.7.3/../../../../../H-x86_64-mingw32/nios2-elf/lib/mno-hw-mul\libc.a(lib_a-strcmp.o)
                                        0x17b (size before relaxing)
 .debug_str     0x0000000000001961       0x3d c:/altera/14.0/nios2eds/bin/gnu/h-x86_64-mingw32/bin/../lib/gcc/nios2-elf/4.7.3/../../../../../H-x86_64-mingw32/nios2-elf/lib/mno-hw-mul\libc.a(lib_a-writer.o)
                                        0x52c (size before relaxing)
 .debug_str     0x000000000000199e        0xf c:/altera/14.0/nios2eds/bin/gnu/h-x86_64-mingw32/bin/../lib/gcc/nios2-elf/4.7.3/../../../../../H-x86_64-mingw32/nios2-elf/lib/mno-hw-mul\libc.a(lib_a-callocr.o)
                                        0x56b (size before relaxing)
 .debug_str     0x00000000000019ad       0x3d c:/altera/14.0/nios2eds/bin/gnu/h-x86_64-mingw32/bin/../lib/gcc/nios2-elf/4.7.3/../../../../../H-x86_64-mingw32/nios2-elf/lib/mno-hw-mul\libc.a(lib_a-closer.o)
                                        0x51c (size before relaxing)
 .debug_str     0x00000000000019ea       0x4e c:/altera/14.0/nios2eds/bin/gnu/h-x86_64-mingw32/bin/../lib/gcc/nios2-elf/4.7.3/../../../../../H-x86_64-mingw32/nios2-elf/lib/mno-hw-mul\libc.a(lib_a-fclose.o)
                                        0x56e (size before relaxing)
 .debug_str     0x0000000000001a38       0x49 c:/altera/14.0/nios2eds/bin/gnu/h-x86_64-mingw32/bin/../lib/gcc/nios2-elf/4.7.3/../../../../../H-x86_64-mingw32/nios2-elf/lib/mno-hw-mul\libc.a(lib_a-fstatr.o)
                                        0x60f (size before relaxing)
 .debug_str     0x0000000000001a81       0x40 c:/altera/14.0/nios2eds/bin/gnu/h-x86_64-mingw32/bin/../lib/gcc/nios2-elf/4.7.3/../../../../../H-x86_64-mingw32/nios2-elf/lib/mno-hw-mul\libc.a(lib_a-int_errno.o)
                                        0x17b (size before relaxing)
 .debug_str     0x0000000000001ac1       0x45 c:/altera/14.0/nios2eds/bin/gnu/h-x86_64-mingw32/bin/../lib/gcc/nios2-elf/4.7.3/../../../../../H-x86_64-mingw32/nios2-elf/lib/mno-hw-mul\libc.a(lib_a-isattyr.o)
                                        0x51f (size before relaxing)
 .debug_str     0x0000000000001b06       0x43 c:/altera/14.0/nios2eds/bin/gnu/h-x86_64-mingw32/bin/../lib/gcc/nios2-elf/4.7.3/../../../../../H-x86_64-mingw32/nios2-elf/lib/mno-hw-mul\libc.a(lib_a-lseekr.o)
                                        0x530 (size before relaxing)
 .debug_str     0x0000000000001b49       0x3c c:/altera/14.0/nios2eds/bin/gnu/h-x86_64-mingw32/bin/../lib/gcc/nios2-elf/4.7.3/../../../../../H-x86_64-mingw32/nios2-elf/lib/mno-hw-mul\libc.a(lib_a-readr.o)
                                        0x529 (size before relaxing)
 .debug_str     0x0000000000001b85      0x169 c:/altera/14.0/nios2eds/bin/gnu/h-x86_64-mingw32/bin/../lib/gcc/nios2-elf/4.7.3/mno-hw-mul\libgcc.a(_udivdi3.o)
                                        0x202 (size before relaxing)
 .debug_str     0x0000000000001cee        0xa c:/altera/14.0/nios2eds/bin/gnu/h-x86_64-mingw32/bin/../lib/gcc/nios2-elf/4.7.3/mno-hw-mul\libgcc.a(_umoddi3.o)
                                        0x202 (size before relaxing)
 .debug_str     0x0000000000001cf8      0x172 c:/altera/14.0/nios2eds/bin/gnu/h-x86_64-mingw32/bin/../lib/gcc/nios2-elf/4.7.3/mno-hw-mul\libgcc.a(_addsub_df.o)
                                        0x2b5 (size before relaxing)
 .debug_str     0x0000000000001e6a       0x40 c:/altera/14.0/nios2eds/bin/gnu/h-x86_64-mingw32/bin/../lib/gcc/nios2-elf/4.7.3/mno-hw-mul\libgcc.a(_mul_df.o)
                                        0x287 (size before relaxing)
 .debug_str     0x0000000000001eaa       0x35 c:/altera/14.0/nios2eds/bin/gnu/h-x86_64-mingw32/bin/../lib/gcc/nios2-elf/4.7.3/mno-hw-mul\libgcc.a(_div_df.o)
                                        0x277 (size before relaxing)
 .debug_str     0x0000000000001edf       0x20 c:/altera/14.0/nios2eds/bin/gnu/h-x86_64-mingw32/bin/../lib/gcc/nios2-elf/4.7.3/mno-hw-mul\libgcc.a(_eq_df.o)
                                        0x244 (size before relaxing)
 .debug_str     0x0000000000001eff        0x8 c:/altera/14.0/nios2eds/bin/gnu/h-x86_64-mingw32/bin/../lib/gcc/nios2-elf/4.7.3/mno-hw-mul\libgcc.a(_ne_df.o)
                                        0x244 (size before relaxing)
 .debug_str     0x0000000000001f07        0x8 c:/altera/14.0/nios2eds/bin/gnu/h-x86_64-mingw32/bin/../lib/gcc/nios2-elf/4.7.3/mno-hw-mul\libgcc.a(_gt_df.o)
                                        0x244 (size before relaxing)
 .debug_str     0x0000000000001f0f        0x8 c:/altera/14.0/nios2eds/bin/gnu/h-x86_64-mingw32/bin/../lib/gcc/nios2-elf/4.7.3/mno-hw-mul\libgcc.a(_ge_df.o)
                                        0x244 (size before relaxing)
 .debug_str     0x0000000000001f17        0x8 c:/altera/14.0/nios2eds/bin/gnu/h-x86_64-mingw32/bin/../lib/gcc/nios2-elf/4.7.3/mno-hw-mul\libgcc.a(_lt_df.o)
                                        0x244 (size before relaxing)
 .debug_str     0x0000000000001f1f       0x21 c:/altera/14.0/nios2eds/bin/gnu/h-x86_64-mingw32/bin/../lib/gcc/nios2-elf/4.7.3/mno-hw-mul\libgcc.a(_si_to_df.o)
                                        0x21a (size before relaxing)
 .debug_str     0x0000000000001f40        0xa c:/altera/14.0/nios2eds/bin/gnu/h-x86_64-mingw32/bin/../lib/gcc/nios2-elf/4.7.3/mno-hw-mul\libgcc.a(_df_to_si.o)
                                        0x23c (size before relaxing)
 .debug_str     0x0000000000000000      0x1cd c:/altera/14.0/nios2eds/bin/gnu/h-x86_64-mingw32/bin/../lib/gcc/nios2-elf/4.7.3/mno-hw-mul\libgcc.a(_thenan_df.o)
 .debug_str     0x0000000000001f4a       0x14 c:/altera/14.0/nios2eds/bin/gnu/h-x86_64-mingw32/bin/../lib/gcc/nios2-elf/4.7.3/mno-hw-mul\libgcc.a(_usi_to_df.o)
                                        0x216 (size before relaxing)
 .debug_str     0x0000000000001f5e       0x7f c:/altera/14.0/nios2eds/bin/gnu/h-x86_64-mingw32/bin/../lib/gcc/nios2-elf/4.7.3/mno-hw-mul\libgcc.a(lib2-divmod.o)
                                        0x167 (size before relaxing)
 .debug_str     0x0000000000001fdd       0x40 c:/altera/14.0/nios2eds/bin/gnu/h-x86_64-mingw32/bin/../lib/gcc/nios2-elf/4.7.3/mno-hw-mul\libgcc.a(lib2-mul.o)
                                        0x128 (size before relaxing)
 .debug_str     0x000000000000201d        0x9 c:/altera/14.0/nios2eds/bin/gnu/h-x86_64-mingw32/bin/../lib/gcc/nios2-elf/4.7.3/mno-hw-mul\libgcc.a(_muldi3.o)
                                        0x1ae (size before relaxing)
 .debug_str     0x0000000000000000      0x16c c:/altera/14.0/nios2eds/bin/gnu/h-x86_64-mingw32/bin/../lib/gcc/nios2-elf/4.7.3/mno-hw-mul\libgcc.a(_clz.o)
 .debug_str     0x0000000000000000      0x189 c:/altera/14.0/nios2eds/bin/gnu/h-x86_64-mingw32/bin/../lib/gcc/nios2-elf/4.7.3/mno-hw-mul\libgcc.a(_clzsi2.o)
 .debug_str     0x0000000000002026        0x7 c:/altera/14.0/nios2eds/bin/gnu/h-x86_64-mingw32/bin/../lib/gcc/nios2-elf/4.7.3/mno-hw-mul\libgcc.a(_pack_df.o)
                                        0x230 (size before relaxing)
 .debug_str     0x0000000000000000      0x212 c:/altera/14.0/nios2eds/bin/gnu/h-x86_64-mingw32/bin/../lib/gcc/nios2-elf/4.7.3/mno-hw-mul\libgcc.a(_unpack_df.o)
 .debug_str     0x0000000000000000      0x1f0 c:/altera/14.0/nios2eds/bin/gnu/h-x86_64-mingw32/bin/../lib/gcc/nios2-elf/4.7.3/mno-hw-mul\libgcc.a(_fpcmp_parts_df.o)
 .debug_str     0x000000000000202d       0x23 c:/altera/14.0/nios2eds/bin/gnu/h-x86_64-mingw32/bin/../lib/gcc/nios2-elf/4.7.3/mno-hw-mul\libgcc.a(_lshrdi3.o)
                                        0x1a0 (size before relaxing)
 .debug_str     0x0000000000002050        0xa c:/altera/14.0/nios2eds/bin/gnu/h-x86_64-mingw32/bin/../lib/gcc/nios2-elf/4.7.3/mno-hw-mul\libgcc.a(_ashldi3.o)
                                        0x1a0 (size before relaxing)
 .debug_str     0x000000000000205a       0xe5 ../ControlUnit_bsp/\libucosii_bsp.a(alt_close.o)
                                        0x1f8 (size before relaxing)
 .debug_str     0x000000000000213f       0xb7 ../ControlUnit_bsp/\libucosii_bsp.a(alt_dev.o)
                                        0x366 (size before relaxing)
 .debug_str     0x00000000000021f6       0x14 ../ControlUnit_bsp/\libucosii_bsp.a(alt_errno.o)
                                        0x102 (size before relaxing)
 .debug_str     0x000000000000220a       0x14 ../ControlUnit_bsp/\libucosii_bsp.a(alt_fstat.o)
                                        0x2d9 (size before relaxing)
 .debug_str     0x000000000000221e       0xfb ../ControlUnit_bsp/\libucosii_bsp.a(alt_iic.o)
                                        0x1fb (size before relaxing)
 .debug_str     0x0000000000002319       0x4c ../ControlUnit_bsp/\libucosii_bsp.a(alt_iic_isr_register.o)
                                        0x1a5 (size before relaxing)
 .debug_str     0x0000000000002365       0x3a ../ControlUnit_bsp/\libucosii_bsp.a(alt_irq_handler.o)
                                        0x17c (size before relaxing)
 .debug_str     0x000000000000239f       0x17 ../ControlUnit_bsp/\libucosii_bsp.a(alt_irq_vars.o)
                                        0x103 (size before relaxing)
 .debug_str     0x00000000000023b6       0x15 ../ControlUnit_bsp/\libucosii_bsp.a(alt_isatty.o)
                                        0x2e1 (size before relaxing)
 .debug_str     0x00000000000023cb       0xe9 ../ControlUnit_bsp/\libucosii_bsp.a(alt_load.o)
                                        0x1cf (size before relaxing)
 .debug_str     0x00000000000024b4       0x14 ../ControlUnit_bsp/\libucosii_bsp.a(alt_lseek.o)
                                        0x1fe (size before relaxing)
 .debug_str     0x00000000000024c8       0x5d ../ControlUnit_bsp/\libucosii_bsp.a(alt_main.o)
                                        0x21d (size before relaxing)
 .debug_str     0x0000000000002525       0x13 ../ControlUnit_bsp/\libucosii_bsp.a(alt_read.o)
                                        0x2e4 (size before relaxing)
 .debug_str     0x0000000000002538       0x28 ../ControlUnit_bsp/\libucosii_bsp.a(alt_release_fd.o)
                                        0x1e2 (size before relaxing)
 .debug_str     0x0000000000002560       0x61 ../ControlUnit_bsp/\libucosii_bsp.a(alt_sbrk.o)
                                        0x191 (size before relaxing)
 .debug_str     0x00000000000025c1       0x14 ../ControlUnit_bsp/\libucosii_bsp.a(alt_write.o)
                                        0x2e5 (size before relaxing)
 .debug_str     0x00000000000025d5      0x23d ../ControlUnit_bsp/\libucosii_bsp.a(alt_env_lock.o)
                                        0x764 (size before relaxing)
 .debug_str     0x0000000000002812       0x36 ../ControlUnit_bsp/\libucosii_bsp.a(alt_malloc_lock.o)
                                        0x7c6 (size before relaxing)
 .debug_str     0x0000000000002848      0x4ed ../ControlUnit_bsp/\libucosii_bsp.a(os_core.o)
                                        0x913 (size before relaxing)
 .debug_str     0x0000000000002d35      0x2e5 ../ControlUnit_bsp/\libucosii_bsp.a(os_dbg.o)
                                        0x882 (size before relaxing)
 .debug_str     0x000000000000301a      0x136 ../ControlUnit_bsp/\libucosii_bsp.a(os_flag.o)
                                        0x5af (size before relaxing)
 .debug_str     0x0000000000003150       0xcf ../ControlUnit_bsp/\libucosii_bsp.a(os_mem.o)
                                        0x2b8 (size before relaxing)
 .debug_str     0x000000000000321f       0xc0 ../ControlUnit_bsp/\libucosii_bsp.a(os_q.o)
                                        0x532 (size before relaxing)
 .debug_str     0x00000000000032df       0x77 ../ControlUnit_bsp/\libucosii_bsp.a(os_sem.o)
                                        0x4bb (size before relaxing)
 .debug_str     0x0000000000003356      0x113 ../ControlUnit_bsp/\libucosii_bsp.a(os_task.o)
                                        0x5be (size before relaxing)
 .debug_str     0x0000000000003469       0x6d ../ControlUnit_bsp/\libucosii_bsp.a(os_time.o)
                                        0x45e (size before relaxing)
 .debug_str     0x00000000000034d6      0x185 ../ControlUnit_bsp/\libucosii_bsp.a(alt_sys_init.o)
                                        0x43b (size before relaxing)
 .debug_str     0x000000000000365b       0xac ../ControlUnit_bsp/\libucosii_bsp.a(altera_avalon_jtag_uart_fd.o)
                                        0x451 (size before relaxing)
 .debug_str     0x0000000000003707       0xf6 ../ControlUnit_bsp/\libucosii_bsp.a(altera_avalon_jtag_uart_init.o)
                                        0x418 (size before relaxing)
 .debug_str     0x00000000000037fd       0x4a ../ControlUnit_bsp/\libucosii_bsp.a(altera_avalon_jtag_uart_ioctl.o)
                                        0x340 (size before relaxing)
 .debug_str     0x0000000000003847       0x63 ../ControlUnit_bsp/\libucosii_bsp.a(altera_avalon_jtag_uart_read.o)
                                        0x3b3 (size before relaxing)
 .debug_str     0x00000000000038aa       0x4a ../ControlUnit_bsp/\libucosii_bsp.a(altera_avalon_jtag_uart_write.o)
                                        0x3b4 (size before relaxing)
 .debug_str     0x00000000000038f4       0x66 ../ControlUnit_bsp/\libucosii_bsp.a(altera_avalon_timer_sc.o)
                                        0x208 (size before relaxing)
 .debug_str     0x000000000000395a       0x5f ../ControlUnit_bsp/\libucosii_bsp.a(alt_alarm_start.o)
                                        0x23b (size before relaxing)
 .debug_str     0x00000000000039b9       0x34 ../ControlUnit_bsp/\libucosii_bsp.a(alt_dcache_flush_all.o)
                                        0x112 (size before relaxing)
 .debug_str     0x00000000000039ed       0x34 ../ControlUnit_bsp/\libucosii_bsp.a(alt_dev_llist_insert.o)
                                        0x189 (size before relaxing)
 .debug_str     0x0000000000003a21       0x48 ../ControlUnit_bsp/\libucosii_bsp.a(alt_do_ctors.o)
                                         0x99 (size before relaxing)
 .debug_str     0x0000000000003a69       0x4c ../ControlUnit_bsp/\libucosii_bsp.a(alt_do_dtors.o)
                                         0x98 (size before relaxing)
 .debug_str     0x0000000000003ab5       0x34 ../ControlUnit_bsp/\libucosii_bsp.a(alt_icache_flush_all.o)
                                        0x112 (size before relaxing)
 .debug_str     0x0000000000003ae9       0x56 ../ControlUnit_bsp/\libucosii_bsp.a(alt_io_redirect.o)
                                        0x303 (size before relaxing)
 .debug_str     0x0000000000003b3f       0x29 ../ControlUnit_bsp/\libucosii_bsp.a(alt_open.o)
                                        0x230 (size before relaxing)
 .debug_str     0x0000000000003b68       0x4a ../ControlUnit_bsp/\libucosii_bsp.a(alt_tick.o)
                                        0x21c (size before relaxing)
 .debug_str     0x0000000000003bb2       0x3b ../ControlUnit_bsp/\libucosii_bsp.a(altera_nios2_qsys_irq.o)
                                        0x119 (size before relaxing)
 .debug_str     0x0000000000003bed       0xd5 ../ControlUnit_bsp/\libucosii_bsp.a(os_cpu_c.o)
                                        0x7d9 (size before relaxing)
 .debug_str     0x0000000000003cc2       0x24 ../ControlUnit_bsp/\libucosii_bsp.a(alt_find_dev.o)
                                        0x1d9 (size before relaxing)
 .debug_str     0x0000000000003ce6       0x26 ../ControlUnit_bsp/\libucosii_bsp.a(alt_find_file.o)
                                        0x1e7 (size before relaxing)
 .debug_str     0x0000000000003d0c       0x30 ../ControlUnit_bsp/\libucosii_bsp.a(alt_get_fd.o)
                                        0x285 (size before relaxing)
 .debug_str     0x0000000000003d3c       0x82 c:/altera/14.0/nios2eds/bin/gnu/h-x86_64-mingw32/bin/../lib/gcc/nios2-elf/4.7.3/../../../../../H-x86_64-mingw32/nios2-elf/lib/mno-hw-mul\libc.a(lib_a-atexit.o)
                                        0x21b (size before relaxing)
 .debug_str     0x0000000000003dbe       0x4d c:/altera/14.0/nios2eds/bin/gnu/h-x86_64-mingw32/bin/../lib/gcc/nios2-elf/4.7.3/../../../../../H-x86_64-mingw32/nios2-elf/lib/mno-hw-mul\libc.a(lib_a-exit.o)
                                        0x53b (size before relaxing)
 .debug_str     0x0000000000003e0b       0x45 c:/altera/14.0/nios2eds/bin/gnu/h-x86_64-mingw32/bin/../lib/gcc/nios2-elf/4.7.3/../../../../../H-x86_64-mingw32/nios2-elf/lib/mno-hw-mul\libc.a(lib_a-memcmp.o)
                                        0x182 (size before relaxing)
 .debug_str     0x0000000000003e50       0x40 c:/altera/14.0/nios2eds/bin/gnu/h-x86_64-mingw32/bin/../lib/gcc/nios2-elf/4.7.3/../../../../../H-x86_64-mingw32/nios2-elf/lib/mno-hw-mul\libc.a(lib_a-__atexit.o)
                                        0x57f (size before relaxing)
 .debug_str     0x0000000000003e90       0x5f c:/altera/14.0/nios2eds/bin/gnu/h-x86_64-mingw32/bin/../lib/gcc/nios2-elf/4.7.3/../../../../../H-x86_64-mingw32/nios2-elf/lib/mno-hw-mul\libc.a(lib_a-__call_atexit.o)
                                        0x55d (size before relaxing)
 .debug_str     0x0000000000003eef       0x2a ../ControlUnit_bsp/\libucosii_bsp.a(alt_exit.o)
                                        0x150 (size before relaxing)

.debug_loc      0x0000000000000000    0x11f75
 *(.debug_loc)
 .debug_loc     0x0000000000000000      0x108 obj/default/main.o
 .debug_loc     0x0000000000000108       0x84 obj/default/switchesIRQhandler.o
 .debug_loc     0x000000000000018c      0x132 c:/altera/14.0/nios2eds/bin/gnu/h-x86_64-mingw32/bin/../lib/gcc/nios2-elf/4.7.3/../../../../../H-x86_64-mingw32/nios2-elf/lib/mno-hw-mul\libc.a(lib_a-printf.o)
 .debug_loc     0x00000000000002be       0xd9 c:/altera/14.0/nios2eds/bin/gnu/h-x86_64-mingw32/bin/../lib/gcc/nios2-elf/4.7.3/../../../../../H-x86_64-mingw32/nios2-elf/lib/mno-hw-mul\libc.a(lib_a-puts.o)
 .debug_loc     0x0000000000000397       0x52 c:/altera/14.0/nios2eds/bin/gnu/h-x86_64-mingw32/bin/../lib/gcc/nios2-elf/4.7.3/../../../../../H-x86_64-mingw32/nios2-elf/lib/mno-hw-mul\libc.a(lib_a-strlen.o)
 .debug_loc     0x00000000000003e9     0x2f0e c:/altera/14.0/nios2eds/bin/gnu/h-x86_64-mingw32/bin/../lib/gcc/nios2-elf/4.7.3/../../../../../H-x86_64-mingw32/nios2-elf/lib/mno-hw-mul\libc.a(lib_a-vfprintf.o)
 .debug_loc     0x00000000000032f7       0xba c:/altera/14.0/nios2eds/bin/gnu/h-x86_64-mingw32/bin/../lib/gcc/nios2-elf/4.7.3/../../../../../H-x86_64-mingw32/nios2-elf/lib/mno-hw-mul\libc.a(lib_a-wsetup.o)
 .debug_loc     0x00000000000033b1     0x225e c:/altera/14.0/nios2eds/bin/gnu/h-x86_64-mingw32/bin/../lib/gcc/nios2-elf/4.7.3/../../../../../H-x86_64-mingw32/nios2-elf/lib/mno-hw-mul\libc.a(lib_a-dtoa.o)
 .debug_loc     0x000000000000560f      0x259 c:/altera/14.0/nios2eds/bin/gnu/h-x86_64-mingw32/bin/../lib/gcc/nios2-elf/4.7.3/../../../../../H-x86_64-mingw32/nios2-elf/lib/mno-hw-mul\libc.a(lib_a-fflush.o)
 .debug_loc     0x0000000000005868      0x2a7 c:/altera/14.0/nios2eds/bin/gnu/h-x86_64-mingw32/bin/../lib/gcc/nios2-elf/4.7.3/../../../../../H-x86_64-mingw32/nios2-elf/lib/mno-hw-mul\libc.a(lib_a-findfp.o)
 .debug_loc     0x0000000000005b0f      0x668 c:/altera/14.0/nios2eds/bin/gnu/h-x86_64-mingw32/bin/../lib/gcc/nios2-elf/4.7.3/../../../../../H-x86_64-mingw32/nios2-elf/lib/mno-hw-mul\libc.a(lib_a-freer.o)
 .debug_loc     0x0000000000006177      0x50c c:/altera/14.0/nios2eds/bin/gnu/h-x86_64-mingw32/bin/../lib/gcc/nios2-elf/4.7.3/../../../../../H-x86_64-mingw32/nios2-elf/lib/mno-hw-mul\libc.a(lib_a-fvwrite.o)
 .debug_loc     0x0000000000006683      0x2ae c:/altera/14.0/nios2eds/bin/gnu/h-x86_64-mingw32/bin/../lib/gcc/nios2-elf/4.7.3/../../../../../H-x86_64-mingw32/nios2-elf/lib/mno-hw-mul\libc.a(lib_a-fwalk.o)
 .debug_loc     0x0000000000006931      0x13e c:/altera/14.0/nios2eds/bin/gnu/h-x86_64-mingw32/bin/../lib/gcc/nios2-elf/4.7.3/../../../../../H-x86_64-mingw32/nios2-elf/lib/mno-hw-mul\libc.a(lib_a-locale.o)
 .debug_loc     0x0000000000006a6f      0x16a c:/altera/14.0/nios2eds/bin/gnu/h-x86_64-mingw32/bin/../lib/gcc/nios2-elf/4.7.3/../../../../../H-x86_64-mingw32/nios2-elf/lib/mno-hw-mul\libc.a(lib_a-makebuf.o)
 .debug_loc     0x0000000000006bd9      0xb50 c:/altera/14.0/nios2eds/bin/gnu/h-x86_64-mingw32/bin/../lib/gcc/nios2-elf/4.7.3/../../../../../H-x86_64-mingw32/nios2-elf/lib/mno-hw-mul\libc.a(lib_a-mallocr.o)
 .debug_loc     0x0000000000007729      0x239 c:/altera/14.0/nios2eds/bin/gnu/h-x86_64-mingw32/bin/../lib/gcc/nios2-elf/4.7.3/../../../../../H-x86_64-mingw32/nios2-elf/lib/mno-hw-mul\libc.a(lib_a-memchr.o)
 .debug_loc     0x0000000000007962      0x29c c:/altera/14.0/nios2eds/bin/gnu/h-x86_64-mingw32/bin/../lib/gcc/nios2-elf/4.7.3/../../../../../H-x86_64-mingw32/nios2-elf/lib/mno-hw-mul\libc.a(lib_a-memcpy.o)
 .debug_loc     0x0000000000007bfe      0x301 c:/altera/14.0/nios2eds/bin/gnu/h-x86_64-mingw32/bin/../lib/gcc/nios2-elf/4.7.3/../../../../../H-x86_64-mingw32/nios2-elf/lib/mno-hw-mul\libc.a(lib_a-memmove.o)
 .debug_loc     0x0000000000007eff      0x1b7 c:/altera/14.0/nios2eds/bin/gnu/h-x86_64-mingw32/bin/../lib/gcc/nios2-elf/4.7.3/../../../../../H-x86_64-mingw32/nios2-elf/lib/mno-hw-mul\libc.a(lib_a-memset.o)
 .debug_loc     0x00000000000080b6     0x1b8a c:/altera/14.0/nios2eds/bin/gnu/h-x86_64-mingw32/bin/../lib/gcc/nios2-elf/4.7.3/../../../../../H-x86_64-mingw32/nios2-elf/lib/mno-hw-mul\libc.a(lib_a-mprec.o)
 .debug_loc     0x0000000000009c40     0x1136 c:/altera/14.0/nios2eds/bin/gnu/h-x86_64-mingw32/bin/../lib/gcc/nios2-elf/4.7.3/../../../../../H-x86_64-mingw32/nios2-elf/lib/mno-hw-mul\libc.a(lib_a-reallocr.o)
 .debug_loc     0x000000000000ad76       0x88 c:/altera/14.0/nios2eds/bin/gnu/h-x86_64-mingw32/bin/../lib/gcc/nios2-elf/4.7.3/../../../../../H-x86_64-mingw32/nios2-elf/lib/mno-hw-mul\libc.a(lib_a-s_isinfd.o)
 .debug_loc     0x000000000000adfe       0xa5 c:/altera/14.0/nios2eds/bin/gnu/h-x86_64-mingw32/bin/../lib/gcc/nios2-elf/4.7.3/../../../../../H-x86_64-mingw32/nios2-elf/lib/mno-hw-mul\libc.a(lib_a-s_isnand.o)
 .debug_loc     0x000000000000aea3       0x86 c:/altera/14.0/nios2eds/bin/gnu/h-x86_64-mingw32/bin/../lib/gcc/nios2-elf/4.7.3/../../../../../H-x86_64-mingw32/nios2-elf/lib/mno-hw-mul\libc.a(lib_a-sbrkr.o)
 .debug_loc     0x000000000000af29      0x379 c:/altera/14.0/nios2eds/bin/gnu/h-x86_64-mingw32/bin/../lib/gcc/nios2-elf/4.7.3/../../../../../H-x86_64-mingw32/nios2-elf/lib/mno-hw-mul\libc.a(lib_a-stdio.o)
 .debug_loc     0x000000000000b2a2       0xb0 c:/altera/14.0/nios2eds/bin/gnu/h-x86_64-mingw32/bin/../lib/gcc/nios2-elf/4.7.3/../../../../../H-x86_64-mingw32/nios2-elf/lib/mno-hw-mul\libc.a(lib_a-strcmp.o)
 .debug_loc     0x000000000000b352       0xde c:/altera/14.0/nios2eds/bin/gnu/h-x86_64-mingw32/bin/../lib/gcc/nios2-elf/4.7.3/../../../../../H-x86_64-mingw32/nios2-elf/lib/mno-hw-mul\libc.a(lib_a-writer.o)
 .debug_loc     0x000000000000b430      0x259 c:/altera/14.0/nios2eds/bin/gnu/h-x86_64-mingw32/bin/../lib/gcc/nios2-elf/4.7.3/../../../../../H-x86_64-mingw32/nios2-elf/lib/mno-hw-mul\libc.a(lib_a-callocr.o)
 .debug_loc     0x000000000000b689       0x86 c:/altera/14.0/nios2eds/bin/gnu/h-x86_64-mingw32/bin/../lib/gcc/nios2-elf/4.7.3/../../../../../H-x86_64-mingw32/nios2-elf/lib/mno-hw-mul\libc.a(lib_a-closer.o)
 .debug_loc     0x000000000000b70f      0x136 c:/altera/14.0/nios2eds/bin/gnu/h-x86_64-mingw32/bin/../lib/gcc/nios2-elf/4.7.3/../../../../../H-x86_64-mingw32/nios2-elf/lib/mno-hw-mul\libc.a(lib_a-fclose.o)
 .debug_loc     0x000000000000b845       0xb2 c:/altera/14.0/nios2eds/bin/gnu/h-x86_64-mingw32/bin/../lib/gcc/nios2-elf/4.7.3/../../../../../H-x86_64-mingw32/nios2-elf/lib/mno-hw-mul\libc.a(lib_a-fstatr.o)
 .debug_loc     0x000000000000b8f7       0x86 c:/altera/14.0/nios2eds/bin/gnu/h-x86_64-mingw32/bin/../lib/gcc/nios2-elf/4.7.3/../../../../../H-x86_64-mingw32/nios2-elf/lib/mno-hw-mul\libc.a(lib_a-isattyr.o)
 .debug_loc     0x000000000000b97d       0xde c:/altera/14.0/nios2eds/bin/gnu/h-x86_64-mingw32/bin/../lib/gcc/nios2-elf/4.7.3/../../../../../H-x86_64-mingw32/nios2-elf/lib/mno-hw-mul\libc.a(lib_a-lseekr.o)
 .debug_loc     0x000000000000ba5b       0xde c:/altera/14.0/nios2eds/bin/gnu/h-x86_64-mingw32/bin/../lib/gcc/nios2-elf/4.7.3/../../../../../H-x86_64-mingw32/nios2-elf/lib/mno-hw-mul\libc.a(lib_a-readr.o)
 .debug_loc     0x000000000000bb39     0x1202 c:/altera/14.0/nios2eds/bin/gnu/h-x86_64-mingw32/bin/../lib/gcc/nios2-elf/4.7.3/mno-hw-mul\libgcc.a(_udivdi3.o)
 .debug_loc     0x000000000000cd3b     0x10d2 c:/altera/14.0/nios2eds/bin/gnu/h-x86_64-mingw32/bin/../lib/gcc/nios2-elf/4.7.3/mno-hw-mul\libgcc.a(_umoddi3.o)
 .debug_loc     0x000000000000de0d      0x7a1 c:/altera/14.0/nios2eds/bin/gnu/h-x86_64-mingw32/bin/../lib/gcc/nios2-elf/4.7.3/mno-hw-mul\libgcc.a(_addsub_df.o)
 .debug_loc     0x000000000000e5ae      0x3ba c:/altera/14.0/nios2eds/bin/gnu/h-x86_64-mingw32/bin/../lib/gcc/nios2-elf/4.7.3/mno-hw-mul\libgcc.a(_mul_df.o)
 .debug_loc     0x000000000000e968      0x25e c:/altera/14.0/nios2eds/bin/gnu/h-x86_64-mingw32/bin/../lib/gcc/nios2-elf/4.7.3/mno-hw-mul\libgcc.a(_div_df.o)
 .debug_loc     0x000000000000ebc6       0x70 c:/altera/14.0/nios2eds/bin/gnu/h-x86_64-mingw32/bin/../lib/gcc/nios2-elf/4.7.3/mno-hw-mul\libgcc.a(_eq_df.o)
 .debug_loc     0x000000000000ec36       0x70 c:/altera/14.0/nios2eds/bin/gnu/h-x86_64-mingw32/bin/../lib/gcc/nios2-elf/4.7.3/mno-hw-mul\libgcc.a(_ne_df.o)
 .debug_loc     0x000000000000eca6       0x70 c:/altera/14.0/nios2eds/bin/gnu/h-x86_64-mingw32/bin/../lib/gcc/nios2-elf/4.7.3/mno-hw-mul\libgcc.a(_gt_df.o)
 .debug_loc     0x000000000000ed16       0x70 c:/altera/14.0/nios2eds/bin/gnu/h-x86_64-mingw32/bin/../lib/gcc/nios2-elf/4.7.3/mno-hw-mul\libgcc.a(_ge_df.o)
 .debug_loc     0x000000000000ed86       0x70 c:/altera/14.0/nios2eds/bin/gnu/h-x86_64-mingw32/bin/../lib/gcc/nios2-elf/4.7.3/mno-hw-mul\libgcc.a(_lt_df.o)
 .debug_loc     0x000000000000edf6       0xd3 c:/altera/14.0/nios2eds/bin/gnu/h-x86_64-mingw32/bin/../lib/gcc/nios2-elf/4.7.3/mno-hw-mul\libgcc.a(_si_to_df.o)
 .debug_loc     0x000000000000eec9       0xc4 c:/altera/14.0/nios2eds/bin/gnu/h-x86_64-mingw32/bin/../lib/gcc/nios2-elf/4.7.3/mno-hw-mul\libgcc.a(_df_to_si.o)
 .debug_loc     0x000000000000ef8d      0x168 c:/altera/14.0/nios2eds/bin/gnu/h-x86_64-mingw32/bin/../lib/gcc/nios2-elf/4.7.3/mno-hw-mul\libgcc.a(_usi_to_df.o)
 .debug_loc     0x000000000000f0f5      0x338 c:/altera/14.0/nios2eds/bin/gnu/h-x86_64-mingw32/bin/../lib/gcc/nios2-elf/4.7.3/mno-hw-mul\libgcc.a(lib2-divmod.o)
 .debug_loc     0x000000000000f42d       0x93 c:/altera/14.0/nios2eds/bin/gnu/h-x86_64-mingw32/bin/../lib/gcc/nios2-elf/4.7.3/mno-hw-mul\libgcc.a(lib2-mul.o)
 .debug_loc     0x000000000000f4c0      0x1a8 c:/altera/14.0/nios2eds/bin/gnu/h-x86_64-mingw32/bin/../lib/gcc/nios2-elf/4.7.3/mno-hw-mul\libgcc.a(_muldi3.o)
 .debug_loc     0x000000000000f668      0x19a c:/altera/14.0/nios2eds/bin/gnu/h-x86_64-mingw32/bin/../lib/gcc/nios2-elf/4.7.3/mno-hw-mul\libgcc.a(_clzsi2.o)
 .debug_loc     0x000000000000f802      0x2ae c:/altera/14.0/nios2eds/bin/gnu/h-x86_64-mingw32/bin/../lib/gcc/nios2-elf/4.7.3/mno-hw-mul\libgcc.a(_pack_df.o)
 .debug_loc     0x000000000000fab0      0x179 c:/altera/14.0/nios2eds/bin/gnu/h-x86_64-mingw32/bin/../lib/gcc/nios2-elf/4.7.3/mno-hw-mul\libgcc.a(_unpack_df.o)
 .debug_loc     0x000000000000fc29       0x7c c:/altera/14.0/nios2eds/bin/gnu/h-x86_64-mingw32/bin/../lib/gcc/nios2-elf/4.7.3/mno-hw-mul\libgcc.a(_fpcmp_parts_df.o)
 .debug_loc     0x000000000000fca5       0xc4 c:/altera/14.0/nios2eds/bin/gnu/h-x86_64-mingw32/bin/../lib/gcc/nios2-elf/4.7.3/mno-hw-mul\libgcc.a(_lshrdi3.o)
 .debug_loc     0x000000000000fd69       0xc4 c:/altera/14.0/nios2eds/bin/gnu/h-x86_64-mingw32/bin/../lib/gcc/nios2-elf/4.7.3/mno-hw-mul\libgcc.a(_ashldi3.o)
 .debug_loc     0x000000000000fe2d       0x58 ../ControlUnit_bsp/\libucosii_bsp.a(alt_close.o)
 .debug_loc     0x000000000000fe85       0x2c ../ControlUnit_bsp/\libucosii_bsp.a(alt_dev.o)
 .debug_loc     0x000000000000feb1       0x58 ../ControlUnit_bsp/\libucosii_bsp.a(alt_fstat.o)
 .debug_loc     0x000000000000ff09       0xb0 ../ControlUnit_bsp/\libucosii_bsp.a(alt_iic.o)
 .debug_loc     0x000000000000ffb9       0x2c ../ControlUnit_bsp/\libucosii_bsp.a(alt_iic_isr_register.o)
 .debug_loc     0x000000000000ffe5       0x2c ../ControlUnit_bsp/\libucosii_bsp.a(alt_irq_handler.o)
 .debug_loc     0x0000000000010011       0x59 ../ControlUnit_bsp/\libucosii_bsp.a(alt_isatty.o)
 .debug_loc     0x000000000001006a       0x58 ../ControlUnit_bsp/\libucosii_bsp.a(alt_load.o)
 .debug_loc     0x00000000000100c2       0x58 ../ControlUnit_bsp/\libucosii_bsp.a(alt_lseek.o)
 .debug_loc     0x000000000001011a       0x2c ../ControlUnit_bsp/\libucosii_bsp.a(alt_main.o)
 .debug_loc     0x0000000000010146       0x58 ../ControlUnit_bsp/\libucosii_bsp.a(alt_read.o)
 .debug_loc     0x000000000001019e       0x2c ../ControlUnit_bsp/\libucosii_bsp.a(alt_release_fd.o)
 .debug_loc     0x00000000000101ca       0x2c ../ControlUnit_bsp/\libucosii_bsp.a(alt_sbrk.o)
 .debug_loc     0x00000000000101f6       0x58 ../ControlUnit_bsp/\libucosii_bsp.a(alt_write.o)
 .debug_loc     0x000000000001024e       0x59 ../ControlUnit_bsp/\libucosii_bsp.a(alt_env_lock.o)
 .debug_loc     0x00000000000102a7       0x59 ../ControlUnit_bsp/\libucosii_bsp.a(alt_malloc_lock.o)
 .debug_loc     0x0000000000010300      0x605 ../ControlUnit_bsp/\libucosii_bsp.a(os_core.o)
 .debug_loc     0x0000000000010905       0x2c ../ControlUnit_bsp/\libucosii_bsp.a(os_dbg.o)
 .debug_loc     0x0000000000010931      0x23e ../ControlUnit_bsp/\libucosii_bsp.a(os_flag.o)
 .debug_loc     0x0000000000010b6f      0x134 ../ControlUnit_bsp/\libucosii_bsp.a(os_mem.o)
 .debug_loc     0x0000000000010ca3      0x1e4 ../ControlUnit_bsp/\libucosii_bsp.a(os_q.o)
 .debug_loc     0x0000000000010e87      0x160 ../ControlUnit_bsp/\libucosii_bsp.a(os_sem.o)
 .debug_loc     0x0000000000010fe7      0x212 ../ControlUnit_bsp/\libucosii_bsp.a(os_task.o)
 .debug_loc     0x00000000000111f9       0xdc ../ControlUnit_bsp/\libucosii_bsp.a(os_time.o)
 .debug_loc     0x00000000000112d5       0x84 ../ControlUnit_bsp/\libucosii_bsp.a(alt_sys_init.o)
 .debug_loc     0x0000000000011359       0xb0 ../ControlUnit_bsp/\libucosii_bsp.a(altera_avalon_jtag_uart_fd.o)
 .debug_loc     0x0000000000011409       0xb0 ../ControlUnit_bsp/\libucosii_bsp.a(altera_avalon_jtag_uart_init.o)
 .debug_loc     0x00000000000114b9       0x2c ../ControlUnit_bsp/\libucosii_bsp.a(altera_avalon_jtag_uart_ioctl.o)
 .debug_loc     0x00000000000114e5       0x2d ../ControlUnit_bsp/\libucosii_bsp.a(altera_avalon_jtag_uart_read.o)
 .debug_loc     0x0000000000011512       0x2d ../ControlUnit_bsp/\libucosii_bsp.a(altera_avalon_jtag_uart_write.o)
 .debug_loc     0x000000000001153f       0x58 ../ControlUnit_bsp/\libucosii_bsp.a(altera_avalon_timer_sc.o)
 .debug_loc     0x0000000000011597       0x2c ../ControlUnit_bsp/\libucosii_bsp.a(alt_alarm_start.o)
 .debug_loc     0x00000000000115c3       0x2c ../ControlUnit_bsp/\libucosii_bsp.a(alt_dcache_flush_all.o)
 .debug_loc     0x00000000000115ef       0x58 ../ControlUnit_bsp/\libucosii_bsp.a(alt_dev_llist_insert.o)
 .debug_loc     0x0000000000011647       0x2c ../ControlUnit_bsp/\libucosii_bsp.a(alt_do_ctors.o)
 .debug_loc     0x0000000000011673       0x2c ../ControlUnit_bsp/\libucosii_bsp.a(alt_do_dtors.o)
 .debug_loc     0x000000000001169f       0x2c ../ControlUnit_bsp/\libucosii_bsp.a(alt_icache_flush_all.o)
 .debug_loc     0x00000000000116cb       0x58 ../ControlUnit_bsp/\libucosii_bsp.a(alt_io_redirect.o)
 .debug_loc     0x0000000000011723       0x84 ../ControlUnit_bsp/\libucosii_bsp.a(alt_open.o)
 .debug_loc     0x00000000000117a7       0x58 ../ControlUnit_bsp/\libucosii_bsp.a(alt_tick.o)
 .debug_loc     0x00000000000117ff       0x2c ../ControlUnit_bsp/\libucosii_bsp.a(altera_nios2_qsys_irq.o)
 .debug_loc     0x000000000001182b      0x1b8 ../ControlUnit_bsp/\libucosii_bsp.a(os_cpu_c.o)
 .debug_loc     0x00000000000119e3       0x2c ../ControlUnit_bsp/\libucosii_bsp.a(alt_find_dev.o)
 .debug_loc     0x0000000000011a0f       0x2c ../ControlUnit_bsp/\libucosii_bsp.a(alt_find_file.o)
 .debug_loc     0x0000000000011a3b       0x2c ../ControlUnit_bsp/\libucosii_bsp.a(alt_get_fd.o)
 .debug_loc     0x0000000000011a67       0x2c c:/altera/14.0/nios2eds/bin/gnu/h-x86_64-mingw32/bin/../lib/gcc/nios2-elf/4.7.3/../../../../../H-x86_64-mingw32/nios2-elf/lib/mno-hw-mul\libc.a(lib_a-atexit.o)
 .debug_loc     0x0000000000011a93       0x3e c:/altera/14.0/nios2eds/bin/gnu/h-x86_64-mingw32/bin/../lib/gcc/nios2-elf/4.7.3/../../../../../H-x86_64-mingw32/nios2-elf/lib/mno-hw-mul\libc.a(lib_a-exit.o)
 .debug_loc     0x0000000000011ad1      0x103 c:/altera/14.0/nios2eds/bin/gnu/h-x86_64-mingw32/bin/../lib/gcc/nios2-elf/4.7.3/../../../../../H-x86_64-mingw32/nios2-elf/lib/mno-hw-mul\libc.a(lib_a-memcmp.o)
 .debug_loc     0x0000000000011bd4      0x194 c:/altera/14.0/nios2eds/bin/gnu/h-x86_64-mingw32/bin/../lib/gcc/nios2-elf/4.7.3/../../../../../H-x86_64-mingw32/nios2-elf/lib/mno-hw-mul\libc.a(lib_a-__atexit.o)
 .debug_loc     0x0000000000011d68      0x1e1 c:/altera/14.0/nios2eds/bin/gnu/h-x86_64-mingw32/bin/../lib/gcc/nios2-elf/4.7.3/../../../../../H-x86_64-mingw32/nios2-elf/lib/mno-hw-mul\libc.a(lib_a-__call_atexit.o)
 .debug_loc     0x0000000000011f49       0x2c ../ControlUnit_bsp/\libucosii_bsp.a(alt_exit.o)

.debug_macinfo
 *(.debug_macinfo)

.debug_weaknames
 *(.debug_weaknames)

.debug_funcnames
 *(.debug_funcnames)

.debug_typenames
 *(.debug_typenames)

.debug_varnames
 *(.debug_varnames)

.debug_alt_sim_info
                0x0000000000000000       0x10
 *(.debug_alt_sim_info)
 .debug_alt_sim_info
                0x0000000000000000       0x10 ../ControlUnit_bsp//obj/HAL/src/crt0.o
                0x0000000000100000                __alt_data_end = 0x100000
                0x0000000000100000                PROVIDE (__alt_stack_pointer, __alt_data_end)
                0x000000000009fc98                PROVIDE (__alt_stack_limit, __alt_stack_base)
                0x000000000009fc98                PROVIDE (__alt_heap_start, end)
                0x0000000000100000                PROVIDE (__alt_heap_limit, 0x100000)
OUTPUT(ControlUnit.elf elf32-littlenios2)

.debug_ranges   0x0000000000000000      0xa98
 .debug_ranges  0x0000000000000000       0x20 ../ControlUnit_bsp//obj/HAL/src/crt0.o
 .debug_ranges  0x0000000000000020      0x150 c:/altera/14.0/nios2eds/bin/gnu/h-x86_64-mingw32/bin/../lib/gcc/nios2-elf/4.7.3/../../../../../H-x86_64-mingw32/nios2-elf/lib/mno-hw-mul\libc.a(lib_a-vfprintf.o)
 .debug_ranges  0x0000000000000170       0x20 c:/altera/14.0/nios2eds/bin/gnu/h-x86_64-mingw32/bin/../lib/gcc/nios2-elf/4.7.3/../../../../../H-x86_64-mingw32/nios2-elf/lib/mno-hw-mul\libc.a(lib_a-fflush.o)
 .debug_ranges  0x0000000000000190       0x18 c:/altera/14.0/nios2eds/bin/gnu/h-x86_64-mingw32/bin/../lib/gcc/nios2-elf/4.7.3/../../../../../H-x86_64-mingw32/nios2-elf/lib/mno-hw-mul\libc.a(lib_a-fvwrite.o)
 .debug_ranges  0x00000000000001a8       0x80 c:/altera/14.0/nios2eds/bin/gnu/h-x86_64-mingw32/bin/../lib/gcc/nios2-elf/4.7.3/../../../../../H-x86_64-mingw32/nios2-elf/lib/mno-hw-mul\libc.a(lib_a-fwalk.o)
 .debug_ranges  0x0000000000000228       0x70 c:/altera/14.0/nios2eds/bin/gnu/h-x86_64-mingw32/bin/../lib/gcc/nios2-elf/4.7.3/../../../../../H-x86_64-mingw32/nios2-elf/lib/mno-hw-mul\libc.a(lib_a-mallocr.o)
 .debug_ranges  0x0000000000000298       0x40 c:/altera/14.0/nios2eds/bin/gnu/h-x86_64-mingw32/bin/../lib/gcc/nios2-elf/4.7.3/../../../../../H-x86_64-mingw32/nios2-elf/lib/mno-hw-mul\libc.a(lib_a-mprec.o)
 .debug_ranges  0x00000000000002d8      0x158 c:/altera/14.0/nios2eds/bin/gnu/h-x86_64-mingw32/bin/../lib/gcc/nios2-elf/4.7.3/../../../../../H-x86_64-mingw32/nios2-elf/lib/mno-hw-mul\libc.a(lib_a-reallocr.o)
 .debug_ranges  0x0000000000000430       0x48 c:/altera/14.0/nios2eds/bin/gnu/h-x86_64-mingw32/bin/../lib/gcc/nios2-elf/4.7.3/../../../../../H-x86_64-mingw32/nios2-elf/lib/mno-hw-mul\libc.a(lib_a-callocr.o)
 .debug_ranges  0x0000000000000478      0x1a0 c:/altera/14.0/nios2eds/bin/gnu/h-x86_64-mingw32/bin/../lib/gcc/nios2-elf/4.7.3/mno-hw-mul\libgcc.a(_udivdi3.o)
 .debug_ranges  0x0000000000000618      0x160 c:/altera/14.0/nios2eds/bin/gnu/h-x86_64-mingw32/bin/../lib/gcc/nios2-elf/4.7.3/mno-hw-mul\libgcc.a(_umoddi3.o)
 .debug_ranges  0x0000000000000778       0x38 c:/altera/14.0/nios2eds/bin/gnu/h-x86_64-mingw32/bin/../lib/gcc/nios2-elf/4.7.3/mno-hw-mul\libgcc.a(_addsub_df.o)
 .debug_ranges  0x00000000000007b0       0x78 c:/altera/14.0/nios2eds/bin/gnu/h-x86_64-mingw32/bin/../lib/gcc/nios2-elf/4.7.3/mno-hw-mul\libgcc.a(_mul_df.o)
 .debug_ranges  0x0000000000000828       0x50 c:/altera/14.0/nios2eds/bin/gnu/h-x86_64-mingw32/bin/../lib/gcc/nios2-elf/4.7.3/mno-hw-mul\libgcc.a(_div_df.o)
 .debug_ranges  0x0000000000000878       0x30 c:/altera/14.0/nios2eds/bin/gnu/h-x86_64-mingw32/bin/../lib/gcc/nios2-elf/4.7.3/mno-hw-mul\libgcc.a(_si_to_df.o)
 .debug_ranges  0x00000000000008a8       0x48 c:/altera/14.0/nios2eds/bin/gnu/h-x86_64-mingw32/bin/../lib/gcc/nios2-elf/4.7.3/mno-hw-mul\libgcc.a(_usi_to_df.o)
 .debug_ranges  0x00000000000008f0       0x70 c:/altera/14.0/nios2eds/bin/gnu/h-x86_64-mingw32/bin/../lib/gcc/nios2-elf/4.7.3/mno-hw-mul\libgcc.a(_muldi3.o)
 .debug_ranges  0x0000000000000960       0x28 c:/altera/14.0/nios2eds/bin/gnu/h-x86_64-mingw32/bin/../lib/gcc/nios2-elf/4.7.3/mno-hw-mul\libgcc.a(_clzsi2.o)
 .debug_ranges  0x0000000000000988       0x18 c:/altera/14.0/nios2eds/bin/gnu/h-x86_64-mingw32/bin/../lib/gcc/nios2-elf/4.7.3/mno-hw-mul\libgcc.a(_pack_df.o)
 .debug_ranges  0x00000000000009a0       0x30 ../ControlUnit_bsp/\libucosii_bsp.a(alt_iic.o)
 .debug_ranges  0x00000000000009d0       0x28 ../ControlUnit_bsp/\libucosii_bsp.a(alt_irq_entry.o)
 .debug_ranges  0x00000000000009f8       0x10 ../ControlUnit_bsp/\libucosii_bsp.a(alt_irq_handler.o)
 .debug_ranges  0x0000000000000a08       0x30 ../ControlUnit_bsp/\libucosii_bsp.a(altera_avalon_jtag_uart_init.o)
 .debug_ranges  0x0000000000000a38       0x18 ../ControlUnit_bsp/\libucosii_bsp.a(altera_avalon_jtag_uart_read.o)
 .debug_ranges  0x0000000000000a50       0x30 ../ControlUnit_bsp/\libucosii_bsp.a(alt_exception_entry.o)
 .debug_ranges  0x0000000000000a80       0x18 c:/altera/14.0/nios2eds/bin/gnu/h-x86_64-mingw32/bin/../lib/gcc/nios2-elf/4.7.3/../../../../../H-x86_64-mingw32/nios2-elf/lib/mno-hw-mul\libc.a(lib_a-__call_atexit.o)
