
ControlUnit.elf:     file format elf32-littlenios2
ControlUnit.elf
architecture: nios2, flags 0x00000112:
EXEC_P, HAS_SYMS, D_PAGED
start address 0x000801bc

Program Header:
    LOAD off    0x00001000 vaddr 0x00080000 paddr 0x00080000 align 2**12
         filesz 0x00000020 memsz 0x00000020 flags r-x
    LOAD off    0x00001020 vaddr 0x00080020 paddr 0x00080020 align 2**12
         filesz 0x0001513c memsz 0x0001513c flags r-x
    LOAD off    0x0001615c vaddr 0x0009515c paddr 0x00096c3c align 2**12
         filesz 0x00001ae0 memsz 0x00001ae0 flags rw-
    LOAD off    0x0001871c vaddr 0x0009871c paddr 0x0009871c align 2**12
         filesz 0x00000000 memsz 0x0000757c flags rw-

Sections:
Idx Name          Size      VMA       LMA       File off  Algn
  0 .entry        00000020  00080000  00080000  00001000  2**5
                  CONTENTS, ALLOC, LOAD, READONLY, CODE
  1 .exceptions   0000019c  00080020  00080020  00001020  2**2
                  CONTENTS, ALLOC, LOAD, READONLY, CODE
  2 .text         00014a84  000801bc  000801bc  000011bc  2**2
                  CONTENTS, ALLOC, LOAD, READONLY, CODE
  3 .rodata       0000051c  00094c40  00094c40  00015c40  2**2
                  CONTENTS, ALLOC, LOAD, READONLY, DATA
  4 .rwdata       00001ae0  0009515c  00096c3c  0001615c  2**2
                  CONTENTS, ALLOC, LOAD, DATA, SMALL_DATA
  5 .bss          0000757c  0009871c  0009871c  0001871c  2**2
                  ALLOC, SMALL_DATA
  6 .comment      00000023  00000000  00000000  00017c3c  2**0
                  CONTENTS, READONLY
  7 .debug_aranges 00000ec0  00000000  00000000  00017c60  2**3
                  CONTENTS, READONLY, DEBUGGING
  8 .debug_info   0002caf7  00000000  00000000  00018b20  2**0
                  CONTENTS, READONLY, DEBUGGING
  9 .debug_abbrev 0000a9f2  00000000  00000000  00045617  2**0
                  CONTENTS, READONLY, DEBUGGING
 10 .debug_line   0000c8ba  00000000  00000000  00050009  2**0
                  CONTENTS, READONLY, DEBUGGING
 11 .debug_frame  000024d8  00000000  00000000  0005c8c4  2**2
                  CONTENTS, READONLY, DEBUGGING
 12 .debug_str    00003f19  00000000  00000000  0005ed9c  2**0
                  CONTENTS, READONLY, DEBUGGING
 13 .debug_loc    00011f75  00000000  00000000  00062cb5  2**0
                  CONTENTS, READONLY, DEBUGGING
 14 .debug_alt_sim_info 00000010  00000000  00000000  00074c2c  2**2
                  CONTENTS, READONLY, DEBUGGING
 15 .debug_ranges 00000a98  00000000  00000000  00074c40  2**3
                  CONTENTS, READONLY, DEBUGGING
 16 .thread_model 00000006  00000000  00000000  00079f1b  2**0
                  CONTENTS, READONLY
 17 .cpu          00000003  00000000  00000000  00079f21  2**0
                  CONTENTS, READONLY
 18 .qsys         00000001  00000000  00000000  00079f24  2**0
                  CONTENTS, READONLY
 19 .simulation_enabled 00000001  00000000  00000000  00079f25  2**0
                  CONTENTS, READONLY
 20 .sysid_hash   00000004  00000000  00000000  00079f26  2**0
                  CONTENTS, READONLY
 21 .sysid_base   00000004  00000000  00000000  00079f2a  2**0
                  CONTENTS, READONLY
 22 .sysid_time   00000004  00000000  00000000  00079f2e  2**0
                  CONTENTS, READONLY
 23 .stderr_dev   00000009  00000000  00000000  00079f32  2**0
                  CONTENTS, READONLY
 24 .stdin_dev    00000009  00000000  00000000  00079f3b  2**0
                  CONTENTS, READONLY
 25 .stdout_dev   00000009  00000000  00000000  00079f44  2**0
                  CONTENTS, READONLY
 26 .sopc_system_name 00000013  00000000  00000000  00079f4d  2**0
                  CONTENTS, READONLY
 27 .quartus_project_dir 00000026  00000000  00000000  00079f60  2**0
                  CONTENTS, READONLY
 28 .sopcinfo     0005d6b7  00000000  00000000  00079f86  2**0
                  CONTENTS, READONLY
SYMBOL TABLE:
00080000 l    d  .entry	00000000 .entry
00080020 l    d  .exceptions	00000000 .exceptions
000801bc l    d  .text	00000000 .text
00094c40 l    d  .rodata	00000000 .rodata
0009515c l    d  .rwdata	00000000 .rwdata
0009871c l    d  .bss	00000000 .bss
00000000 l    d  .comment	00000000 .comment
00000000 l    d  .debug_aranges	00000000 .debug_aranges
00000000 l    d  .debug_info	00000000 .debug_info
00000000 l    d  .debug_abbrev	00000000 .debug_abbrev
00000000 l    d  .debug_line	00000000 .debug_line
00000000 l    d  .debug_frame	00000000 .debug_frame
00000000 l    d  .debug_str	00000000 .debug_str
00000000 l    d  .debug_loc	00000000 .debug_loc
00000000 l    d  .debug_alt_sim_info	00000000 .debug_alt_sim_info
00000000 l    d  .debug_ranges	00000000 .debug_ranges
00000000 l    df *ABS*	00000000 ../ControlUnit_bsp//obj/HAL/src/crt0.o
000801f4 l       .text	00000000 alt_after_alt_main
00000000 l    df *ABS*	00000000 alt_exception_entry.o
00080094 l       .exceptions	00000000 alt_exception_unknown
00000000 l    df *ABS*	00000000 alt_irq_handler.c
00000000 l    df *ABS*	00000000 main.c
000801f8 l     F .text	00000024 getSW
0008021c l     F .text	0000002c SetRedLed
00080248 l     F .text	0000002c SetKeyReg
00000000 l    df *ABS*	00000000 switchesIRQhandler.c
00080488 l     F .text	0000002c SetKeyReg
000804b4 l     F .text	00000024 GetKeyReg
00000000 l    df *ABS*	00000000 printf.c
00000000 l    df *ABS*	00000000 puts.c
00000000 l    df *ABS*	00000000 strlen.c
00000000 l    df *ABS*	00000000 vfprintf.c
000806e4 l     F .text	00000034 __sprint_r
00094d5e l     O .rodata	00000010 blanks.3546
00094d6e l     O .rodata	00000010 zeroes.3547
00000000 l    df *ABS*	00000000 wsetup.c
00000000 l    df *ABS*	00000000 dtoa.c
0008272c l     F .text	0000023c quorem
00000000 l    df *ABS*	00000000 fflush.c
00000000 l    df *ABS*	00000000 findfp.c
0008419c l     F .text	00000008 __fp_lock
000841a4 l     F .text	00000008 __fp_unlock
00000000 l    df *ABS*	00000000 mallocr.c
00000000 l    df *ABS*	00000000 fvwrite.c
00000000 l    df *ABS*	00000000 fwalk.c
00000000 l    df *ABS*	00000000 impure.c
0009515c l     O .rwdata	00000400 impure_data
00000000 l    df *ABS*	00000000 locale.c
00094da4 l     O .rodata	00000030 lconv
00000000 l    df *ABS*	00000000 makebuf.c
00000000 l    df *ABS*	00000000 mallocr.c
00000000 l    df *ABS*	00000000 memchr.c
00000000 l    df *ABS*	00000000 memcpy.c
00000000 l    df *ABS*	00000000 memmove.c
00000000 l    df *ABS*	00000000 memset.c
00000000 l    df *ABS*	00000000 mprec.c
00094eec l     O .rodata	0000000c p05.2466
00000000 l    df *ABS*	00000000 mallocr.c
00000000 l    df *ABS*	00000000 s_isinfd.c
00000000 l    df *ABS*	00000000 s_isnand.c
00000000 l    df *ABS*	00000000 sbrkr.c
00000000 l    df *ABS*	00000000 stdio.c
00000000 l    df *ABS*	00000000 strcmp.c
00000000 l    df *ABS*	00000000 writer.c
00000000 l    df *ABS*	00000000 mallocr.c
00000000 l    df *ABS*	00000000 closer.c
00000000 l    df *ABS*	00000000 fclose.c
00000000 l    df *ABS*	00000000 fstatr.c
00000000 l    df *ABS*	00000000 int_errno.c
00000000 l    df *ABS*	00000000 isattyr.c
00000000 l    df *ABS*	00000000 lseekr.c
00000000 l    df *ABS*	00000000 readr.c
00000000 l    df *ABS*	00000000 libgcc2.c
00000000 l    df *ABS*	00000000 libgcc2.c
00000000 l    df *ABS*	00000000 fp-bit.c
00088780 l     F .text	00000354 _fpadd_parts
00000000 l    df *ABS*	00000000 fp-bit.c
00000000 l    df *ABS*	00000000 fp-bit.c
00000000 l    df *ABS*	00000000 fp-bit.c
00000000 l    df *ABS*	00000000 fp-bit.c
00000000 l    df *ABS*	00000000 fp-bit.c
00000000 l    df *ABS*	00000000 fp-bit.c
00000000 l    df *ABS*	00000000 fp-bit.c
00000000 l    df *ABS*	00000000 fp-bit.c
00000000 l    df *ABS*	00000000 fp-bit.c
00000000 l    df *ABS*	00000000 fp-bit.c
00000000 l    df *ABS*	00000000 fp-bit.c
00000000 l    df *ABS*	00000000 lib2-divmod.c
000894b0 l     F .text	00000074 udivmodsi4
00000000 l    df *ABS*	00000000 lib2-mul.c
00000000 l    df *ABS*	00000000 libgcc2.c
00000000 l    df *ABS*	00000000 libgcc2.c
00000000 l    df *ABS*	00000000 libgcc2.c
00000000 l    df *ABS*	00000000 fp-bit.c
00000000 l    df *ABS*	00000000 fp-bit.c
00000000 l    df *ABS*	00000000 fp-bit.c
00000000 l    df *ABS*	00000000 libgcc2.c
00000000 l    df *ABS*	00000000 libgcc2.c
00000000 l    df *ABS*	00000000 alt_close.c
00089c44 l     F .text	00000050 alt_get_errno
00000000 l    df *ABS*	00000000 alt_dev.c
00089d60 l     F .text	0000002c alt_dev_null_write
00000000 l    df *ABS*	00000000 alt_errno.c
00000000 l    df *ABS*	00000000 alt_fstat.c
00089d8c l     F .text	00000050 alt_get_errno
00000000 l    df *ABS*	00000000 alt_iic.c
00000000 l    df *ABS*	00000000 alt_iic_isr_register.c
00000000 l    df *ABS*	00000000 alt_irq_vars.c
00000000 l    df *ABS*	00000000 alt_isatty.c
0008a154 l     F .text	00000050 alt_get_errno
00000000 l    df *ABS*	00000000 alt_load.c
0008a248 l     F .text	0000006c alt_load_section
00000000 l    df *ABS*	00000000 alt_lseek.c
0008a334 l     F .text	00000050 alt_get_errno
00000000 l    df *ABS*	00000000 alt_main.c
00000000 l    df *ABS*	00000000 alt_read.c
0008a524 l     F .text	00000050 alt_get_errno
00000000 l    df *ABS*	00000000 alt_release_fd.c
00000000 l    df *ABS*	00000000 alt_sbrk.c
00096bb4 l     O .rwdata	00000004 heap_end
00000000 l    df *ABS*	00000000 alt_write.c
0008a798 l     F .text	00000050 alt_get_errno
00000000 l    df *ABS*	00000000 alt_env_lock.c
00096bb8 l     O .rwdata	00000004 lockid
00098754 l     O .bss	00000004 locks
00000000 l    df *ABS*	00000000 alt_malloc_lock.c
00096bbc l     O .rwdata	00000004 lockid
0009875c l     O .bss	00000004 locks
00000000 l    df *ABS*	00000000 os_core.c
0008c1e4 l     F .text	00000044 OS_InitMisc
0008c228 l     F .text	0000006c OS_InitRdyList
0008c38c l     F .text	000000e0 OS_InitTCBList
0008c108 l     F .text	000000dc OS_InitEventList
0008c294 l     F .text	0000007c OS_InitTaskIdle
0008c310 l     F .text	0000007c OS_InitTaskStat
0008c5f8 l     F .text	00000070 OS_SchedNew
00000000 l    df *ABS*	00000000 os_dbg.c
00000000 l    df *ABS*	00000000 os_flag.c
0008e410 l     F .text	0000010c OS_FlagTaskRdy
0008e16c l     F .text	000001c0 OS_FlagBlock
00000000 l    df *ABS*	00000000 os_mem.c
00000000 l    df *ABS*	00000000 os_q.c
00000000 l    df *ABS*	00000000 os_sem.c
00000000 l    df *ABS*	00000000 os_task.c
00000000 l    df *ABS*	00000000 os_time.c
00000000 l    df *ABS*	00000000 alt_sys_init.c
00092908 l     F .text	00000038 alt_dev_reg
00095b18 l     O .rwdata	0000106c jtag_uart
00000000 l    df *ABS*	00000000 altera_avalon_jtag_uart_fd.c
00000000 l    df *ABS*	00000000 altera_avalon_jtag_uart_init.c
00092c74 l     F .text	000002ac altera_avalon_jtag_uart_irq
00092f20 l     F .text	0000010c altera_avalon_jtag_uart_timeout
00000000 l    df *ABS*	00000000 altera_avalon_jtag_uart_ioctl.c
00000000 l    df *ABS*	00000000 altera_avalon_jtag_uart_read.c
00000000 l    df *ABS*	00000000 altera_avalon_jtag_uart_write.c
00000000 l    df *ABS*	00000000 altera_avalon_timer_sc.c
00093718 l     F .text	00000074 alt_avalon_timer_sc_irq
00000000 l    df *ABS*	00000000 alt_alarm_start.c
00000000 l    df *ABS*	00000000 alt_dcache_flush_all.c
00000000 l    df *ABS*	00000000 alt_dev_llist_insert.c
00093970 l     F .text	00000050 alt_get_errno
00000000 l    df *ABS*	00000000 alt_do_ctors.c
00000000 l    df *ABS*	00000000 alt_do_dtors.c
00000000 l    df *ABS*	00000000 alt_icache_flush_all.c
00000000 l    df *ABS*	00000000 alt_io_redirect.c
00093b34 l     F .text	000000e0 alt_open_fd
00000000 l    df *ABS*	00000000 alt_open.c
00093c8c l     F .text	00000050 alt_get_errno
00093cdc l     F .text	000000f0 alt_file_locked
00000000 l    df *ABS*	00000000 alt_tick.c
00000000 l    df *ABS*	00000000 altera_nios2_qsys_irq.c
00000000 l    df *ABS*	00000000 os_cpu_a.o
00000040 l       *ABS*	00000000 OSCtxSw_SWITCH_PC
00000000 l    df *ABS*	00000000 os_cpu_c.c
00000014 l       *ABS*	00000000 OSTCBNext_OFFSET
00000032 l       *ABS*	00000000 OSTCBPrio_OFFSET
00000000 l       *ABS*	00000000 OSTCBStkPtr_OFFSET
00000000 l    df *ABS*	00000000 alt_find_dev.c
00000000 l    df *ABS*	00000000 alt_find_file.c
00000000 l    df *ABS*	00000000 alt_get_fd.c
00000000 l    df *ABS*	00000000 atexit.c
00000000 l    df *ABS*	00000000 exit.c
00000000 l    df *ABS*	00000000 memcmp.c
00000000 l    df *ABS*	00000000 __atexit.c
00000000 l    df *ABS*	00000000 __call_atexit.c
00000000 l    df *ABS*	00000000 alt_exit.c
00000000 l    df *ABS*	00000000 
00086c5c g     F .text	00000074 _mprec_log10
00096c0a g     O .rwdata	00000002 OSTaskNameSize
000987e4 g     O .bss	00002000 GreenLedtask_stk
00086d4c g     F .text	00000084 __any_on
000879cc g     F .text	00000064 _isatty_r
00094dd4 g     O .rodata	00000028 __mprec_tinytens
0008a458 g     F .text	000000cc alt_main
00089c00 g     F .text	00000044 __ashldi3
000805c0 g     F .text	00000084 _puts_r
0009c7e4 g     O .bss	00000100 alt_irq
00087a30 g     F .text	0000006c _lseek_r
0008ec74 g     F .text	000000d8 OS_MemInit
00096c3c g       *ABS*	00000000 __flash_rwdata_start
000928a4 g     F .text	00000064 OSTimeSet
00089020 g     F .text	0000005c __eqdf2
0008ae3c g     F .text	0000063c OSEventPendMulti
0009fc98 g       *ABS*	00000000 __alt_heap_start
000944a4 g     F .text	00000020 OSTaskCreateHook
00080584 g     F .text	0000003c printf
00096be2 g     O .rwdata	00000002 OSMboxEn
0008b4cc g     F .text	0000007c OSIntEnter
00087570 g     F .text	0000005c __sseek
00084240 g     F .text	0000010c __sinit
00096bf2 g     O .rwdata	00000002 OSQEn
00084ed8 g     F .text	0000009c _setlocale_r
000841b8 g     F .text	00000078 __sfmoreglue
0008ab04 g     F .text	000000d4 __malloc_unlock
00094500 g     F .text	0000001c OSTaskStatHook
00098764 g     O .bss	00000001 OSLockNesting
00096c30 g     O .rwdata	00000002 OSDataSize
00098765 g     O .bss	00000001 OSRunning
00085b18 g     F .text	0000018c memmove
00094538 g     F .text	0000001c OSInitHookBegin
00096c28 g     O .rwdata	00000002 OSTmrSize
00084230 g     F .text	00000010 _cleanup
00085d80 g     F .text	000000a8 _Balloc
00098768 g     O .bss	00000004 OSIdleCtr
000890d8 g     F .text	00000064 __gtdf2
0009418c g       .text	00000000 OSStartTsk
00000000  w      *UND*	00000000 __errno
0008c924 g     F .text	000002d8 OS_TCBInit
00080000 g     F .entry	0000000c __reset
00096c2e g     O .rwdata	00000002 OSTmrWheelTblSize
00080020 g       *ABS*	00000000 __flash_exceptions_start
00096bce g     O .rwdata	00000002 OSEventSize
0009876c g     O .bss	00000001 OSPrioHighRdy
00087964 g     F .text	00000068 _fstat_r
000944c4 g     F .text	00000020 OSTaskDelHook
0009873c g     O .bss	00000004 errno
0009416c g       .text	00000000 OSStartHighRdy
0009117c g     F .text	000001f4 OSTaskCreateExt
0008dcac g     F .text	00000068 OSFlagPendGetFlagsRdy
00096c0e g     O .rwdata	00000002 OSTaskStatStkSize
0008cd88 g     F .text	00000308 OSFlagAccept
0008f354 g     F .text	000000b8 OSQFlush
0008ed4c g     F .text	00000140 OSQAccept
0009874c g     O .bss	00000004 alt_argv
0009eb84 g       *ABS*	00000000 _gp
00090fc0 g     F .text	000001bc OSTaskCreate
00090a98 g     F .text	00000528 OSTaskChangePrio
00098760 g     O .bss	00000004 alt_heapsem
0008cbfc g     F .text	0000018c OSDebugInit
00091370 g     F .text	000003dc OSTaskDel
00095998 g     O .rwdata	00000180 alt_fd_list
0009c8e4 g     O .bss	00000370 OSFlagTbl
0008bef8 g     F .text	000000b0 OS_EventTaskRemove
000945ac g     F .text	00000090 alt_find_dev
000859d8 g     F .text	00000140 memcpy
00096bf8 g     O .rwdata	00000002 OSRdyTblSize
000841ac g     F .text	0000000c _cleanup_r
000891fc g     F .text	000000d4 __floatsidf
00093c14 g     F .text	00000078 alt_io_redirect
000891a0 g     F .text	0000005c __ltdf2
00094c40 g       *ABS*	00000000 __DTOR_END__
00080644 g     F .text	00000014 puts
0008abd8 g     F .text	00000120 OSEventNameGet
00096bdc g     O .rwdata	00000002 OSFlagMax
00086bb8 g     F .text	000000a4 __ratio
0008b548 g     F .text	000000f4 OSIntExit
00096c16 g     O .rwdata	00000002 OSTCBSize
0009876d g     O .bss	00000001 OSPrioCur
00093188 g     F .text	000002c4 altera_avalon_jtag_uart_read
00000000  w      *UND*	00000000 malloc
00080558 g     F .text	0000002c _printf_r
000895d0 g     F .text	00000008 __udivsi3
0008a1a4 g     F .text	000000a4 isatty
00096bfc g     O .rwdata	00000002 OSStkWidth
000804d8 g     F .text	00000080 switchesIRQhandler
00094e24 g     O .rodata	000000c8 __mprec_tens
00096bf0 g     O .rwdata	00000002 OSPtrSize
00084f74 g     F .text	0000000c __locale_charset
00096bd0 g     O .rwdata	00000002 OSEventTblSize
000940e0 g       .text	00000000 OSCtxSw
00098738 g     O .bss	00000004 __malloc_top_pad
00098770 g     O .bss	00000004 OSTCBList
00098740 g     O .bss	00000004 alt_fd_list_lock
00096b8c g     O .rwdata	00000004 __mb_cur_max
00084f80 g     F .text	0000000c _localeconv_r
000861b0 g     F .text	0000003c __i2b
00084894 g     F .text	000004e4 __sfvwrite_r
0009cc54 g     O .bss	00000c30 OSMemTbl
00098774 g     O .bss	00000001 OSTickStepState
00087430 g     F .text	00000064 _sbrk_r
00096bf4 g     O .rwdata	00000002 OSQMax
0009d884 g     O .bss	00000800 OSTaskStatStk
0008e8a0 g     F .text	000000f8 OSMemNameGet
00096bd4 g     O .rwdata	00000002 OSFlagEn
00087a9c g     F .text	0000006c _read_r
00096c1a g     O .rwdata	00000002 OSTimeTickHookEn
0008f87c g     F .text	00000168 OSQPost
0008e51c g     F .text	000000a0 OS_FlagUnlink
0009555c g     O .rwdata	0000000c __lc_ctype
00096ba8 g     O .rwdata	00000004 alt_max_fd
0008c4c0 g     F .text	0000006c OS_MemCopy
0008c52c g     F .text	000000cc OS_Sched
000899e8 g     F .text	00000104 __unpack_d
00087814 g     F .text	0000013c _fclose_r
0008e7b0 g     F .text	000000f0 OSMemGet
00091a4c g     F .text	000001c4 OSTaskNameSet
0008416c g     F .text	00000030 fflush
00098734 g     O .bss	00000004 __malloc_max_sbrked_mem
00098778 g     O .bss	00000004 OSCtxSwCtr
0009451c g     F .text	0000001c OSTimeTickHook
00096bde g     O .rwdata	00000002 OSFlagNameSize
0008bfa8 g     F .text	000000f8 OS_EventTaskRemoveMulti
00088ad4 g     F .text	00000054 __adddf3
0008bdb0 g     F .text	00000148 OS_EventTaskWaitMulti
0008692c g     F .text	00000148 __b2d
00096bf6 g     O .rwdata	00000002 OSQSize
00088158 g     F .text	00000628 __umoddi3
0008a384 g     F .text	000000d4 lseek
00090390 g     F .text	0000026c OSSemPend
00096b84 g     O .rwdata	00000004 _global_impure_ptr
00086dd0 g     F .text	000005fc _realloc_r
00096be0 g     O .rwdata	00000002 OSLowestPrio
0009fc98 g       *ABS*	00000000 __bss_end
0008a064 g     F .text	000000f0 alt_iic_isr_register
0009458c g     F .text	00000020 OSTCBInitHook
00096c26 g     O .rwdata	00000002 OSTmrCfgTicksPerSec
00093fbc g     F .text	00000104 alt_tick
00087b08 g     F .text	00000650 __udivdi3
00096bc8 g     O .rwdata	00000002 OSEventEn
00094dfc g     O .rodata	00000028 __mprec_bigtens
00085f94 g     F .text	00000104 __s2b
00096c22 g     O .rwdata	00000002 OSTmrCfgNameSize
00089394 g     F .text	0000011c __floatunsidf
000866cc g     F .text	00000058 __mcmp
00084458 g     F .text	00000018 __fp_lock_all
0008a018 g     F .text	0000004c alt_ic_irq_enabled
0008e32c g     F .text	000000e4 OS_FlagInit
00093f24 g     F .text	00000098 alt_alarm_stop
00096c04 g     O .rwdata	00000002 OSTaskIdleStkSize
00098744 g     O .bss	00000004 alt_irq_active
0008ff70 g     F .text	000000b0 OSSemAccept
0008eab4 g     F .text	000000d8 OSMemPut
0008e5bc g     F .text	000001f4 OSMemCreate
0009877c g     O .bss	00000004 OSIdleCtrMax
000800ec g     F .exceptions	000000d0 alt_irq_handler
00095970 g     O .rwdata	00000028 alt_dev_null
0009871c g     O .bss	00000004 KeyEvents
00096c18 g     O .rwdata	00000002 OSTicksPerSec
000940e0 g       .text	00000000 OSIntCtxSw
00093954 g     F .text	0000001c alt_dcache_flush_all
00086098 g     F .text	00000068 __hi0bits
000892d0 g     F .text	000000c4 __fixdfsi
00098780 g     O .bss	00000004 OSTCBFreeList
00096c3c g       *ABS*	00000000 __ram_rwdata_end
000905fc g     F .text	00000174 OSSemPendAbort
00096ba0 g     O .rwdata	00000008 alt_dev_list
0008a7e8 g     F .text	000000f0 write
00096c1c g     O .rwdata	00000002 OSVersionNbr
0009515c g       *ABS*	00000000 __ram_rodata_end
00089ddc g     F .text	000000b0 fstat
00089bbc g     F .text	00000044 __lshrdi3
00096bc4 g     O .rwdata	00000004 OSEndiannessTest
00086444 g     F .text	0000012c __pow5mult
0009872c g     O .bss	00000004 __nlocale_changed
000895d8 g     F .text	00000008 __umodsi3
00096bd6 g     O .rwdata	00000002 OSFlagGrpSize
0009fc98 g       *ABS*	00000000 end
00092b38 g     F .text	0000013c altera_avalon_jtag_uart_init
0008c794 g     F .text	000000c8 OS_TaskStat
00094c40 g       *ABS*	00000000 __CTOR_LIST__
00100000 g       *ABS*	00000000 __alt_stack_pointer
0009378c g     F .text	00000088 alt_avalon_timer_sc_init
00089718 g     F .text	000000ac __clzsi2
0009344c g     F .text	000002cc altera_avalon_jtag_uart_write
00084448 g     F .text	00000004 __sfp_lock_acquire
000858e0 g     F .text	000000f8 memchr
0008c46c g     F .text	00000054 OS_MemClr
00080718 g     F .text	00001e7c ___vfprintf_internal_r
000941b0 g     F .text	000002f4 OSTaskStkInit
000845c4 g     F .text	000002d0 _free_r
0008bb10 g     F .text	00000198 OS_EventTaskRdy
00094a5c g     F .text	000001a0 __call_exitprocs
00098784 g     O .bss	00000001 OSCPUUsage
00098728 g     O .bss	00000004 __mlocale_changed
00096b90 g     O .rwdata	00000004 __malloc_sbrk_base
000801bc g     F .text	0000003c _start
000987b4 g     O .bss	00000004 _alt_tick_rate
0008f40c g     F .text	000002fc OSQPend
00092384 g     F .text	00000148 OSTimeDly
00086570 g     F .text	0000015c __lshift
000987b8 g     O .bss	00000004 _alt_nticks
0008a574 g     F .text	000000f4 read
00092974 g     F .text	00000060 alt_sys_init
0009492c g     F .text	00000130 __register_exitproc
00098785 g     O .bss	00000001 OSTaskCtr
000924cc g     F .text	00000188 OSTimeDlyHMSM
000861ec g     F .text	00000258 __multiply
0009302c g     F .text	00000068 altera_avalon_jtag_uart_close
000895e0 g     F .text	00000028 __mulsi3
0009515c g       *ABS*	00000000 __ram_rwdata_start
00094c40 g       *ABS*	00000000 __ram_rodata_start
000987bc g     O .bss	00000028 __malloc_current_mallinfo
00096bca g     O .rwdata	00000002 OSEventMax
00086a74 g     F .text	00000144 __d2b
00090770 g     F .text	00000110 OSSemPost
0008b6c4 g     F .text	000000d8 OSSchedUnlock
000929d4 g     F .text	00000060 altera_avalon_jtag_uart_read_fd
00094750 g     F .text	00000114 alt_get_fd
00098788 g     O .bss	00000004 OSMemFreeList
0008b808 g     F .text	000000ac OSStatInit
0008e0a8 g     F .text	000000c4 OSFlagQuery
00089aec g     F .text	000000d0 __fpcmp_parts_d
000802ac g     F .text	00000120 GreenLedIRQtask
00096c00 g     O .rwdata	00000002 OSTaskCreateExtEn
000877b0 g     F .text	00000064 _close_r
0009a7e4 g     O .bss	00002000 RedLedtask_stk
000948b0 g     F .text	0000007c memcmp
0008baf4 g     F .text	0000001c OS_Dummy
00092a94 g     F .text	00000050 altera_avalon_jtag_uart_close_fd
0009fc98 g       *ABS*	00000000 __alt_stack_base
00092ae4 g     F .text	00000054 altera_avalon_jtag_uart_ioctl_fd
000825b8 g     F .text	00000174 __swsetup_r
0009e084 g     O .bss	000001e0 OSQTbl
00088e6c g     F .text	000001b4 __divdf3
0008434c g     F .text	000000fc __sfp
00086cd0 g     F .text	0000007c __copybits
00095568 g     O .rwdata	00000408 __malloc_av_
00084454 g     F .text	00000004 __sinit_lock_release
0009878c g     O .bss	00000004 OSTCBHighRdy
00088b88 g     F .text	000002e4 __muldf3
00087494 g     F .text	00000054 __sread
00098790 g     O .bss	00000004 OSQFreeList
0009463c g     F .text	00000114 alt_find_file
000939c0 g     F .text	000000a0 alt_dev_llist_insert
0008a9f0 g     F .text	00000114 __malloc_lock
0008a6e8 g     F .text	000000b0 sbrk
0008acf8 g     F .text	00000144 OSEventNameSet
00083f84 g     F .text	000001e8 _fflush_r
000876e4 g     F .text	000000cc _calloc_r
00098794 g     O .bss	00000001 OSRdyGrp
0009871c g       *ABS*	00000000 __bss_start
00085ca4 g     F .text	000000dc memset
000803cc g     F .text	000000bc main
00080000 g       *ABS*	00000000 __alt_mem_SRAM_CVGX
00098750 g     O .bss	00000004 alt_envp
00098730 g     O .bss	00000004 __malloc_max_total_mem
00092a34 g     F .text	00000060 altera_avalon_jtag_uart_write_fd
00098720 g     O .bss	00000004 ISRcontext
00095028 g     O .rodata	00000100 OSUnMapTbl
00096bfa g     O .rwdata	00000002 OSSemEn
0008dd14 g     F .text	00000394 OSFlagPost
000875cc g     F .text	00000008 __sclose
00100000 g       *ABS*	00000000 __alt_heap_limit
00087950 g     F .text	00000014 fclose
0008bca8 g     F .text	00000108 OS_EventTaskWait
0008c85c g     F .text	000000c8 OS_TaskStatStkChk
0009fb08 g     O .bss	00000190 _atexit0
0009174c g     F .text	00000158 OSTaskDelReq
00082968 g     F .text	0000161c _dtoa_r
0008515c g     F .text	00000784 _malloc_r
00096bac g     O .rwdata	00000004 alt_errno
0008b79c g     F .text	0000006c OSStart
0008a990 g     F .text	00000060 __env_unlock
00084d78 g     F .text	000000a8 _fwalk
00091c10 g     F .text	000001f4 OSTaskResume
0008eb8c g     F .text	000000e8 OSMemQuery
00096c0c g     O .rwdata	00000002 OSTaskStatEn
00096be6 g     O .rwdata	00000002 OSMemMax
0008f9e4 g     F .text	00000170 OSQPostFront
00089524 g     F .text	00000050 __divsi3
00098795 g     O .bss	00000003 OSRdyTbl
00096bc0 g     O .rwdata	00000002 OSDebugEn
00094ef8 g     O .rodata	00000014 __thenan_df
00084488 g     F .text	0000013c _malloc_trim_r
00094c40 g       *ABS*	00000000 __CTOR_END__
00096bd8 g     O .rwdata	00000002 OSFlagNodeSize
00096c20 g     O .rwdata	00000002 OSTmrCfgMax
000875d4 g     F .text	000000a4 strcmp
0008ee8c g     F .text	000001f8 OSQCreate
000918a4 g     F .text	000001a8 OSTaskNameGet
00094c40 g       *ABS*	00000000 __flash_rodata_start
0008fb54 g     F .text	0000020c OSQPostOpt
0008b8b4 g     F .text	00000220 OSTimeTick
00096c08 g     O .rwdata	00000002 OSTaskMax
00094c40 g       *ABS*	00000000 __DTOR_LIST__
00090020 g     F .text	00000100 OSSemCreate
00096c2c g     O .rwdata	00000002 OSTmrWheelSize
0008907c g     F .text	0000005c __nedf2
00096c02 g     O .rwdata	00000002 OSTaskDelEn
00090880 g     F .text	00000118 OSSemQuery
0008f084 g     F .text	000002d0 OSQDel
0008f708 g     F .text	00000174 OSQPendAbort
00092940 g     F .text	00000034 alt_irq_init
0008a668 g     F .text	00000080 alt_release_fd
00094f0c g     O .rodata	00000100 __clz_tab
00098724 g     O .bss	00000004 _PathLocale
00094864 g     F .text	00000014 atexit
00087678 g     F .text	0000006c _write_r
0008b63c g     F .text	00000088 OSSchedLock
00084f8c g     F .text	0000001c setlocale
0008d090 g     F .text	00000128 OSFlagCreate
00096b88 g     O .rwdata	00000004 _impure_ptr
00098748 g     O .bss	00000004 alt_argc
00093abc g     F .text	0000005c _do_dtors
00096bd2 g     O .rwdata	00000002 OSEventMultiEn
0008d1b8 g     F .text	00000270 OSFlagDel
00098798 g     O .bss	00000004 OSEventFreeList
00080020 g       .exceptions	00000000 alt_irq_entry
000868cc g     F .text	00000060 __ulp
000873cc g     F .text	00000038 __isinfd
00096c1e g     O .rwdata	00000002 OSTmrEn
0008d6ac g     F .text	00000600 OSFlagPend
00084470 g     F .text	00000018 __fp_unlock_all
00096b98 g     O .rwdata	00000008 alt_fs_list
0008c668 g     F .text	0000007c OS_StrCopy
00096be8 g     O .rwdata	00000002 OSMemNameSize
00094554 g     F .text	0000001c OSInitHookEnd
00080020 g       *ABS*	00000000 __ram_exceptions_start
00096c14 g     O .rwdata	00000002 OSTCBPrioTblMax
00084fa8 g     F .text	0000000c localeconv
00096c10 g     O .rwdata	00000002 OSTaskStatStkChkEn
00089e8c g     F .text	00000050 alt_ic_isr_register
00096be4 g     O .rwdata	00000002 OSMemEn
00096bee g     O .rwdata	00000002 OSMutexEn
00096c3c g       *ABS*	00000000 _edata
0009fc98 g       *ABS*	00000000 _end
0009879c g     O .bss	00000001 OSIntNesting
000801bc g       *ABS*	00000000 __ram_exceptions_end
00093094 g     F .text	000000f4 altera_avalon_jtag_uart_ioctl
00092654 g     F .text	000001ec OSTimeDlyResume
0008d558 g     F .text	00000154 OSFlagNameSet
00091e04 g     F .text	000001d4 OSTaskStkChk
00089f78 g     F .text	000000a0 alt_ic_irq_disable
00096bea g     O .rwdata	00000002 OSMemSize
000874e8 g     F .text	00000088 __swrite
00096b94 g     O .rwdata	00000004 __malloc_trim_threshold
000940c0 g     F .text	00000020 altera_nios2_qsys_irq_init
000987a0 g     O .bss	00000004 OSTCBCur
00094878 g     F .text	00000038 exit
00096bec g     O .rwdata	00000002 OSMemTblSize
00084e20 g     F .text	000000b8 _fwalk_reent
00086724 g     F .text	000001a8 __mdiff
00089574 g     F .text	0000005c __modsi3
00100000 g       *ABS*	00000000 __alt_data_end
00080020 g     F .exceptions	00000000 alt_exception
0008444c g     F .text	00000004 __sfp_lock_release
0008b478 g     F .text	00000054 OSInit
000921e8 g     F .text	0000012c OSTaskQuery
0008fec4 g     F .text	000000ac OS_QInit
0008c6e4 g     F .text	00000054 OS_StrLen
0008e998 g     F .text	0000011c OSMemNameSet
00080274 g     F .text	00000038 RedLedSWtask
00096c06 g     O .rwdata	00000002 OSTaskProfileEn
000987a4 g     O .bss	00000004 OSTime
0009e264 g     O .bss	00000800 OSTaskIdleStk
00094bfc g     F .text	00000044 _exit
00087404 g     F .text	0000002c __isnand
00093814 g     F .text	00000140 alt_alarm_start
0008d428 g     F .text	00000130 OSFlagNameGet
00092840 g     F .text	00000064 OSTimeGet
00089608 g     F .text	00000110 __muldi3
00084fb4 g     F .text	000001a8 __smakebuf_r
00080658 g     F .text	0000008c strlen
000944e4 g     F .text	0000001c OSTaskSwHook
00093dcc g     F .text	00000158 open
0009ea64 g     O .bss	00000b40 OSEventTbl
0008913c g     F .text	00000064 __gedf2
0009f5a4 g     O .bss	00000510 OSTCBTbl
00090998 g     F .text	00000100 OSSemSet
00093b18 g     F .text	0000001c alt_icache_flush_all
00096bb0 g     O .rwdata	00000004 alt_priority_mask
00090120 g     F .text	00000270 OSSemDel
000987a8 g     O .bss	00000004 OSFlagFreeList
00089edc g     F .text	0000009c alt_ic_irq_enable
00096bcc g     O .rwdata	00000002 OSEventNameSize
00082594 g     F .text	00000024 __vfprintf_internal
000987ac g     O .bss	00000001 OSStatRdy
0009fab4 g     O .bss	00000054 OSTCBPrioTbl
0008a8d8 g     F .text	000000b8 __env_lock
00096c12 g     O .rwdata	00000002 OSTaskSwHookEn
00088b28 g     F .text	00000060 __subdf3
00086100 g     F .text	000000b0 __lo0bits
00096c34 g     O .rwdata	00000008 alt_alarm_list
00096bda g     O .rwdata	00000002 OSFlagWidth
00093a60 g     F .text	0000005c _do_ctors
00089c94 g     F .text	000000cc close
00098758 g     O .bss	00000004 alt_envsem
000987b0 g     O .bss	00000004 OSIdleCtrRun
0008bad4 g     F .text	00000020 OSVersion
00096c24 g     O .rwdata	00000002 OSTmrCfgWheelSize
0008a2b4 g     F .text	00000080 alt_load
00092314 g     F .text	00000070 OS_TaskStkClr
000897c4 g     F .text	00000224 __pack_d
00096bfe g     O .rwdata	00000002 OSTaskCreateEn
0008c0a0 g     F .text	00000068 OS_EventWaitListInit
00094570 g     F .text	0000001c OSTaskIdleHook
00000000  w      *UND*	00000000 free
00084450 g     F .text	00000004 __sinit_lock_acquire
00085e50 g     F .text	00000144 __multadd
00091fd8 g     F .text	00000210 OSTaskSuspend
00085e28 g     F .text	00000028 _Bfree
0008c738 g     F .text	0000005c OS_TaskIdle
00096c2a g     O .rwdata	00000002 OSTmrTblSize
0008fd60 g     F .text	00000164 OSQQuery



Disassembly of section .entry:

00080000 <__reset>:
 * Jump to the _start entry point in the .text section if reset code
 * is allowed or if optimizing for RTL simulation.
 */
#if defined(ALT_ALLOW_CODE_AT_RESET) || defined(ALT_SIM_OPTIMIZE)
    /* Jump to the _start entry point in the .text section. */
    movhi r1, %hi(_start)
   80000:	00400234 	movhi	at,8
    ori r1, r1, %lo(_start)
   80004:	08406f14 	ori	at,at,444
    jmp r1
   80008:	0800683a 	jmp	at
	...

Disassembly of section .exceptions:

00080020 <alt_exception>:

#else /* ALT_EXCEPTION_STACK disabled */
        /* 
         * Reserve space on normal stack for registers about to be pushed.
         */
        addi  sp, sp, -76
   80020:	deffed04 	addi	sp,sp,-76
         * documentation for details).
         *
         * Leave a gap in the stack frame at 4(sp) for the muldiv handler to
         * store zero into.
         */
        stw   ra,  0(sp)
   80024:	dfc00015 	stw	ra,0(sp)
        stw   r1,   8(sp)
   80028:	d8400215 	stw	at,8(sp)
        stw   r2,  12(sp)
   8002c:	d8800315 	stw	r2,12(sp)
        stw   r3,  16(sp)
   80030:	d8c00415 	stw	r3,16(sp)
        stw   r4,  20(sp)
   80034:	d9000515 	stw	r4,20(sp)
        stw   r5,  24(sp)
   80038:	d9400615 	stw	r5,24(sp)
        stw   r6,  28(sp)
   8003c:	d9800715 	stw	r6,28(sp)
        stw   r7,  32(sp)
   80040:	d9c00815 	stw	r7,32(sp)
        rdctl r5, estatus   /* Read early to avoid usage stall */
   80044:	000b307a 	rdctl	r5,estatus
        stw   r8,  36(sp)
   80048:	da000915 	stw	r8,36(sp)
        stw   r9,  40(sp)
   8004c:	da400a15 	stw	r9,40(sp)
        stw   r10, 44(sp)
   80050:	da800b15 	stw	r10,44(sp)
        stw   r11, 48(sp)
   80054:	dac00c15 	stw	r11,48(sp)
        stw   r12, 52(sp)
   80058:	db000d15 	stw	r12,52(sp)
        stw   r13, 56(sp)
   8005c:	db400e15 	stw	r13,56(sp)
        stw   r14, 60(sp)
   80060:	db800f15 	stw	r14,60(sp)
        stw   r15, 64(sp)
   80064:	dbc01015 	stw	r15,64(sp)
        /*
         * ea-4 contains the address of the instruction being executed
         * when the exception occured. For interrupt exceptions, we will
         * will be re-issue the isntruction. Store it in 72(sp)
         */
        stw   r5,  68(sp)  /* estatus */
   80068:	d9401115 	stw	r5,68(sp)
        addi  r15, ea, -4  /* instruction that caused exception */
   8006c:	ebffff04 	addi	r15,ea,-4
        stw   r15,  72(sp)
   80070:	dbc01215 	stw	r15,72(sp)
#else
        /*
         * Test to see if the exception was a software exception or caused 
         * by an external interrupt, and vector accordingly.
         */
        rdctl r4, ipending
   80074:	0009313a 	rdctl	r4,ipending
        andi  r2, r5, 1
   80078:	2880004c 	andi	r2,r5,1
        beq   r2, zero, .Lnot_irq
   8007c:	10000326 	beq	r2,zero,8008c <alt_exception+0x6c>
        beq   r4, zero, .Lnot_irq
   80080:	20000226 	beq	r4,zero,8008c <alt_exception+0x6c>
        /*
         * Now that all necessary registers have been preserved, call 
         * alt_irq_handler() to process the interrupts.
         */

        call alt_irq_handler
   80084:	00800ec0 	call	800ec <alt_irq_handler>

        .section .exceptions.irqreturn, "xa"

        br    .Lexception_exit
   80088:	00000306 	br	80098 <alt_exception_unknown+0x4>
         * upon completion, so we write ea (address of instruction *after*
         * the one where the exception occured) into 72(sp). The actual
         * instruction that caused the exception is written in r2, which these
         * handlers will utilize.
         */
        stw   ea,  72(sp)  /* Don't re-issue */
   8008c:	df401215 	stw	ea,72(sp)
        ldw   r2, -4(ea)   /* Instruction that caused exception */
   80090:	e8bfff17 	ldw	r2,-4(ea)

00080094 <alt_exception_unknown>:
#ifdef NIOS2_HAS_DEBUG_STUB
       /*
        *  Either tell the user now (if there is a debugger attached) or go into
        *  the debug monitor which will loop until a debugger is attached.
        */
        break
   80094:	003da03a 	break	0
        /* 
         * Restore the saved registers, so that all general purpose registers 
         * have been restored to their state at the time the interrupt occured.
         */

        ldw   r5,  68(sp)
   80098:	d9401117 	ldw	r5,68(sp)
        ldw   ea,  72(sp)  /* This becomes the PC once eret is executed */
   8009c:	df401217 	ldw	ea,72(sp)
        ldw   ra,   0(sp)
   800a0:	dfc00017 	ldw	ra,0(sp)

        wrctl estatus, r5
   800a4:	2801707a 	wrctl	estatus,r5

        ldw   r1,   8(sp)
   800a8:	d8400217 	ldw	at,8(sp)
        ldw   r2,  12(sp)
   800ac:	d8800317 	ldw	r2,12(sp)
        ldw   r3,  16(sp)
   800b0:	d8c00417 	ldw	r3,16(sp)
        ldw   r4,  20(sp)
   800b4:	d9000517 	ldw	r4,20(sp)
        ldw   r5,  24(sp)
   800b8:	d9400617 	ldw	r5,24(sp)
        ldw   r6,  28(sp)
   800bc:	d9800717 	ldw	r6,28(sp)
        ldw   r7,  32(sp)
   800c0:	d9c00817 	ldw	r7,32(sp)

#if defined(ALT_EXCEPTION_STACK) && defined(ALT_STACK_CHECK)
        ldw   et, %gprel(alt_exception_old_stack_limit)(gp)
#endif

        ldw   r8,  36(sp)
   800c4:	da000917 	ldw	r8,36(sp)
        ldw   r9,  40(sp)
   800c8:	da400a17 	ldw	r9,40(sp)
        ldw   r10, 44(sp)
   800cc:	da800b17 	ldw	r10,44(sp)
        ldw   r11, 48(sp)
   800d0:	dac00c17 	ldw	r11,48(sp)
        ldw   r12, 52(sp)
   800d4:	db000d17 	ldw	r12,52(sp)
        ldw   r13, 56(sp)
   800d8:	db400e17 	ldw	r13,56(sp)
        ldw   r14, 60(sp)
   800dc:	db800f17 	ldw	r14,60(sp)
        ldw   r15, 64(sp)
   800e0:	dbc01017 	ldw	r15,64(sp)
        stw   et, %gprel(alt_stack_limit_value)(gp)
        stw   zero, %gprel(alt_exception_old_stack_limit)(gp)
#endif /* ALT_STACK_CHECK */
        ldw   sp,  76(sp)
#else /* ALT_EXCEPTION_STACK disabled */
        addi  sp, sp, 76
   800e4:	dec01304 	addi	sp,sp,76

        /*
         * Return to the interrupted instruction.
         */

        eret
   800e8:	ef80083a 	eret

000800ec <alt_irq_handler>:
 * instruction is present if the macro ALT_CI_INTERRUPT_VECTOR defined.
 */

void alt_irq_handler (void) __attribute__ ((section (".exceptions")));
void alt_irq_handler (void)
{
   800ec:	defff904 	addi	sp,sp,-28
   800f0:	dfc00615 	stw	ra,24(sp)
   800f4:	df000515 	stw	fp,20(sp)
   800f8:	df000504 	addi	fp,sp,20
  
  /*
   * Notify the operating system that we are at interrupt level.
   */ 
  
  ALT_OS_INT_ENTER();
   800fc:	008b4cc0 	call	8b4cc <OSIntEnter>
#ifndef NIOS2_EIC_PRESENT
static ALT_INLINE alt_u32 ALT_ALWAYS_INLINE alt_irq_pending (void)
{
  alt_u32 active;

  NIOS2_READ_IPENDING (active);
   80100:	0005313a 	rdctl	r2,ipending
   80104:	e0bffe15 	stw	r2,-8(fp)

  return active;
   80108:	e0bffe17 	ldw	r2,-8(fp)
   * Consider the case where the high priority interupt is asserted during
   * the interrupt entry sequence for a lower priority interrupt to see why
   * this is the case.
   */

  active = alt_irq_pending ();
   8010c:	e0bffb15 	stw	r2,-20(fp)

  do
  {
    i = 0;
   80110:	e03ffd15 	stw	zero,-12(fp)
    mask = 1;
   80114:	00800044 	movi	r2,1
   80118:	e0bffc15 	stw	r2,-16(fp)
     * called to clear the interrupt condition.
     */

    do
    {
      if (active & mask)
   8011c:	e0fffb17 	ldw	r3,-20(fp)
   80120:	e0bffc17 	ldw	r2,-16(fp)
   80124:	1884703a 	and	r2,r3,r2
   80128:	10001726 	beq	r2,zero,80188 <alt_irq_handler+0x9c>
      { 
#ifdef ALT_ENHANCED_INTERRUPT_API_PRESENT
        alt_irq[i].handler(alt_irq[i].context); 
   8012c:	00c002b4 	movhi	r3,10
   80130:	18f1f904 	addi	r3,r3,-14364
   80134:	e0bffd17 	ldw	r2,-12(fp)
   80138:	100490fa 	slli	r2,r2,3
   8013c:	1885883a 	add	r2,r3,r2
   80140:	10c00017 	ldw	r3,0(r2)
   80144:	010002b4 	movhi	r4,10
   80148:	2131f904 	addi	r4,r4,-14364
   8014c:	e0bffd17 	ldw	r2,-12(fp)
   80150:	100490fa 	slli	r2,r2,3
   80154:	2085883a 	add	r2,r4,r2
   80158:	10800104 	addi	r2,r2,4
   8015c:	10800017 	ldw	r2,0(r2)
   80160:	1009883a 	mov	r4,r2
   80164:	183ee83a 	callr	r3
#else
        alt_irq[i].handler(alt_irq[i].context, i); 
#endif
        break;
   80168:	0001883a 	nop
#ifndef NIOS2_EIC_PRESENT
static ALT_INLINE alt_u32 ALT_ALWAYS_INLINE alt_irq_pending (void)
{
  alt_u32 active;

  NIOS2_READ_IPENDING (active);
   8016c:	0005313a 	rdctl	r2,ipending
   80170:	e0bfff15 	stw	r2,-4(fp)

  return active;
   80174:	e0bfff17 	ldw	r2,-4(fp)
      mask <<= 1;
      i++;

    } while (1);

    active = alt_irq_pending ();
   80178:	e0bffb15 	stw	r2,-20(fp)
    
  } while (active);
   8017c:	e0bffb17 	ldw	r2,-20(fp)
   80180:	103fe31e 	bne	r2,zero,80110 <__alt_data_end+0xfff80110>
   80184:	00000706 	br	801a4 <alt_irq_handler+0xb8>
#else
        alt_irq[i].handler(alt_irq[i].context, i); 
#endif
        break;
      }
      mask <<= 1;
   80188:	e0bffc17 	ldw	r2,-16(fp)
   8018c:	1085883a 	add	r2,r2,r2
   80190:	e0bffc15 	stw	r2,-16(fp)
      i++;
   80194:	e0bffd17 	ldw	r2,-12(fp)
   80198:	10800044 	addi	r2,r2,1
   8019c:	e0bffd15 	stw	r2,-12(fp)

    } while (1);
   801a0:	003fde06 	br	8011c <__alt_data_end+0xfff8011c>

  /*
   * Notify the operating system that interrupt processing is complete.
   */ 

  ALT_OS_INT_EXIT();
   801a4:	008b5480 	call	8b548 <OSIntExit>
}
   801a8:	e037883a 	mov	sp,fp
   801ac:	dfc00117 	ldw	ra,4(sp)
   801b0:	df000017 	ldw	fp,0(sp)
   801b4:	dec00204 	addi	sp,sp,8
   801b8:	f800283a 	ret

Disassembly of section .text:

000801bc <_start>:

    /*
     * Now that the caches are initialized, set up the stack pointer and global pointer.
     * The values provided by the linker are assumed to be correctly aligned.
     */
    movhi sp, %hi(__alt_stack_pointer)
   801bc:	06c00434 	movhi	sp,16
    ori sp, sp, %lo(__alt_stack_pointer)
   801c0:	dec00014 	ori	sp,sp,0
    movhi gp, %hi(_gp)
   801c4:	06800274 	movhi	gp,9
    ori gp, gp, %lo(_gp)
   801c8:	d6bae114 	ori	gp,gp,60292
 */
#ifndef ALT_SIM_OPTIMIZE
    /* Log that the BSS is about to be cleared. */
    ALT_LOG_PUTS(alt_log_msg_bss)

    movhi r2, %hi(__bss_start)
   801cc:	00800274 	movhi	r2,9
    ori r2, r2, %lo(__bss_start)
   801d0:	10a1c714 	ori	r2,r2,34588

    movhi r3, %hi(__bss_end)
   801d4:	00c00274 	movhi	r3,9
    ori r3, r3, %lo(__bss_end)
   801d8:	18ff2614 	ori	r3,r3,64664

    beq r2, r3, 1f
   801dc:	10c00326 	beq	r2,r3,801ec <_start+0x30>

0:
    stw zero, (r2)
   801e0:	10000015 	stw	zero,0(r2)
    addi r2, r2, 4
   801e4:	10800104 	addi	r2,r2,4
    bltu r2, r3, 0b
   801e8:	10fffd36 	bltu	r2,r3,801e0 <__alt_data_end+0xfff801e0>
     * section aren't defined until alt_load() has been called).
     */
    mov   et, zero
#endif

    call alt_load
   801ec:	008a2b40 	call	8a2b4 <alt_load>

    /* Log that alt_main is about to be called. */
    ALT_LOG_PUTS(alt_log_msg_alt_main)

    /* Call the C entry point. It should never return. */
    call alt_main
   801f0:	008a4580 	call	8a458 <alt_main>

000801f4 <alt_after_alt_main>:

    /* Wait in infinite loop in case alt_main does return. */
alt_after_alt_main:
    br alt_after_alt_main
   801f4:	003fff06 	br	801f4 <__alt_data_end+0xfff801f4>

000801f8 <getSW>:
  * @retval SWcontent: Bit 7..0 contain read values
  *                       @arg 0 = Switch OFF
  *                       @arg 1 = Switch ON
  */
static __inline__ uint32_t getSW(void)
{
   801f8:	deffff04 	addi	sp,sp,-4
   801fc:	df000015 	stw	fp,0(sp)
   80200:	d839883a 	mov	fp,sp
    return(IORD_INTERFACE_SWITCH(INTERFACE_COMP_0_BASE));
   80204:	00800304 	movi	r2,12
   80208:	10800037 	ldwio	r2,0(r2)
}
   8020c:	e037883a 	mov	sp,fp
   80210:	df000017 	ldw	fp,0(sp)
   80214:	dec00104 	addi	sp,sp,4
   80218:	f800283a 	ret

0008021c <SetRedLed>:
  *                   @arg 0 = LED OFF
  *                   @arg 1 = LED ON
  * @retval None
  */
static __inline__ void SetRedLed(uint32_t redled)
{
   8021c:	defffe04 	addi	sp,sp,-8
   80220:	df000115 	stw	fp,4(sp)
   80224:	df000104 	addi	fp,sp,4
   80228:	e13fff15 	stw	r4,-4(fp)
    IOWR_INTERFACE_REDLED(INTERFACE_COMP_0_BASE, redled);
   8022c:	e0ffff17 	ldw	r3,-4(fp)
   80230:	00800204 	movi	r2,8
   80234:	10c00035 	stwio	r3,0(r2)
}
   80238:	e037883a 	mov	sp,fp
   8023c:	df000017 	ldw	fp,0(sp)
   80240:	dec00104 	addi	sp,sp,4
   80244:	f800283a 	ret

00080248 <SetKeyReg>:
  *                      @arg Bit 2..0 interrupt request
  *                      @arg Bit 5..3 interrupt enable
  * @retval None
  */
 static __inline__ void SetKeyReg(uint32_t newkeyval)
{
   80248:	defffe04 	addi	sp,sp,-8
   8024c:	df000115 	stw	fp,4(sp)
   80250:	df000104 	addi	fp,sp,4
   80254:	e13fff15 	stw	r4,-4(fp)
    IOWR_INTERFACE_KEY(INTERFACE_COMP_0_BASE, newkeyval);
   80258:	e0ffff17 	ldw	r3,-4(fp)
   8025c:	0005883a 	mov	r2,zero
   80260:	10c00035 	stwio	r3,0(r2)
}
   80264:	e037883a 	mov	sp,fp
   80268:	df000017 	ldw	fp,0(sp)
   8026c:	dec00104 	addi	sp,sp,4
   80270:	f800283a 	ret

00080274 <RedLedSWtask>:
  * @details copies the position values of the sliding switches to red LEDs
  * @param  pdata : Pointer to parameter structure (not used)
  * @retval None
  */
 void RedLedSWtask(void * pdata)
{
   80274:	defffd04 	addi	sp,sp,-12
   80278:	dfc00215 	stw	ra,8(sp)
   8027c:	df000115 	stw	fp,4(sp)
   80280:	df000104 	addi	fp,sp,4
   80284:	e13fff15 	stw	r4,-4(fp)
  while (1)
  { 
    OSTimeDlyHMSM(0, 0, 0, 200);
   80288:	0009883a 	mov	r4,zero
   8028c:	000b883a 	mov	r5,zero
   80290:	000d883a 	mov	r6,zero
   80294:	01c03204 	movi	r7,200
   80298:	00924cc0 	call	924cc <OSTimeDlyHMSM>
    SetRedLed(getSW());
   8029c:	00801f80 	call	801f8 <getSW>
   802a0:	1009883a 	mov	r4,r2
   802a4:	008021c0 	call	8021c <SetRedLed>
  }
   802a8:	003ff706 	br	80288 <__alt_data_end+0xfff80288>

000802ac <GreenLedIRQtask>:
  *          the value is displayed on JTAG-UART console.
  * @param  pdata : Pointer to parameter structure (not used)
  * @retval None
  */
 void GreenLedIRQtask(void * pdata)
{
   802ac:	defffa04 	addi	sp,sp,-24
   802b0:	dfc00515 	stw	ra,20(sp)
   802b4:	df000415 	stw	fp,16(sp)
   802b8:	df000404 	addi	fp,sp,16
   802bc:	e13fff15 	stw	r4,-4(fp)
  int32_t timeOutCount = 0;
   802c0:	e03ffd15 	stw	zero,-12(fp)
  OS_FLAGS newKeyFlag;
  INT8U err;

  // Interrupt für Keys
  // Register ISR
  alt_ic_isr_register(INTERFACE_COMP_0_IRQ_INTERRUPT_CONTROLLER_ID,
   802c4:	d8000015 	stw	zero,0(sp)
   802c8:	0009883a 	mov	r4,zero
   802cc:	01400044 	movi	r5,1
   802d0:	01800234 	movhi	r6,8
   802d4:	31813604 	addi	r6,r6,1240
   802d8:	d1e6e704 	addi	r7,gp,-25700
   802dc:	0089e8c0 	call	89e8c <alt_ic_isr_register>
		  INTERFACE_COMP_0_IRQ,
                      switchesIRQhandler, (void *) &ISRcontext, NULL);
  alt_ic_irq_enable(INTERFACE_COMP_0_IRQ_INTERRUPT_CONTROLLER_ID,
   802e0:	0009883a 	mov	r4,zero
   802e4:	01400044 	movi	r5,1
   802e8:	0089edc0 	call	89edc <alt_ic_irq_enable>
		  INTERFACE_COMP_0_IRQ);
  // Enable Interrupts in User Component and Reset IRs
  SetKeyReg(INTERFACE_KEY_IE0_MSK |
   802ec:	01000e04 	movi	r4,56
   802f0:	00802480 	call	80248 <SetKeyReg>
            INTERFACE_KEY_IE1_MSK |
            INTERFACE_KEY_IE2_MSK);

//  SetGreenLed(0);
  printf("Start of NIOS II - RTX Interface Tutorial Program V5.0.0\n");
   802f4:	01000274 	movhi	r4,9
   802f8:	21131004 	addi	r4,r4,19520
   802fc:	00806440 	call	80644 <puts>
  while (1)
  { 
      newKeyFlag = OSFlagPend( KeyEvents,
   80300:	d0a6e617 	ldw	r2,-25704(gp)
   80304:	e0fffe84 	addi	r3,fp,-6
   80308:	d8c00015 	stw	r3,0(sp)
   8030c:	1009883a 	mov	r4,r2
   80310:	014001c4 	movi	r5,7
   80314:	018020c4 	movi	r6,131
   80318:	01c07d04 	movi	r7,500
   8031c:	008d6ac0 	call	8d6ac <OSFlagPend>
   80320:	e0bffe0d 	sth	r2,-8(fp)
                              (EVT_KEY_KEY0 | EVT_KEY_KEY1 | EVT_KEY_KEY2),
                               OS_FLAG_WAIT_SET_ANY + OS_FLAG_CONSUME,
                               500, /* Timeout 5 seconds */
                               &err);
      switch(err)
   80324:	e0bffe83 	ldbu	r2,-6(fp)
   80328:	10803fcc 	andi	r2,r2,255
   8032c:	10000a26 	beq	r2,zero,80358 <GreenLedIRQtask+0xac>
   80330:	108002a0 	cmpeqi	r2,r2,10
   80334:	10001f26 	beq	r2,zero,803b4 <GreenLedIRQtask+0x108>
      {
         case OS_TIMEOUT: printf("Key-Timeout Nr: %d\n\n",(int) ++timeOutCount);
   80338:	e0bffd17 	ldw	r2,-12(fp)
   8033c:	10800044 	addi	r2,r2,1
   80340:	e0bffd15 	stw	r2,-12(fp)
   80344:	01000274 	movhi	r4,9
   80348:	21131f04 	addi	r4,r4,19580
   8034c:	e17ffd17 	ldw	r5,-12(fp)
   80350:	00805840 	call	80584 <printf>
                          break;
   80354:	00001c06 	br	803c8 <GreenLedIRQtask+0x11c>
         case OS_NO_ERR:
                      timeOutCount = 0;
   80358:	e03ffd15 	stw	zero,-12(fp)
                      printf("-------------------------\n"
   8035c:	01000274 	movhi	r4,9
   80360:	21132504 	addi	r4,r4,19604
   80364:	00806440 	call	80644 <puts>
                             "New Key-Event\n");
                      if(newKeyFlag & EVT_KEY_KEY0)
   80368:	e0bffe0b 	ldhu	r2,-8(fp)
   8036c:	1080004c 	andi	r2,r2,1
   80370:	10000326 	beq	r2,zero,80380 <GreenLedIRQtask+0xd4>
                          printf("Interrupt Key 1 detected\n");
   80374:	01000274 	movhi	r4,9
   80378:	21132f04 	addi	r4,r4,19644
   8037c:	00806440 	call	80644 <puts>
                      if(newKeyFlag & EVT_KEY_KEY1)
   80380:	e0bffe0b 	ldhu	r2,-8(fp)
   80384:	1080008c 	andi	r2,r2,2
   80388:	10000326 	beq	r2,zero,80398 <GreenLedIRQtask+0xec>
                          printf("Interrupt Key 2 detected\n");
   8038c:	01000274 	movhi	r4,9
   80390:	21133604 	addi	r4,r4,19672
   80394:	00806440 	call	80644 <puts>
                      if(newKeyFlag & EVT_KEY_KEY2)
   80398:	e0bffe0b 	ldhu	r2,-8(fp)
   8039c:	1080010c 	andi	r2,r2,4
   803a0:	10000826 	beq	r2,zero,803c4 <GreenLedIRQtask+0x118>
                          printf("Interrupt Key 3 detected\n");
   803a4:	01000274 	movhi	r4,9
   803a8:	21133d04 	addi	r4,r4,19700
   803ac:	00806440 	call	80644 <puts>
//                      SetGreenLed(GetGreenLed()+1);
                      break;
   803b0:	00000406 	br	803c4 <GreenLedIRQtask+0x118>
         default: printf("Error\n");
   803b4:	01000274 	movhi	r4,9
   803b8:	21134404 	addi	r4,r4,19728
   803bc:	00806440 	call	80644 <puts>
                  break;
   803c0:	00000106 	br	803c8 <GreenLedIRQtask+0x11c>
                      if(newKeyFlag & EVT_KEY_KEY1)
                          printf("Interrupt Key 2 detected\n");
                      if(newKeyFlag & EVT_KEY_KEY2)
                          printf("Interrupt Key 3 detected\n");
//                      SetGreenLed(GetGreenLed()+1);
                      break;
   803c4:	0001883a 	nop
         default: printf("Error\n");
                  break;
      }
  }
   803c8:	003fcd06 	br	80300 <__alt_data_end+0xfff80300>

000803cc <main>:
  * @brief  Main-Routine
  * @details The main function creates two task and starts multi-tasking
  * @retval Errorcode
  */
int32_t main(void)
{
   803cc:	defff804 	addi	sp,sp,-32
   803d0:	dfc00715 	stw	ra,28(sp)
   803d4:	df000615 	stw	fp,24(sp)
   803d8:	df000604 	addi	fp,sp,24
  INT8U err;
  // -------- Events, Semaphor, Mutex , Mbx  ---------------------------
  // Define Key-Eventvariable
  KeyEvents = OSFlagCreate(0x0000,&err);
   803dc:	0009883a 	mov	r4,zero
   803e0:	e17fff04 	addi	r5,fp,-4
   803e4:	008d0900 	call	8d090 <OSFlagCreate>
   803e8:	d0a6e615 	stw	r2,-25704(gp)

  // -------------------- Tasks ----------------------------------------
  OSTaskCreateExt(RedLedSWtask,
   803ec:	00800144 	movi	r2,5
   803f0:	d8800015 	stw	r2,0(sp)
   803f4:	008002b4 	movhi	r2,10
   803f8:	10a9f904 	addi	r2,r2,-22556
   803fc:	d8800115 	stw	r2,4(sp)
   80400:	00820004 	movi	r2,2048
   80404:	d8800215 	stw	r2,8(sp)
   80408:	d8000315 	stw	zero,12(sp)
   8040c:	d8000415 	stw	zero,16(sp)
   80410:	01000234 	movhi	r4,8
   80414:	21009d04 	addi	r4,r4,628
   80418:	000b883a 	mov	r5,zero
   8041c:	018002b4 	movhi	r6,10
   80420:	31b1f804 	addi	r6,r6,-14368
   80424:	01c00144 	movi	r7,5
   80428:	009117c0 	call	9117c <OSTaskCreateExt>
                  RedLedtask_stk,
                  TASK_STACKSIZE,
                  NULL,
                  0);

  OSTaskCreateExt(GreenLedIRQtask,
   8042c:	00800104 	movi	r2,4
   80430:	d8800015 	stw	r2,0(sp)
   80434:	008002b4 	movhi	r2,10
   80438:	10a1f904 	addi	r2,r2,-30748
   8043c:	d8800115 	stw	r2,4(sp)
   80440:	00820004 	movi	r2,2048
   80444:	d8800215 	stw	r2,8(sp)
   80448:	d8000315 	stw	zero,12(sp)
   8044c:	d8000415 	stw	zero,16(sp)
   80450:	01000234 	movhi	r4,8
   80454:	2100ab04 	addi	r4,r4,684
   80458:	000b883a 	mov	r5,zero
   8045c:	018002b4 	movhi	r6,10
   80460:	31a9f804 	addi	r6,r6,-22560
   80464:	01c00104 	movi	r7,4
   80468:	009117c0 	call	9117c <OSTaskCreateExt>
                  GREENLED_TASK_PRIORITY,
                  GreenLedtask_stk,
                  TASK_STACKSIZE,
                  NULL,
                  0);
  OSStart();
   8046c:	008b79c0 	call	8b79c <OSStart>
  return 0;
   80470:	0005883a 	mov	r2,zero
}
   80474:	e037883a 	mov	sp,fp
   80478:	dfc00117 	ldw	ra,4(sp)
   8047c:	df000017 	ldw	fp,0(sp)
   80480:	dec00204 	addi	sp,sp,8
   80484:	f800283a 	ret

00080488 <SetKeyReg>:
  *                      @arg Bit 2..0 interrupt request
  *                      @arg Bit 5..3 interrupt enable
  * @retval None
  */
 static __inline__ void SetKeyReg(uint32_t newkeyval)
{
   80488:	defffe04 	addi	sp,sp,-8
   8048c:	df000115 	stw	fp,4(sp)
   80490:	df000104 	addi	fp,sp,4
   80494:	e13fff15 	stw	r4,-4(fp)
    IOWR_INTERFACE_KEY(INTERFACE_COMP_0_BASE, newkeyval);
   80498:	e0ffff17 	ldw	r3,-4(fp)
   8049c:	0005883a 	mov	r2,zero
   804a0:	10c00035 	stwio	r3,0(r2)
}
   804a4:	e037883a 	mov	sp,fp
   804a8:	df000017 	ldw	fp,0(sp)
   804ac:	dec00104 	addi	sp,sp,4
   804b0:	f800283a 	ret

000804b4 <GetKeyReg>:
  * @retval keyValue : can be
  *                     @arg Bit 2..0 interrupt request
  *                     @arg Bit 5..3 interrupt enable
  */
 static __inline__ uint32_t GetKeyReg(void)
{
   804b4:	deffff04 	addi	sp,sp,-4
   804b8:	df000015 	stw	fp,0(sp)
   804bc:	d839883a 	mov	fp,sp
    return(IORD_INTERFACE_KEY(INTERFACE_COMP_0_BASE));
   804c0:	0005883a 	mov	r2,zero
   804c4:	10800037 	ldwio	r2,0(r2)
}
   804c8:	e037883a 	mov	sp,fp
   804cc:	df000017 	ldw	fp,0(sp)
   804d0:	dec00104 	addi	sp,sp,4
   804d4:	f800283a 	ret

000804d8 <switchesIRQhandler>:
  * @details set an event, depending on pressed key
  * @param  context : pointer to context variable (not used)
  * @retval none
  */
 void switchesIRQhandler(void * context)
{
   804d8:	defffb04 	addi	sp,sp,-20
   804dc:	dfc00415 	stw	ra,16(sp)
   804e0:	df000315 	stw	fp,12(sp)
   804e4:	df000304 	addi	fp,sp,12
   804e8:	e13fff15 	stw	r4,-4(fp)
   uint32_t isrsignals;
   INT8U err;

   OSIntEnter();
   804ec:	008b4cc0 	call	8b4cc <OSIntEnter>
   isrsignals =  GetKeyReg();
   804f0:	00804b40 	call	804b4 <GetKeyReg>
   804f4:	e0bffd15 	stw	r2,-12(fp)
   // Clear Request
   SetKeyReg(isrsignals & ~(INTERFACE_KEY_IR0_MSK |
   804f8:	e0fffd17 	ldw	r3,-12(fp)
   804fc:	00bffe04 	movi	r2,-8
   80500:	1884703a 	and	r2,r3,r2
   80504:	1009883a 	mov	r4,r2
   80508:	00804880 	call	80488 <SetKeyReg>
                            INTERFACE_KEY_IR1_MSK |
                            INTERFACE_KEY_IR2_MSK));

   isrsignals = isrsignals & (INTERFACE_KEY_IR0_MSK |
   8050c:	e0bffd17 	ldw	r2,-12(fp)
   80510:	108001cc 	andi	r2,r2,7
   80514:	e0bffd15 	stw	r2,-12(fp)
                              INTERFACE_KEY_IR1_MSK |
                              INTERFACE_KEY_IR2_MSK);
   // Send Event
   OSFlagPost(KeyEvents, isrsignals, OS_FLAG_SET, &err);
   80518:	008002b4 	movhi	r2,10
   8051c:	10a1c704 	addi	r2,r2,-30948
   80520:	11000017 	ldw	r4,0(r2)
   80524:	e0bffd17 	ldw	r2,-12(fp)
   80528:	10ffffcc 	andi	r3,r2,65535
   8052c:	e0bffe04 	addi	r2,fp,-8
   80530:	180b883a 	mov	r5,r3
   80534:	01800044 	movi	r6,1
   80538:	100f883a 	mov	r7,r2
   8053c:	008dd140 	call	8dd14 <OSFlagPost>
   OSIntExit();
   80540:	008b5480 	call	8b548 <OSIntExit>
}
   80544:	e037883a 	mov	sp,fp
   80548:	dfc00117 	ldw	ra,4(sp)
   8054c:	df000017 	ldw	fp,0(sp)
   80550:	dec00204 	addi	sp,sp,8
   80554:	f800283a 	ret

00080558 <_printf_r>:
   80558:	defffd04 	addi	sp,sp,-12
   8055c:	dfc00015 	stw	ra,0(sp)
   80560:	d9800115 	stw	r6,4(sp)
   80564:	d9c00215 	stw	r7,8(sp)
   80568:	280d883a 	mov	r6,r5
   8056c:	21400217 	ldw	r5,8(r4)
   80570:	d9c00104 	addi	r7,sp,4
   80574:	00807180 	call	80718 <___vfprintf_internal_r>
   80578:	dfc00017 	ldw	ra,0(sp)
   8057c:	dec00304 	addi	sp,sp,12
   80580:	f800283a 	ret

00080584 <printf>:
   80584:	defffc04 	addi	sp,sp,-16
   80588:	dfc00015 	stw	ra,0(sp)
   8058c:	d9400115 	stw	r5,4(sp)
   80590:	d9800215 	stw	r6,8(sp)
   80594:	d9c00315 	stw	r7,12(sp)
   80598:	00800274 	movhi	r2,9
   8059c:	109ae204 	addi	r2,r2,27528
   805a0:	10800017 	ldw	r2,0(r2)
   805a4:	200b883a 	mov	r5,r4
   805a8:	d9800104 	addi	r6,sp,4
   805ac:	11000217 	ldw	r4,8(r2)
   805b0:	00825940 	call	82594 <__vfprintf_internal>
   805b4:	dfc00017 	ldw	ra,0(sp)
   805b8:	dec00404 	addi	sp,sp,16
   805bc:	f800283a 	ret

000805c0 <_puts_r>:
   805c0:	defff604 	addi	sp,sp,-40
   805c4:	dc400815 	stw	r17,32(sp)
   805c8:	2023883a 	mov	r17,r4
   805cc:	2809883a 	mov	r4,r5
   805d0:	dc000715 	stw	r16,28(sp)
   805d4:	dfc00915 	stw	ra,36(sp)
   805d8:	2821883a 	mov	r16,r5
   805dc:	00806580 	call	80658 <strlen>
   805e0:	10c00044 	addi	r3,r2,1
   805e4:	d8800115 	stw	r2,4(sp)
   805e8:	89400217 	ldw	r5,8(r17)
   805ec:	00800274 	movhi	r2,9
   805f0:	10934604 	addi	r2,r2,19736
   805f4:	d8800215 	stw	r2,8(sp)
   805f8:	00800044 	movi	r2,1
   805fc:	d8800315 	stw	r2,12(sp)
   80600:	8809883a 	mov	r4,r17
   80604:	00800084 	movi	r2,2
   80608:	d9800404 	addi	r6,sp,16
   8060c:	dc000015 	stw	r16,0(sp)
   80610:	d8c00615 	stw	r3,24(sp)
   80614:	dec00415 	stw	sp,16(sp)
   80618:	d8800515 	stw	r2,20(sp)
   8061c:	00848940 	call	84894 <__sfvwrite_r>
   80620:	1000061e 	bne	r2,zero,8063c <_puts_r+0x7c>
   80624:	00800284 	movi	r2,10
   80628:	dfc00917 	ldw	ra,36(sp)
   8062c:	dc400817 	ldw	r17,32(sp)
   80630:	dc000717 	ldw	r16,28(sp)
   80634:	dec00a04 	addi	sp,sp,40
   80638:	f800283a 	ret
   8063c:	00bfffc4 	movi	r2,-1
   80640:	003ff906 	br	80628 <__alt_data_end+0xfff80628>

00080644 <puts>:
   80644:	00800274 	movhi	r2,9
   80648:	109ae204 	addi	r2,r2,27528
   8064c:	200b883a 	mov	r5,r4
   80650:	11000017 	ldw	r4,0(r2)
   80654:	00805c01 	jmpi	805c0 <_puts_r>

00080658 <strlen>:
   80658:	208000cc 	andi	r2,r4,3
   8065c:	10001f1e 	bne	r2,zero,806dc <strlen+0x84>
   80660:	20800017 	ldw	r2,0(r4)
   80664:	01ffbff4 	movhi	r7,65279
   80668:	39ffbfc4 	addi	r7,r7,-257
   8066c:	01a02074 	movhi	r6,32897
   80670:	31a02004 	addi	r6,r6,-32640
   80674:	11c7883a 	add	r3,r2,r7
   80678:	0084303a 	nor	r2,zero,r2
   8067c:	1886703a 	and	r3,r3,r2
   80680:	1986703a 	and	r3,r3,r6
   80684:	2005883a 	mov	r2,r4
   80688:	1800101e 	bne	r3,zero,806cc <strlen+0x74>
   8068c:	10800104 	addi	r2,r2,4
   80690:	10c00017 	ldw	r3,0(r2)
   80694:	19cb883a 	add	r5,r3,r7
   80698:	00c6303a 	nor	r3,zero,r3
   8069c:	28c6703a 	and	r3,r5,r3
   806a0:	1986703a 	and	r3,r3,r6
   806a4:	1800091e 	bne	r3,zero,806cc <strlen+0x74>
   806a8:	10800104 	addi	r2,r2,4
   806ac:	10c00017 	ldw	r3,0(r2)
   806b0:	19cb883a 	add	r5,r3,r7
   806b4:	00c6303a 	nor	r3,zero,r3
   806b8:	28c6703a 	and	r3,r5,r3
   806bc:	1986703a 	and	r3,r3,r6
   806c0:	183ff226 	beq	r3,zero,8068c <__alt_data_end+0xfff8068c>
   806c4:	00000106 	br	806cc <strlen+0x74>
   806c8:	10800044 	addi	r2,r2,1
   806cc:	10c00007 	ldb	r3,0(r2)
   806d0:	183ffd1e 	bne	r3,zero,806c8 <__alt_data_end+0xfff806c8>
   806d4:	1105c83a 	sub	r2,r2,r4
   806d8:	f800283a 	ret
   806dc:	2005883a 	mov	r2,r4
   806e0:	003ffa06 	br	806cc <__alt_data_end+0xfff806cc>

000806e4 <__sprint_r>:
   806e4:	30800217 	ldw	r2,8(r6)
   806e8:	defffe04 	addi	sp,sp,-8
   806ec:	dc000015 	stw	r16,0(sp)
   806f0:	dfc00115 	stw	ra,4(sp)
   806f4:	3021883a 	mov	r16,r6
   806f8:	10000226 	beq	r2,zero,80704 <__sprint_r+0x20>
   806fc:	00848940 	call	84894 <__sfvwrite_r>
   80700:	80000215 	stw	zero,8(r16)
   80704:	80000115 	stw	zero,4(r16)
   80708:	dfc00117 	ldw	ra,4(sp)
   8070c:	dc000017 	ldw	r16,0(sp)
   80710:	dec00204 	addi	sp,sp,8
   80714:	f800283a 	ret

00080718 <___vfprintf_internal_r>:
   80718:	defeb904 	addi	sp,sp,-1308
   8071c:	dc013d15 	stw	r16,1268(sp)
   80720:	d9013015 	stw	r4,1216(sp)
   80724:	dfc14615 	stw	ra,1304(sp)
   80728:	df014515 	stw	fp,1300(sp)
   8072c:	ddc14415 	stw	r23,1296(sp)
   80730:	dd814315 	stw	r22,1292(sp)
   80734:	dd414215 	stw	r21,1288(sp)
   80738:	dd014115 	stw	r20,1284(sp)
   8073c:	dcc14015 	stw	r19,1280(sp)
   80740:	dc813f15 	stw	r18,1276(sp)
   80744:	dc413e15 	stw	r17,1272(sp)
   80748:	d9412915 	stw	r5,1188(sp)
   8074c:	3021883a 	mov	r16,r6
   80750:	d9c12d15 	stw	r7,1204(sp)
   80754:	0084f800 	call	84f80 <_localeconv_r>
   80758:	10800017 	ldw	r2,0(r2)
   8075c:	d9013017 	ldw	r4,1216(sp)
   80760:	d8013315 	stw	zero,1228(sp)
   80764:	d8813715 	stw	r2,1244(sp)
   80768:	d8013415 	stw	zero,1232(sp)
   8076c:	20000226 	beq	r4,zero,80778 <___vfprintf_internal_r+0x60>
   80770:	20800e17 	ldw	r2,56(r4)
   80774:	10014b26 	beq	r2,zero,80ca4 <___vfprintf_internal_r+0x58c>
   80778:	d8c12917 	ldw	r3,1188(sp)
   8077c:	1880030b 	ldhu	r2,12(r3)
   80780:	10c0020c 	andi	r3,r2,8
   80784:	18ffffcc 	andi	r3,r3,65535
   80788:	18e0001c 	xori	r3,r3,32768
   8078c:	18e00004 	addi	r3,r3,-32768
   80790:	1800ed26 	beq	r3,zero,80b48 <___vfprintf_internal_r+0x430>
   80794:	d9012917 	ldw	r4,1188(sp)
   80798:	20c00417 	ldw	r3,16(r4)
   8079c:	1800ea26 	beq	r3,zero,80b48 <___vfprintf_internal_r+0x430>
   807a0:	1100068c 	andi	r4,r2,26
   807a4:	00c00284 	movi	r3,10
   807a8:	20c0f026 	beq	r4,r3,80b6c <___vfprintf_internal_r+0x454>
   807ac:	d9010dc4 	addi	r4,sp,1079
   807b0:	d8810e04 	addi	r2,sp,1080
   807b4:	dc413017 	ldw	r17,1216(sp)
   807b8:	d8c00404 	addi	r3,sp,16
   807bc:	d9012615 	stw	r4,1176(sp)
   807c0:	1109c83a 	sub	r4,r2,r4
   807c4:	d8812715 	stw	r2,1180(sp)
   807c8:	d8c11b15 	stw	r3,1132(sp)
   807cc:	d8011d15 	stw	zero,1140(sp)
   807d0:	d8011c15 	stw	zero,1136(sp)
   807d4:	802b883a 	mov	r21,r16
   807d8:	d8013215 	stw	zero,1224(sp)
   807dc:	d8013615 	stw	zero,1240(sp)
   807e0:	d8013515 	stw	zero,1236(sp)
   807e4:	d8012c15 	stw	zero,1200(sp)
   807e8:	1813883a 	mov	r9,r3
   807ec:	d9013915 	stw	r4,1252(sp)
   807f0:	a8800007 	ldb	r2,0(r21)
   807f4:	1002f326 	beq	r2,zero,813c4 <___vfprintf_internal_r+0xcac>
   807f8:	00c00944 	movi	r3,37
   807fc:	a825883a 	mov	r18,r21
   80800:	10c0021e 	bne	r2,r3,8080c <___vfprintf_internal_r+0xf4>
   80804:	00001406 	br	80858 <___vfprintf_internal_r+0x140>
   80808:	10c00326 	beq	r2,r3,80818 <___vfprintf_internal_r+0x100>
   8080c:	94800044 	addi	r18,r18,1
   80810:	90800007 	ldb	r2,0(r18)
   80814:	103ffc1e 	bne	r2,zero,80808 <__alt_data_end+0xfff80808>
   80818:	9561c83a 	sub	r16,r18,r21
   8081c:	80000e26 	beq	r16,zero,80858 <___vfprintf_internal_r+0x140>
   80820:	da011d17 	ldw	r8,1140(sp)
   80824:	d8c11c17 	ldw	r3,1136(sp)
   80828:	4d400015 	stw	r21,0(r9)
   8082c:	4c000115 	stw	r16,4(r9)
   80830:	4411883a 	add	r8,r8,r16
   80834:	18c00044 	addi	r3,r3,1
   80838:	da011d15 	stw	r8,1140(sp)
   8083c:	d8c11c15 	stw	r3,1136(sp)
   80840:	008001c4 	movi	r2,7
   80844:	10c11016 	blt	r2,r3,80c88 <___vfprintf_internal_r+0x570>
   80848:	4a400204 	addi	r9,r9,8
   8084c:	d8812c17 	ldw	r2,1200(sp)
   80850:	1405883a 	add	r2,r2,r16
   80854:	d8812c15 	stw	r2,1200(sp)
   80858:	90800007 	ldb	r2,0(r18)
   8085c:	1000ee26 	beq	r2,zero,80c18 <___vfprintf_internal_r+0x500>
   80860:	95400044 	addi	r21,r18,1
   80864:	94800047 	ldb	r18,1(r18)
   80868:	073fffc4 	movi	fp,-1
   8086c:	e007883a 	mov	r3,fp
   80870:	d8012585 	stb	zero,1174(sp)
   80874:	d8012e15 	stw	zero,1208(sp)
   80878:	0021883a 	mov	r16,zero
   8087c:	05001604 	movi	r20,88
   80880:	04c00244 	movi	r19,9
   80884:	4839883a 	mov	fp,r9
   80888:	ad400044 	addi	r21,r21,1
   8088c:	90bff804 	addi	r2,r18,-32
   80890:	a080462e 	bgeu	r20,r2,809ac <___vfprintf_internal_r+0x294>
   80894:	e013883a 	mov	r9,fp
   80898:	9000df26 	beq	r18,zero,80c18 <___vfprintf_internal_r+0x500>
   8089c:	00c00044 	movi	r3,1
   808a0:	d8c12815 	stw	r3,1184(sp)
   808a4:	dc810405 	stb	r18,1040(sp)
   808a8:	d8012585 	stb	zero,1174(sp)
   808ac:	d8c12b15 	stw	r3,1196(sp)
   808b0:	dcc10404 	addi	r19,sp,1040
   808b4:	d8013115 	stw	zero,1220(sp)
   808b8:	80c0008c 	andi	r3,r16,2
   808bc:	d8c12a15 	stw	r3,1192(sp)
   808c0:	18000326 	beq	r3,zero,808d0 <___vfprintf_internal_r+0x1b8>
   808c4:	d8c12817 	ldw	r3,1184(sp)
   808c8:	18c00084 	addi	r3,r3,2
   808cc:	d8c12815 	stw	r3,1184(sp)
   808d0:	80c0210c 	andi	r3,r16,132
   808d4:	d8c12f15 	stw	r3,1212(sp)
   808d8:	1802251e 	bne	r3,zero,81170 <___vfprintf_internal_r+0xa58>
   808dc:	d9012e17 	ldw	r4,1208(sp)
   808e0:	d8c12817 	ldw	r3,1184(sp)
   808e4:	20edc83a 	sub	r22,r4,r3
   808e8:	0582210e 	bge	zero,r22,81170 <___vfprintf_internal_r+0xa58>
   808ec:	02800404 	movi	r10,16
   808f0:	da011d17 	ldw	r8,1140(sp)
   808f4:	d8c11c17 	ldw	r3,1136(sp)
   808f8:	05c00274 	movhi	r23,9
   808fc:	bdd35784 	addi	r23,r23,19806
   80900:	5580200e 	bge	r10,r22,80984 <___vfprintf_internal_r+0x26c>
   80904:	dc813815 	stw	r18,1248(sp)
   80908:	5039883a 	mov	fp,r10
   8090c:	b825883a 	mov	r18,r23
   80910:	050001c4 	movi	r20,7
   80914:	b02f883a 	mov	r23,r22
   80918:	802d883a 	mov	r22,r16
   8091c:	dc012917 	ldw	r16,1188(sp)
   80920:	00000306 	br	80930 <___vfprintf_internal_r+0x218>
   80924:	bdfffc04 	addi	r23,r23,-16
   80928:	4a400204 	addi	r9,r9,8
   8092c:	e5c0110e 	bge	fp,r23,80974 <___vfprintf_internal_r+0x25c>
   80930:	4c800015 	stw	r18,0(r9)
   80934:	4f000115 	stw	fp,4(r9)
   80938:	42000404 	addi	r8,r8,16
   8093c:	18c00044 	addi	r3,r3,1
   80940:	da011d15 	stw	r8,1140(sp)
   80944:	d8c11c15 	stw	r3,1136(sp)
   80948:	a0fff60e 	bge	r20,r3,80924 <__alt_data_end+0xfff80924>
   8094c:	8809883a 	mov	r4,r17
   80950:	800b883a 	mov	r5,r16
   80954:	d9811b04 	addi	r6,sp,1132
   80958:	00806e40 	call	806e4 <__sprint_r>
   8095c:	1000b41e 	bne	r2,zero,80c30 <___vfprintf_internal_r+0x518>
   80960:	bdfffc04 	addi	r23,r23,-16
   80964:	da011d17 	ldw	r8,1140(sp)
   80968:	d8c11c17 	ldw	r3,1136(sp)
   8096c:	da400404 	addi	r9,sp,16
   80970:	e5ffef16 	blt	fp,r23,80930 <__alt_data_end+0xfff80930>
   80974:	b021883a 	mov	r16,r22
   80978:	b82d883a 	mov	r22,r23
   8097c:	902f883a 	mov	r23,r18
   80980:	dc813817 	ldw	r18,1248(sp)
   80984:	4dc00015 	stw	r23,0(r9)
   80988:	4d800115 	stw	r22,4(r9)
   8098c:	4591883a 	add	r8,r8,r22
   80990:	18c00044 	addi	r3,r3,1
   80994:	da011d15 	stw	r8,1140(sp)
   80998:	d8c11c15 	stw	r3,1136(sp)
   8099c:	008001c4 	movi	r2,7
   809a0:	10c3fe16 	blt	r2,r3,8199c <___vfprintf_internal_r+0x1284>
   809a4:	4a400204 	addi	r9,r9,8
   809a8:	0001f306 	br	81178 <___vfprintf_internal_r+0xa60>
   809ac:	1085883a 	add	r2,r2,r2
   809b0:	1085883a 	add	r2,r2,r2
   809b4:	01000234 	movhi	r4,8
   809b8:	21027204 	addi	r4,r4,2504
   809bc:	1105883a 	add	r2,r2,r4
   809c0:	10800017 	ldw	r2,0(r2)
   809c4:	1000683a 	jmp	r2
   809c8:	000810a4 	muli	zero,zero,8258
   809cc:	00080894 	movui	zero,8226
   809d0:	00080894 	movui	zero,8226
   809d4:	000810bc 	xorhi	zero,zero,8258
   809d8:	00080894 	movui	zero,8226
   809dc:	00080894 	movui	zero,8226
   809e0:	00080894 	movui	zero,8226
   809e4:	00080894 	movui	zero,8226
   809e8:	00080894 	movui	zero,8226
   809ec:	00080894 	movui	zero,8226
   809f0:	00080f74 	movhi	zero,8253
   809f4:	00081108 	cmpgei	zero,zero,8260
   809f8:	00080894 	movui	zero,8226
   809fc:	00080b3c 	xorhi	zero,zero,8236
   80a00:	00080edc 	xori	zero,zero,8251
   80a04:	00080894 	movui	zero,8226
   80a08:	000810c8 	cmpgei	zero,zero,8259
   80a0c:	000810d4 	movui	zero,8259
   80a10:	000810d4 	movui	zero,8259
   80a14:	000810d4 	movui	zero,8259
   80a18:	000810d4 	movui	zero,8259
   80a1c:	000810d4 	movui	zero,8259
   80a20:	000810d4 	movui	zero,8259
   80a24:	000810d4 	movui	zero,8259
   80a28:	000810d4 	movui	zero,8259
   80a2c:	000810d4 	movui	zero,8259
   80a30:	00080894 	movui	zero,8226
   80a34:	00080894 	movui	zero,8226
   80a38:	00080894 	movui	zero,8226
   80a3c:	00080894 	movui	zero,8226
   80a40:	00080894 	movui	zero,8226
   80a44:	00080894 	movui	zero,8226
   80a48:	00080894 	movui	zero,8226
   80a4c:	00080894 	movui	zero,8226
   80a50:	00080894 	movui	zero,8226
   80a54:	00080894 	movui	zero,8226
   80a58:	00080cac 	andhi	zero,zero,8242
   80a5c:	00080d6c 	andhi	zero,zero,8245
   80a60:	00080894 	movui	zero,8226
   80a64:	00080d6c 	andhi	zero,zero,8245
   80a68:	00080894 	movui	zero,8226
   80a6c:	00080894 	movui	zero,8226
   80a70:	00080894 	movui	zero,8226
   80a74:	00080894 	movui	zero,8226
   80a78:	00080e00 	call	80e0 <OSCtxSw_SWITCH_PC+0x80a0>
   80a7c:	00080894 	movui	zero,8226
   80a80:	00080894 	movui	zero,8226
   80a84:	00080e0c 	andi	zero,zero,8248
   80a88:	00080894 	movui	zero,8226
   80a8c:	00080894 	movui	zero,8226
   80a90:	00080894 	movui	zero,8226
   80a94:	00080894 	movui	zero,8226
   80a98:	00080894 	movui	zero,8226
   80a9c:	00080e44 	movi	zero,8249
   80aa0:	00080894 	movui	zero,8226
   80aa4:	00080894 	movui	zero,8226
   80aa8:	00080e80 	call	80e8 <OSCtxSw_SWITCH_PC+0x80a8>
   80aac:	00080894 	movui	zero,8226
   80ab0:	00080894 	movui	zero,8226
   80ab4:	00080894 	movui	zero,8226
   80ab8:	00080894 	movui	zero,8226
   80abc:	00080894 	movui	zero,8226
   80ac0:	00080894 	movui	zero,8226
   80ac4:	00080894 	movui	zero,8226
   80ac8:	00080894 	movui	zero,8226
   80acc:	00080894 	movui	zero,8226
   80ad0:	00080894 	movui	zero,8226
   80ad4:	00081118 	cmpnei	zero,zero,8260
   80ad8:	0008114c 	andi	zero,zero,8261
   80adc:	00080d6c 	andhi	zero,zero,8245
   80ae0:	00080d6c 	andhi	zero,zero,8245
   80ae4:	00080d6c 	andhi	zero,zero,8245
   80ae8:	00081098 	cmpnei	zero,zero,8258
   80aec:	0008114c 	andi	zero,zero,8261
   80af0:	00080894 	movui	zero,8226
   80af4:	00080894 	movui	zero,8226
   80af8:	00080f24 	muli	zero,zero,8252
   80afc:	00080894 	movui	zero,8226
   80b00:	00080f3c 	xorhi	zero,zero,8252
   80b04:	00081158 	cmpnei	zero,zero,8261
   80b08:	00080f9c 	xori	zero,zero,8254
   80b0c:	00080fec 	andhi	zero,zero,8255
   80b10:	00080894 	movui	zero,8226
   80b14:	00080ff8 	rdprs	zero,zero,8255
   80b18:	00080894 	movui	zero,8226
   80b1c:	00081164 	muli	zero,zero,8261
   80b20:	00080894 	movui	zero,8226
   80b24:	00080894 	movui	zero,8226
   80b28:	0008105c 	xori	zero,zero,8257
   80b2c:	d9012e17 	ldw	r4,1208(sp)
   80b30:	d8812d15 	stw	r2,1204(sp)
   80b34:	0109c83a 	sub	r4,zero,r4
   80b38:	d9012e15 	stw	r4,1208(sp)
   80b3c:	84000114 	ori	r16,r16,4
   80b40:	ac800007 	ldb	r18,0(r21)
   80b44:	003f5006 	br	80888 <__alt_data_end+0xfff80888>
   80b48:	d9013017 	ldw	r4,1216(sp)
   80b4c:	d9412917 	ldw	r5,1188(sp)
   80b50:	00825b80 	call	825b8 <__swsetup_r>
   80b54:	10003d1e 	bne	r2,zero,80c4c <___vfprintf_internal_r+0x534>
   80b58:	d8c12917 	ldw	r3,1188(sp)
   80b5c:	1880030b 	ldhu	r2,12(r3)
   80b60:	00c00284 	movi	r3,10
   80b64:	1100068c 	andi	r4,r2,26
   80b68:	20ff101e 	bne	r4,r3,807ac <__alt_data_end+0xfff807ac>
   80b6c:	d9012917 	ldw	r4,1188(sp)
   80b70:	20c0038b 	ldhu	r3,14(r4)
   80b74:	193fffcc 	andi	r4,r3,65535
   80b78:	2120001c 	xori	r4,r4,32768
   80b7c:	21200004 	addi	r4,r4,-32768
   80b80:	203f0a16 	blt	r4,zero,807ac <__alt_data_end+0xfff807ac>
   80b84:	d9012917 	ldw	r4,1188(sp)
   80b88:	d9c12d17 	ldw	r7,1204(sp)
   80b8c:	10bfff4c 	andi	r2,r2,65533
   80b90:	22800717 	ldw	r10,28(r4)
   80b94:	22400917 	ldw	r9,36(r4)
   80b98:	d9013017 	ldw	r4,1216(sp)
   80b9c:	02010004 	movi	r8,1024
   80ba0:	d881070d 	sth	r2,1052(sp)
   80ba4:	d9410404 	addi	r5,sp,1040
   80ba8:	d8800404 	addi	r2,sp,16
   80bac:	800d883a 	mov	r6,r16
   80bb0:	d8c1078d 	sth	r3,1054(sp)
   80bb4:	da810b15 	stw	r10,1068(sp)
   80bb8:	da410d15 	stw	r9,1076(sp)
   80bbc:	d8810415 	stw	r2,1040(sp)
   80bc0:	d8810815 	stw	r2,1056(sp)
   80bc4:	da010615 	stw	r8,1048(sp)
   80bc8:	da010915 	stw	r8,1060(sp)
   80bcc:	d8010a15 	stw	zero,1064(sp)
   80bd0:	00807180 	call	80718 <___vfprintf_internal_r>
   80bd4:	d8812c15 	stw	r2,1200(sp)
   80bd8:	10000416 	blt	r2,zero,80bec <___vfprintf_internal_r+0x4d4>
   80bdc:	d9013017 	ldw	r4,1216(sp)
   80be0:	d9410404 	addi	r5,sp,1040
   80be4:	0083f840 	call	83f84 <_fflush_r>
   80be8:	1006501e 	bne	r2,zero,8252c <___vfprintf_internal_r+0x1e14>
   80bec:	d881070b 	ldhu	r2,1052(sp)
   80bf0:	1080100c 	andi	r2,r2,64
   80bf4:	10bfffcc 	andi	r2,r2,65535
   80bf8:	10a0001c 	xori	r2,r2,32768
   80bfc:	10a00004 	addi	r2,r2,-32768
   80c00:	10001426 	beq	r2,zero,80c54 <___vfprintf_internal_r+0x53c>
   80c04:	d8c12917 	ldw	r3,1188(sp)
   80c08:	1880030b 	ldhu	r2,12(r3)
   80c0c:	10801014 	ori	r2,r2,64
   80c10:	1880030d 	sth	r2,12(r3)
   80c14:	00000f06 	br	80c54 <___vfprintf_internal_r+0x53c>
   80c18:	d8811d17 	ldw	r2,1140(sp)
   80c1c:	10000426 	beq	r2,zero,80c30 <___vfprintf_internal_r+0x518>
   80c20:	d9013017 	ldw	r4,1216(sp)
   80c24:	d9412917 	ldw	r5,1188(sp)
   80c28:	d9811b04 	addi	r6,sp,1132
   80c2c:	00806e40 	call	806e4 <__sprint_r>
   80c30:	d8c12917 	ldw	r3,1188(sp)
   80c34:	1880030b 	ldhu	r2,12(r3)
   80c38:	1080100c 	andi	r2,r2,64
   80c3c:	10bfffcc 	andi	r2,r2,65535
   80c40:	10a0001c 	xori	r2,r2,32768
   80c44:	10a00004 	addi	r2,r2,-32768
   80c48:	10000226 	beq	r2,zero,80c54 <___vfprintf_internal_r+0x53c>
   80c4c:	00bfffc4 	movi	r2,-1
   80c50:	d8812c15 	stw	r2,1200(sp)
   80c54:	d8812c17 	ldw	r2,1200(sp)
   80c58:	dfc14617 	ldw	ra,1304(sp)
   80c5c:	df014517 	ldw	fp,1300(sp)
   80c60:	ddc14417 	ldw	r23,1296(sp)
   80c64:	dd814317 	ldw	r22,1292(sp)
   80c68:	dd414217 	ldw	r21,1288(sp)
   80c6c:	dd014117 	ldw	r20,1284(sp)
   80c70:	dcc14017 	ldw	r19,1280(sp)
   80c74:	dc813f17 	ldw	r18,1276(sp)
   80c78:	dc413e17 	ldw	r17,1272(sp)
   80c7c:	dc013d17 	ldw	r16,1268(sp)
   80c80:	dec14704 	addi	sp,sp,1308
   80c84:	f800283a 	ret
   80c88:	d9412917 	ldw	r5,1188(sp)
   80c8c:	8809883a 	mov	r4,r17
   80c90:	d9811b04 	addi	r6,sp,1132
   80c94:	00806e40 	call	806e4 <__sprint_r>
   80c98:	103fe51e 	bne	r2,zero,80c30 <__alt_data_end+0xfff80c30>
   80c9c:	da400404 	addi	r9,sp,16
   80ca0:	003eea06 	br	8084c <__alt_data_end+0xfff8084c>
   80ca4:	00842400 	call	84240 <__sinit>
   80ca8:	003eb306 	br	80778 <__alt_data_end+0xfff80778>
   80cac:	e013883a 	mov	r9,fp
   80cb0:	84000414 	ori	r16,r16,16
   80cb4:	1839883a 	mov	fp,r3
   80cb8:	8080080c 	andi	r2,r16,32
   80cbc:	10034426 	beq	r2,zero,819d0 <___vfprintf_internal_r+0x12b8>
   80cc0:	d8c12d17 	ldw	r3,1204(sp)
   80cc4:	18800117 	ldw	r2,4(r3)
   80cc8:	1dc00017 	ldw	r23,0(r3)
   80ccc:	18c00204 	addi	r3,r3,8
   80cd0:	d8c12d15 	stw	r3,1204(sp)
   80cd4:	102d883a 	mov	r22,r2
   80cd8:	1003020e 	bge	r2,zero,818e4 <___vfprintf_internal_r+0x11cc>
   80cdc:	05efc83a 	sub	r23,zero,r23
   80ce0:	b804c03a 	cmpne	r2,r23,zero
   80ce4:	05adc83a 	sub	r22,zero,r22
   80ce8:	b0adc83a 	sub	r22,r22,r2
   80cec:	00800b44 	movi	r2,45
   80cf0:	d8812585 	stb	r2,1174(sp)
   80cf4:	00c00044 	movi	r3,1
   80cf8:	bd84b03a 	or	r2,r23,r22
   80cfc:	e0000216 	blt	fp,zero,80d08 <___vfprintf_internal_r+0x5f0>
   80d00:	013fdfc4 	movi	r4,-129
   80d04:	8120703a 	and	r16,r16,r4
   80d08:	1001cc1e 	bne	r2,zero,8143c <___vfprintf_internal_r+0xd24>
   80d0c:	e001cb1e 	bne	fp,zero,8143c <___vfprintf_internal_r+0xd24>
   80d10:	18c03fcc 	andi	r3,r3,255
   80d14:	1802ca1e 	bne	r3,zero,81840 <___vfprintf_internal_r+0x1128>
   80d18:	8080004c 	andi	r2,r16,1
   80d1c:	1002c826 	beq	r2,zero,81840 <___vfprintf_internal_r+0x1128>
   80d20:	d8c13917 	ldw	r3,1252(sp)
   80d24:	00800c04 	movi	r2,48
   80d28:	d8810dc5 	stb	r2,1079(sp)
   80d2c:	d8c12b15 	stw	r3,1196(sp)
   80d30:	dcc10dc4 	addi	r19,sp,1079
   80d34:	d8812b17 	ldw	r2,1196(sp)
   80d38:	d8812815 	stw	r2,1184(sp)
   80d3c:	1700010e 	bge	r2,fp,80d44 <___vfprintf_internal_r+0x62c>
   80d40:	df012815 	stw	fp,1184(sp)
   80d44:	d8812583 	ldbu	r2,1174(sp)
   80d48:	df013115 	stw	fp,1220(sp)
   80d4c:	10803fcc 	andi	r2,r2,255
   80d50:	1080201c 	xori	r2,r2,128
   80d54:	10bfe004 	addi	r2,r2,-128
   80d58:	103ed726 	beq	r2,zero,808b8 <__alt_data_end+0xfff808b8>
   80d5c:	d8c12817 	ldw	r3,1184(sp)
   80d60:	18c00044 	addi	r3,r3,1
   80d64:	d8c12815 	stw	r3,1184(sp)
   80d68:	003ed306 	br	808b8 <__alt_data_end+0xfff808b8>
   80d6c:	8080020c 	andi	r2,r16,8
   80d70:	e013883a 	mov	r9,fp
   80d74:	1839883a 	mov	fp,r3
   80d78:	1003a626 	beq	r2,zero,81c14 <___vfprintf_internal_r+0x14fc>
   80d7c:	d9012d17 	ldw	r4,1204(sp)
   80d80:	25800017 	ldw	r22,0(r4)
   80d84:	25000117 	ldw	r20,4(r4)
   80d88:	21000204 	addi	r4,r4,8
   80d8c:	d9012d15 	stw	r4,1204(sp)
   80d90:	dd813315 	stw	r22,1228(sp)
   80d94:	dd013415 	stw	r20,1232(sp)
   80d98:	b009883a 	mov	r4,r22
   80d9c:	a00b883a 	mov	r5,r20
   80da0:	da413c15 	stw	r9,1264(sp)
   80da4:	00873cc0 	call	873cc <__isinfd>
   80da8:	da413c17 	ldw	r9,1264(sp)
   80dac:	b009883a 	mov	r4,r22
   80db0:	a00b883a 	mov	r5,r20
   80db4:	10041d26 	beq	r2,zero,81e2c <___vfprintf_internal_r+0x1714>
   80db8:	000d883a 	mov	r6,zero
   80dbc:	000f883a 	mov	r7,zero
   80dc0:	00891a00 	call	891a0 <__ltdf2>
   80dc4:	da413c17 	ldw	r9,1264(sp)
   80dc8:	1004da16 	blt	r2,zero,82134 <___vfprintf_internal_r+0x1a1c>
   80dcc:	d8812583 	ldbu	r2,1174(sp)
   80dd0:	00c011c4 	movi	r3,71
   80dd4:	1c83d116 	blt	r3,r18,81d1c <___vfprintf_internal_r+0x1604>
   80dd8:	04c00274 	movhi	r19,9
   80ddc:	9cd34704 	addi	r19,r19,19740
   80de0:	00c000c4 	movi	r3,3
   80de4:	d8c12815 	stw	r3,1184(sp)
   80de8:	00ffdfc4 	movi	r3,-129
   80dec:	80e0703a 	and	r16,r16,r3
   80df0:	d8c12817 	ldw	r3,1184(sp)
   80df4:	d8013115 	stw	zero,1220(sp)
   80df8:	d8c12b15 	stw	r3,1196(sp)
   80dfc:	003fd306 	br	80d4c <__alt_data_end+0xfff80d4c>
   80e00:	84000214 	ori	r16,r16,8
   80e04:	ac800007 	ldb	r18,0(r21)
   80e08:	003e9f06 	br	80888 <__alt_data_end+0xfff80888>
   80e0c:	e013883a 	mov	r9,fp
   80e10:	84000414 	ori	r16,r16,16
   80e14:	1839883a 	mov	fp,r3
   80e18:	8080080c 	andi	r2,r16,32
   80e1c:	10031d26 	beq	r2,zero,81a94 <___vfprintf_internal_r+0x137c>
   80e20:	d8812d17 	ldw	r2,1204(sp)
   80e24:	0007883a 	mov	r3,zero
   80e28:	15c00017 	ldw	r23,0(r2)
   80e2c:	15800117 	ldw	r22,4(r2)
   80e30:	10800204 	addi	r2,r2,8
   80e34:	d8812d15 	stw	r2,1204(sp)
   80e38:	d8012585 	stb	zero,1174(sp)
   80e3c:	bd84b03a 	or	r2,r23,r22
   80e40:	003fae06 	br	80cfc <__alt_data_end+0xfff80cfc>
   80e44:	e013883a 	mov	r9,fp
   80e48:	84000414 	ori	r16,r16,16
   80e4c:	1839883a 	mov	fp,r3
   80e50:	8080080c 	andi	r2,r16,32
   80e54:	1002e726 	beq	r2,zero,819f4 <___vfprintf_internal_r+0x12dc>
   80e58:	d8c12d17 	ldw	r3,1204(sp)
   80e5c:	d9012d17 	ldw	r4,1204(sp)
   80e60:	1dc00017 	ldw	r23,0(r3)
   80e64:	1d800117 	ldw	r22,4(r3)
   80e68:	21000204 	addi	r4,r4,8
   80e6c:	00c00044 	movi	r3,1
   80e70:	d9012d15 	stw	r4,1204(sp)
   80e74:	bd84b03a 	or	r2,r23,r22
   80e78:	d8012585 	stb	zero,1174(sp)
   80e7c:	003f9f06 	br	80cfc <__alt_data_end+0xfff80cfc>
   80e80:	e013883a 	mov	r9,fp
   80e84:	1839883a 	mov	fp,r3
   80e88:	00c00274 	movhi	r3,9
   80e8c:	18d34b04 	addi	r3,r3,19756
   80e90:	d8c13615 	stw	r3,1240(sp)
   80e94:	8080080c 	andi	r2,r16,32
   80e98:	10007726 	beq	r2,zero,81078 <___vfprintf_internal_r+0x960>
   80e9c:	d9012d17 	ldw	r4,1204(sp)
   80ea0:	25c00017 	ldw	r23,0(r4)
   80ea4:	25800117 	ldw	r22,4(r4)
   80ea8:	21000204 	addi	r4,r4,8
   80eac:	d9012d15 	stw	r4,1204(sp)
   80eb0:	8080004c 	andi	r2,r16,1
   80eb4:	1002c226 	beq	r2,zero,819c0 <___vfprintf_internal_r+0x12a8>
   80eb8:	bd84b03a 	or	r2,r23,r22
   80ebc:	10035d26 	beq	r2,zero,81c34 <___vfprintf_internal_r+0x151c>
   80ec0:	00c00c04 	movi	r3,48
   80ec4:	d8c12505 	stb	r3,1172(sp)
   80ec8:	dc812545 	stb	r18,1173(sp)
   80ecc:	84000094 	ori	r16,r16,2
   80ed0:	00c00084 	movi	r3,2
   80ed4:	d8012585 	stb	zero,1174(sp)
   80ed8:	003f8806 	br	80cfc <__alt_data_end+0xfff80cfc>
   80edc:	ac800007 	ldb	r18,0(r21)
   80ee0:	00c00a84 	movi	r3,42
   80ee4:	adc00044 	addi	r23,r21,1
   80ee8:	90c57526 	beq	r18,r3,824c0 <___vfprintf_internal_r+0x1da8>
   80eec:	95bff404 	addi	r22,r18,-48
   80ef0:	0009883a 	mov	r4,zero
   80ef4:	9d84ff36 	bltu	r19,r22,822f4 <___vfprintf_internal_r+0x1bdc>
   80ef8:	01400284 	movi	r5,10
   80efc:	00895e00 	call	895e0 <__mulsi3>
   80f00:	bc800007 	ldb	r18,0(r23)
   80f04:	b089883a 	add	r4,r22,r2
   80f08:	bdc00044 	addi	r23,r23,1
   80f0c:	95bff404 	addi	r22,r18,-48
   80f10:	9dbff92e 	bgeu	r19,r22,80ef8 <__alt_data_end+0xfff80ef8>
   80f14:	2007883a 	mov	r3,r4
   80f18:	20044316 	blt	r4,zero,82028 <___vfprintf_internal_r+0x1910>
   80f1c:	b82b883a 	mov	r21,r23
   80f20:	003e5a06 	br	8088c <__alt_data_end+0xfff8088c>
   80f24:	ac800007 	ldb	r18,0(r21)
   80f28:	01001b04 	movi	r4,108
   80f2c:	a805883a 	mov	r2,r21
   80f30:	91045526 	beq	r18,r4,82088 <___vfprintf_internal_r+0x1970>
   80f34:	84000414 	ori	r16,r16,16
   80f38:	003e5306 	br	80888 <__alt_data_end+0xfff80888>
   80f3c:	8080080c 	andi	r2,r16,32
   80f40:	e013883a 	mov	r9,fp
   80f44:	10034026 	beq	r2,zero,81c48 <___vfprintf_internal_r+0x1530>
   80f48:	d9012d17 	ldw	r4,1204(sp)
   80f4c:	20800017 	ldw	r2,0(r4)
   80f50:	d9012c17 	ldw	r4,1200(sp)
   80f54:	2007d7fa 	srai	r3,r4,31
   80f58:	d9012d17 	ldw	r4,1204(sp)
   80f5c:	10c00115 	stw	r3,4(r2)
   80f60:	21000104 	addi	r4,r4,4
   80f64:	d9012d15 	stw	r4,1204(sp)
   80f68:	d9012c17 	ldw	r4,1200(sp)
   80f6c:	11000015 	stw	r4,0(r2)
   80f70:	003e1f06 	br	807f0 <__alt_data_end+0xfff807f0>
   80f74:	d9012d17 	ldw	r4,1204(sp)
   80f78:	21000017 	ldw	r4,0(r4)
   80f7c:	d9012e15 	stw	r4,1208(sp)
   80f80:	d9012d17 	ldw	r4,1204(sp)
   80f84:	20800104 	addi	r2,r4,4
   80f88:	d9012e17 	ldw	r4,1208(sp)
   80f8c:	203ee716 	blt	r4,zero,80b2c <__alt_data_end+0xfff80b2c>
   80f90:	d8812d15 	stw	r2,1204(sp)
   80f94:	ac800007 	ldb	r18,0(r21)
   80f98:	003e3b06 	br	80888 <__alt_data_end+0xfff80888>
   80f9c:	e013883a 	mov	r9,fp
   80fa0:	1839883a 	mov	fp,r3
   80fa4:	d8c12d17 	ldw	r3,1204(sp)
   80fa8:	00800c04 	movi	r2,48
   80fac:	01000274 	movhi	r4,9
   80fb0:	21135004 	addi	r4,r4,19776
   80fb4:	1dc00017 	ldw	r23,0(r3)
   80fb8:	18c00104 	addi	r3,r3,4
   80fbc:	d8812505 	stb	r2,1172(sp)
   80fc0:	00801e04 	movi	r2,120
   80fc4:	d8812545 	stb	r2,1173(sp)
   80fc8:	d8c12d15 	stw	r3,1204(sp)
   80fcc:	002d883a 	mov	r22,zero
   80fd0:	84000094 	ori	r16,r16,2
   80fd4:	d9013615 	stw	r4,1240(sp)
   80fd8:	00c00084 	movi	r3,2
   80fdc:	04801e04 	movi	r18,120
   80fe0:	b805883a 	mov	r2,r23
   80fe4:	d8012585 	stb	zero,1174(sp)
   80fe8:	003f4406 	br	80cfc <__alt_data_end+0xfff80cfc>
   80fec:	84000814 	ori	r16,r16,32
   80ff0:	ac800007 	ldb	r18,0(r21)
   80ff4:	003e2406 	br	80888 <__alt_data_end+0xfff80888>
   80ff8:	d8812d17 	ldw	r2,1204(sp)
   80ffc:	d8012585 	stb	zero,1174(sp)
   81000:	e013883a 	mov	r9,fp
   81004:	14c00017 	ldw	r19,0(r2)
   81008:	1839883a 	mov	fp,r3
   8100c:	15c00104 	addi	r23,r2,4
   81010:	98045526 	beq	r19,zero,82168 <___vfprintf_internal_r+0x1a50>
   81014:	9809883a 	mov	r4,r19
   81018:	18043116 	blt	r3,zero,820e0 <___vfprintf_internal_r+0x19c8>
   8101c:	000b883a 	mov	r5,zero
   81020:	180d883a 	mov	r6,r3
   81024:	da413c15 	stw	r9,1264(sp)
   81028:	00858e00 	call	858e0 <memchr>
   8102c:	da413c17 	ldw	r9,1264(sp)
   81030:	10047a26 	beq	r2,zero,8221c <___vfprintf_internal_r+0x1b04>
   81034:	14c5c83a 	sub	r2,r2,r19
   81038:	d8812b15 	stw	r2,1196(sp)
   8103c:	e083d40e 	bge	fp,r2,81f90 <___vfprintf_internal_r+0x1878>
   81040:	df012815 	stw	fp,1184(sp)
   81044:	e004e416 	blt	fp,zero,823d8 <___vfprintf_internal_r+0x1cc0>
   81048:	d8812583 	ldbu	r2,1174(sp)
   8104c:	df012b15 	stw	fp,1196(sp)
   81050:	ddc12d15 	stw	r23,1204(sp)
   81054:	d8013115 	stw	zero,1220(sp)
   81058:	003f3c06 	br	80d4c <__alt_data_end+0xfff80d4c>
   8105c:	00800274 	movhi	r2,9
   81060:	10935004 	addi	r2,r2,19776
   81064:	d8813615 	stw	r2,1240(sp)
   81068:	8080080c 	andi	r2,r16,32
   8106c:	e013883a 	mov	r9,fp
   81070:	1839883a 	mov	fp,r3
   81074:	103f891e 	bne	r2,zero,80e9c <__alt_data_end+0xfff80e9c>
   81078:	8080040c 	andi	r2,r16,16
   8107c:	1002c326 	beq	r2,zero,81b8c <___vfprintf_internal_r+0x1474>
   81080:	d8812d17 	ldw	r2,1204(sp)
   81084:	002d883a 	mov	r22,zero
   81088:	15c00017 	ldw	r23,0(r2)
   8108c:	10800104 	addi	r2,r2,4
   81090:	d8812d15 	stw	r2,1204(sp)
   81094:	003f8606 	br	80eb0 <__alt_data_end+0xfff80eb0>
   81098:	84001014 	ori	r16,r16,64
   8109c:	ac800007 	ldb	r18,0(r21)
   810a0:	003df906 	br	80888 <__alt_data_end+0xfff80888>
   810a4:	d8812587 	ldb	r2,1174(sp)
   810a8:	1002e51e 	bne	r2,zero,81c40 <___vfprintf_internal_r+0x1528>
   810ac:	00800804 	movi	r2,32
   810b0:	d8812585 	stb	r2,1174(sp)
   810b4:	ac800007 	ldb	r18,0(r21)
   810b8:	003df306 	br	80888 <__alt_data_end+0xfff80888>
   810bc:	84000054 	ori	r16,r16,1
   810c0:	ac800007 	ldb	r18,0(r21)
   810c4:	003df006 	br	80888 <__alt_data_end+0xfff80888>
   810c8:	84002014 	ori	r16,r16,128
   810cc:	ac800007 	ldb	r18,0(r21)
   810d0:	003ded06 	br	80888 <__alt_data_end+0xfff80888>
   810d4:	0009883a 	mov	r4,zero
   810d8:	95bff404 	addi	r22,r18,-48
   810dc:	182f883a 	mov	r23,r3
   810e0:	01400284 	movi	r5,10
   810e4:	00895e00 	call	895e0 <__mulsi3>
   810e8:	ac800007 	ldb	r18,0(r21)
   810ec:	1589883a 	add	r4,r2,r22
   810f0:	ad400044 	addi	r21,r21,1
   810f4:	95bff404 	addi	r22,r18,-48
   810f8:	9dbff92e 	bgeu	r19,r22,810e0 <__alt_data_end+0xfff810e0>
   810fc:	b807883a 	mov	r3,r23
   81100:	d9012e15 	stw	r4,1208(sp)
   81104:	003de106 	br	8088c <__alt_data_end+0xfff8088c>
   81108:	00800ac4 	movi	r2,43
   8110c:	d8812585 	stb	r2,1174(sp)
   81110:	ac800007 	ldb	r18,0(r21)
   81114:	003ddc06 	br	80888 <__alt_data_end+0xfff80888>
   81118:	d8c12d17 	ldw	r3,1204(sp)
   8111c:	d9012d17 	ldw	r4,1204(sp)
   81120:	e013883a 	mov	r9,fp
   81124:	18800017 	ldw	r2,0(r3)
   81128:	21000104 	addi	r4,r4,4
   8112c:	00c00044 	movi	r3,1
   81130:	d8c12815 	stw	r3,1184(sp)
   81134:	d8012585 	stb	zero,1174(sp)
   81138:	d8810405 	stb	r2,1040(sp)
   8113c:	d9012d15 	stw	r4,1204(sp)
   81140:	d8c12b15 	stw	r3,1196(sp)
   81144:	dcc10404 	addi	r19,sp,1040
   81148:	003dda06 	br	808b4 <__alt_data_end+0xfff808b4>
   8114c:	e013883a 	mov	r9,fp
   81150:	1839883a 	mov	fp,r3
   81154:	003ed806 	br	80cb8 <__alt_data_end+0xfff80cb8>
   81158:	e013883a 	mov	r9,fp
   8115c:	1839883a 	mov	fp,r3
   81160:	003f2d06 	br	80e18 <__alt_data_end+0xfff80e18>
   81164:	e013883a 	mov	r9,fp
   81168:	1839883a 	mov	fp,r3
   8116c:	003f3806 	br	80e50 <__alt_data_end+0xfff80e50>
   81170:	da011d17 	ldw	r8,1140(sp)
   81174:	d8c11c17 	ldw	r3,1136(sp)
   81178:	d8812587 	ldb	r2,1174(sp)
   8117c:	10000b26 	beq	r2,zero,811ac <___vfprintf_internal_r+0xa94>
   81180:	d8812584 	addi	r2,sp,1174
   81184:	48800015 	stw	r2,0(r9)
   81188:	00800044 	movi	r2,1
   8118c:	48800115 	stw	r2,4(r9)
   81190:	4091883a 	add	r8,r8,r2
   81194:	1887883a 	add	r3,r3,r2
   81198:	da011d15 	stw	r8,1140(sp)
   8119c:	d8c11c15 	stw	r3,1136(sp)
   811a0:	008001c4 	movi	r2,7
   811a4:	10c18e16 	blt	r2,r3,817e0 <___vfprintf_internal_r+0x10c8>
   811a8:	4a400204 	addi	r9,r9,8
   811ac:	d9012a17 	ldw	r4,1192(sp)
   811b0:	20000b26 	beq	r4,zero,811e0 <___vfprintf_internal_r+0xac8>
   811b4:	d8812504 	addi	r2,sp,1172
   811b8:	48800015 	stw	r2,0(r9)
   811bc:	00800084 	movi	r2,2
   811c0:	48800115 	stw	r2,4(r9)
   811c4:	4091883a 	add	r8,r8,r2
   811c8:	18c00044 	addi	r3,r3,1
   811cc:	da011d15 	stw	r8,1140(sp)
   811d0:	d8c11c15 	stw	r3,1136(sp)
   811d4:	008001c4 	movi	r2,7
   811d8:	10c17816 	blt	r2,r3,817bc <___vfprintf_internal_r+0x10a4>
   811dc:	4a400204 	addi	r9,r9,8
   811e0:	d9012f17 	ldw	r4,1212(sp)
   811e4:	00802004 	movi	r2,128
   811e8:	2080fc26 	beq	r4,r2,815dc <___vfprintf_internal_r+0xec4>
   811ec:	d8813117 	ldw	r2,1220(sp)
   811f0:	d9012b17 	ldw	r4,1196(sp)
   811f4:	112fc83a 	sub	r23,r2,r4
   811f8:	05c02a0e 	bge	zero,r23,812a4 <___vfprintf_internal_r+0xb8c>
   811fc:	07000404 	movi	fp,16
   81200:	05000274 	movhi	r20,9
   81204:	a5135b84 	addi	r20,r20,19822
   81208:	e5c01d0e 	bge	fp,r23,81280 <___vfprintf_internal_r+0xb68>
   8120c:	dc812a15 	stw	r18,1192(sp)
   81210:	058001c4 	movi	r22,7
   81214:	a025883a 	mov	r18,r20
   81218:	8029883a 	mov	r20,r16
   8121c:	dc012917 	ldw	r16,1188(sp)
   81220:	00000306 	br	81230 <___vfprintf_internal_r+0xb18>
   81224:	bdfffc04 	addi	r23,r23,-16
   81228:	4a400204 	addi	r9,r9,8
   8122c:	e5c0110e 	bge	fp,r23,81274 <___vfprintf_internal_r+0xb5c>
   81230:	4c800015 	stw	r18,0(r9)
   81234:	4f000115 	stw	fp,4(r9)
   81238:	42000404 	addi	r8,r8,16
   8123c:	18c00044 	addi	r3,r3,1
   81240:	da011d15 	stw	r8,1140(sp)
   81244:	d8c11c15 	stw	r3,1136(sp)
   81248:	b0fff60e 	bge	r22,r3,81224 <__alt_data_end+0xfff81224>
   8124c:	8809883a 	mov	r4,r17
   81250:	800b883a 	mov	r5,r16
   81254:	d9811b04 	addi	r6,sp,1132
   81258:	00806e40 	call	806e4 <__sprint_r>
   8125c:	103e741e 	bne	r2,zero,80c30 <__alt_data_end+0xfff80c30>
   81260:	bdfffc04 	addi	r23,r23,-16
   81264:	da011d17 	ldw	r8,1140(sp)
   81268:	d8c11c17 	ldw	r3,1136(sp)
   8126c:	da400404 	addi	r9,sp,16
   81270:	e5ffef16 	blt	fp,r23,81230 <__alt_data_end+0xfff81230>
   81274:	a021883a 	mov	r16,r20
   81278:	9029883a 	mov	r20,r18
   8127c:	dc812a17 	ldw	r18,1192(sp)
   81280:	4d000015 	stw	r20,0(r9)
   81284:	4dc00115 	stw	r23,4(r9)
   81288:	45d1883a 	add	r8,r8,r23
   8128c:	18c00044 	addi	r3,r3,1
   81290:	da011d15 	stw	r8,1140(sp)
   81294:	d8c11c15 	stw	r3,1136(sp)
   81298:	008001c4 	movi	r2,7
   8129c:	10c13e16 	blt	r2,r3,81798 <___vfprintf_internal_r+0x1080>
   812a0:	4a400204 	addi	r9,r9,8
   812a4:	8080400c 	andi	r2,r16,256
   812a8:	1000831e 	bne	r2,zero,814b8 <___vfprintf_internal_r+0xda0>
   812ac:	d8812b17 	ldw	r2,1196(sp)
   812b0:	4cc00015 	stw	r19,0(r9)
   812b4:	48800115 	stw	r2,4(r9)
   812b8:	4091883a 	add	r8,r8,r2
   812bc:	18c00044 	addi	r3,r3,1
   812c0:	da011d15 	stw	r8,1140(sp)
   812c4:	d8c11c15 	stw	r3,1136(sp)
   812c8:	008001c4 	movi	r2,7
   812cc:	10c05316 	blt	r2,r3,8141c <___vfprintf_internal_r+0xd04>
   812d0:	4a400204 	addi	r9,r9,8
   812d4:	8400010c 	andi	r16,r16,4
   812d8:	80002e26 	beq	r16,zero,81394 <___vfprintf_internal_r+0xc7c>
   812dc:	d8812e17 	ldw	r2,1208(sp)
   812e0:	d8c12817 	ldw	r3,1184(sp)
   812e4:	10e1c83a 	sub	r16,r2,r3
   812e8:	04002a0e 	bge	zero,r16,81394 <___vfprintf_internal_r+0xc7c>
   812ec:	04800404 	movi	r18,16
   812f0:	d8c11c17 	ldw	r3,1136(sp)
   812f4:	05c00274 	movhi	r23,9
   812f8:	bdd35784 	addi	r23,r23,19806
   812fc:	9400170e 	bge	r18,r16,8135c <___vfprintf_internal_r+0xc44>
   81300:	04c001c4 	movi	r19,7
   81304:	dd012917 	ldw	r20,1188(sp)
   81308:	00000306 	br	81318 <___vfprintf_internal_r+0xc00>
   8130c:	843ffc04 	addi	r16,r16,-16
   81310:	4a400204 	addi	r9,r9,8
   81314:	9400110e 	bge	r18,r16,8135c <___vfprintf_internal_r+0xc44>
   81318:	4dc00015 	stw	r23,0(r9)
   8131c:	4c800115 	stw	r18,4(r9)
   81320:	42000404 	addi	r8,r8,16
   81324:	18c00044 	addi	r3,r3,1
   81328:	da011d15 	stw	r8,1140(sp)
   8132c:	d8c11c15 	stw	r3,1136(sp)
   81330:	98fff60e 	bge	r19,r3,8130c <__alt_data_end+0xfff8130c>
   81334:	8809883a 	mov	r4,r17
   81338:	a00b883a 	mov	r5,r20
   8133c:	d9811b04 	addi	r6,sp,1132
   81340:	00806e40 	call	806e4 <__sprint_r>
   81344:	103e3a1e 	bne	r2,zero,80c30 <__alt_data_end+0xfff80c30>
   81348:	843ffc04 	addi	r16,r16,-16
   8134c:	da011d17 	ldw	r8,1140(sp)
   81350:	d8c11c17 	ldw	r3,1136(sp)
   81354:	da400404 	addi	r9,sp,16
   81358:	943fef16 	blt	r18,r16,81318 <__alt_data_end+0xfff81318>
   8135c:	4dc00015 	stw	r23,0(r9)
   81360:	4c000115 	stw	r16,4(r9)
   81364:	8211883a 	add	r8,r16,r8
   81368:	18c00044 	addi	r3,r3,1
   8136c:	da011d15 	stw	r8,1140(sp)
   81370:	d8c11c15 	stw	r3,1136(sp)
   81374:	008001c4 	movi	r2,7
   81378:	10c0060e 	bge	r2,r3,81394 <___vfprintf_internal_r+0xc7c>
   8137c:	d9412917 	ldw	r5,1188(sp)
   81380:	8809883a 	mov	r4,r17
   81384:	d9811b04 	addi	r6,sp,1132
   81388:	00806e40 	call	806e4 <__sprint_r>
   8138c:	103e281e 	bne	r2,zero,80c30 <__alt_data_end+0xfff80c30>
   81390:	da011d17 	ldw	r8,1140(sp)
   81394:	dd012817 	ldw	r20,1184(sp)
   81398:	d9012e17 	ldw	r4,1208(sp)
   8139c:	a100010e 	bge	r20,r4,813a4 <___vfprintf_internal_r+0xc8c>
   813a0:	2029883a 	mov	r20,r4
   813a4:	d8812c17 	ldw	r2,1200(sp)
   813a8:	1505883a 	add	r2,r2,r20
   813ac:	d8812c15 	stw	r2,1200(sp)
   813b0:	4000b91e 	bne	r8,zero,81698 <___vfprintf_internal_r+0xf80>
   813b4:	d8011c15 	stw	zero,1136(sp)
   813b8:	a8800007 	ldb	r2,0(r21)
   813bc:	da400404 	addi	r9,sp,16
   813c0:	103d0d1e 	bne	r2,zero,807f8 <__alt_data_end+0xfff807f8>
   813c4:	a825883a 	mov	r18,r21
   813c8:	003d2306 	br	80858 <__alt_data_end+0xfff80858>
   813cc:	d9412917 	ldw	r5,1188(sp)
   813d0:	8809883a 	mov	r4,r17
   813d4:	d9811b04 	addi	r6,sp,1132
   813d8:	00806e40 	call	806e4 <__sprint_r>
   813dc:	103e141e 	bne	r2,zero,80c30 <__alt_data_end+0xfff80c30>
   813e0:	da011d17 	ldw	r8,1140(sp)
   813e4:	da400404 	addi	r9,sp,16
   813e8:	8080004c 	andi	r2,r16,1
   813ec:	103fb926 	beq	r2,zero,812d4 <__alt_data_end+0xfff812d4>
   813f0:	d8c11c17 	ldw	r3,1136(sp)
   813f4:	d9013717 	ldw	r4,1244(sp)
   813f8:	00800044 	movi	r2,1
   813fc:	48800115 	stw	r2,4(r9)
   81400:	49000015 	stw	r4,0(r9)
   81404:	4091883a 	add	r8,r8,r2
   81408:	1887883a 	add	r3,r3,r2
   8140c:	da011d15 	stw	r8,1140(sp)
   81410:	d8c11c15 	stw	r3,1136(sp)
   81414:	008001c4 	movi	r2,7
   81418:	10ffad0e 	bge	r2,r3,812d0 <__alt_data_end+0xfff812d0>
   8141c:	d9412917 	ldw	r5,1188(sp)
   81420:	8809883a 	mov	r4,r17
   81424:	d9811b04 	addi	r6,sp,1132
   81428:	00806e40 	call	806e4 <__sprint_r>
   8142c:	103e001e 	bne	r2,zero,80c30 <__alt_data_end+0xfff80c30>
   81430:	da400404 	addi	r9,sp,16
   81434:	da011d17 	ldw	r8,1140(sp)
   81438:	003fa606 	br	812d4 <__alt_data_end+0xfff812d4>
   8143c:	18803fcc 	andi	r2,r3,255
   81440:	00c00044 	movi	r3,1
   81444:	10c10126 	beq	r2,r3,8184c <___vfprintf_internal_r+0x1134>
   81448:	00c00084 	movi	r3,2
   8144c:	10c0ed26 	beq	r2,r3,81804 <___vfprintf_internal_r+0x10ec>
   81450:	d8c10dc4 	addi	r3,sp,1079
   81454:	b808d0fa 	srli	r4,r23,3
   81458:	b00a977a 	slli	r5,r22,29
   8145c:	b02cd0fa 	srli	r22,r22,3
   81460:	bdc001cc 	andi	r23,r23,7
   81464:	b8800c04 	addi	r2,r23,48
   81468:	292eb03a 	or	r23,r5,r4
   8146c:	18800005 	stb	r2,0(r3)
   81470:	bd88b03a 	or	r4,r23,r22
   81474:	1827883a 	mov	r19,r3
   81478:	18ffffc4 	addi	r3,r3,-1
   8147c:	203ff51e 	bne	r4,zero,81454 <__alt_data_end+0xfff81454>
   81480:	8100004c 	andi	r4,r16,1
   81484:	980b883a 	mov	r5,r19
   81488:	20000726 	beq	r4,zero,814a8 <___vfprintf_internal_r+0xd90>
   8148c:	10803fcc 	andi	r2,r2,255
   81490:	1080201c 	xori	r2,r2,128
   81494:	10bfe004 	addi	r2,r2,-128
   81498:	01000c04 	movi	r4,48
   8149c:	11000226 	beq	r2,r4,814a8 <___vfprintf_internal_r+0xd90>
   814a0:	1827883a 	mov	r19,r3
   814a4:	293fffc5 	stb	r4,-1(r5)
   814a8:	d8812717 	ldw	r2,1180(sp)
   814ac:	14c5c83a 	sub	r2,r2,r19
   814b0:	d8812b15 	stw	r2,1196(sp)
   814b4:	003e1f06 	br	80d34 <__alt_data_end+0xfff80d34>
   814b8:	00801944 	movi	r2,101
   814bc:	14807c0e 	bge	r2,r18,816b0 <___vfprintf_internal_r+0xf98>
   814c0:	d9013317 	ldw	r4,1228(sp)
   814c4:	d9413417 	ldw	r5,1232(sp)
   814c8:	000d883a 	mov	r6,zero
   814cc:	000f883a 	mov	r7,zero
   814d0:	d8c13b15 	stw	r3,1260(sp)
   814d4:	da013a15 	stw	r8,1256(sp)
   814d8:	da413c15 	stw	r9,1264(sp)
   814dc:	008907c0 	call	8907c <__nedf2>
   814e0:	d8c13b17 	ldw	r3,1260(sp)
   814e4:	da013a17 	ldw	r8,1256(sp)
   814e8:	da413c17 	ldw	r9,1264(sp)
   814ec:	1001001e 	bne	r2,zero,818f0 <___vfprintf_internal_r+0x11d8>
   814f0:	00800274 	movhi	r2,9
   814f4:	10935704 	addi	r2,r2,19804
   814f8:	48800015 	stw	r2,0(r9)
   814fc:	00800044 	movi	r2,1
   81500:	48800115 	stw	r2,4(r9)
   81504:	4091883a 	add	r8,r8,r2
   81508:	1887883a 	add	r3,r3,r2
   8150c:	da011d15 	stw	r8,1140(sp)
   81510:	d8c11c15 	stw	r3,1136(sp)
   81514:	008001c4 	movi	r2,7
   81518:	10c20316 	blt	r2,r3,81d28 <___vfprintf_internal_r+0x1610>
   8151c:	4a400204 	addi	r9,r9,8
   81520:	d8812417 	ldw	r2,1168(sp)
   81524:	d8c13217 	ldw	r3,1224(sp)
   81528:	10c00216 	blt	r2,r3,81534 <___vfprintf_internal_r+0xe1c>
   8152c:	8080004c 	andi	r2,r16,1
   81530:	103f6826 	beq	r2,zero,812d4 <__alt_data_end+0xfff812d4>
   81534:	d8c11c17 	ldw	r3,1136(sp)
   81538:	d9013717 	ldw	r4,1244(sp)
   8153c:	00800044 	movi	r2,1
   81540:	48800115 	stw	r2,4(r9)
   81544:	49000015 	stw	r4,0(r9)
   81548:	4091883a 	add	r8,r8,r2
   8154c:	1887883a 	add	r3,r3,r2
   81550:	da011d15 	stw	r8,1140(sp)
   81554:	d8c11c15 	stw	r3,1136(sp)
   81558:	008001c4 	movi	r2,7
   8155c:	10c2ce16 	blt	r2,r3,82098 <___vfprintf_internal_r+0x1980>
   81560:	4a400204 	addi	r9,r9,8
   81564:	d8813217 	ldw	r2,1224(sp)
   81568:	14bfffc4 	addi	r18,r2,-1
   8156c:	04bf590e 	bge	zero,r18,812d4 <__alt_data_end+0xfff812d4>
   81570:	04c00404 	movi	r19,16
   81574:	d8c11c17 	ldw	r3,1136(sp)
   81578:	05000274 	movhi	r20,9
   8157c:	a5135b84 	addi	r20,r20,19822
   81580:	9c818a0e 	bge	r19,r18,81bac <___vfprintf_internal_r+0x1494>
   81584:	058001c4 	movi	r22,7
   81588:	ddc12917 	ldw	r23,1188(sp)
   8158c:	00000306 	br	8159c <___vfprintf_internal_r+0xe84>
   81590:	4a400204 	addi	r9,r9,8
   81594:	94bffc04 	addi	r18,r18,-16
   81598:	9c81840e 	bge	r19,r18,81bac <___vfprintf_internal_r+0x1494>
   8159c:	4d000015 	stw	r20,0(r9)
   815a0:	4cc00115 	stw	r19,4(r9)
   815a4:	42000404 	addi	r8,r8,16
   815a8:	18c00044 	addi	r3,r3,1
   815ac:	da011d15 	stw	r8,1140(sp)
   815b0:	d8c11c15 	stw	r3,1136(sp)
   815b4:	b0fff60e 	bge	r22,r3,81590 <__alt_data_end+0xfff81590>
   815b8:	8809883a 	mov	r4,r17
   815bc:	b80b883a 	mov	r5,r23
   815c0:	d9811b04 	addi	r6,sp,1132
   815c4:	00806e40 	call	806e4 <__sprint_r>
   815c8:	103d991e 	bne	r2,zero,80c30 <__alt_data_end+0xfff80c30>
   815cc:	da011d17 	ldw	r8,1140(sp)
   815d0:	d8c11c17 	ldw	r3,1136(sp)
   815d4:	da400404 	addi	r9,sp,16
   815d8:	003fee06 	br	81594 <__alt_data_end+0xfff81594>
   815dc:	d8812e17 	ldw	r2,1208(sp)
   815e0:	d9012817 	ldw	r4,1184(sp)
   815e4:	112fc83a 	sub	r23,r2,r4
   815e8:	05ff000e 	bge	zero,r23,811ec <__alt_data_end+0xfff811ec>
   815ec:	07000404 	movi	fp,16
   815f0:	05000274 	movhi	r20,9
   815f4:	a5135b84 	addi	r20,r20,19822
   815f8:	e5c01d0e 	bge	fp,r23,81670 <___vfprintf_internal_r+0xf58>
   815fc:	dc812a15 	stw	r18,1192(sp)
   81600:	058001c4 	movi	r22,7
   81604:	a025883a 	mov	r18,r20
   81608:	8029883a 	mov	r20,r16
   8160c:	dc012917 	ldw	r16,1188(sp)
   81610:	00000306 	br	81620 <___vfprintf_internal_r+0xf08>
   81614:	bdfffc04 	addi	r23,r23,-16
   81618:	4a400204 	addi	r9,r9,8
   8161c:	e5c0110e 	bge	fp,r23,81664 <___vfprintf_internal_r+0xf4c>
   81620:	4c800015 	stw	r18,0(r9)
   81624:	4f000115 	stw	fp,4(r9)
   81628:	42000404 	addi	r8,r8,16
   8162c:	18c00044 	addi	r3,r3,1
   81630:	da011d15 	stw	r8,1140(sp)
   81634:	d8c11c15 	stw	r3,1136(sp)
   81638:	b0fff60e 	bge	r22,r3,81614 <__alt_data_end+0xfff81614>
   8163c:	8809883a 	mov	r4,r17
   81640:	800b883a 	mov	r5,r16
   81644:	d9811b04 	addi	r6,sp,1132
   81648:	00806e40 	call	806e4 <__sprint_r>
   8164c:	103d781e 	bne	r2,zero,80c30 <__alt_data_end+0xfff80c30>
   81650:	bdfffc04 	addi	r23,r23,-16
   81654:	da011d17 	ldw	r8,1140(sp)
   81658:	d8c11c17 	ldw	r3,1136(sp)
   8165c:	da400404 	addi	r9,sp,16
   81660:	e5ffef16 	blt	fp,r23,81620 <__alt_data_end+0xfff81620>
   81664:	a021883a 	mov	r16,r20
   81668:	9029883a 	mov	r20,r18
   8166c:	dc812a17 	ldw	r18,1192(sp)
   81670:	4d000015 	stw	r20,0(r9)
   81674:	4dc00115 	stw	r23,4(r9)
   81678:	45d1883a 	add	r8,r8,r23
   8167c:	18c00044 	addi	r3,r3,1
   81680:	da011d15 	stw	r8,1140(sp)
   81684:	d8c11c15 	stw	r3,1136(sp)
   81688:	008001c4 	movi	r2,7
   8168c:	10c13616 	blt	r2,r3,81b68 <___vfprintf_internal_r+0x1450>
   81690:	4a400204 	addi	r9,r9,8
   81694:	003ed506 	br	811ec <__alt_data_end+0xfff811ec>
   81698:	d9412917 	ldw	r5,1188(sp)
   8169c:	8809883a 	mov	r4,r17
   816a0:	d9811b04 	addi	r6,sp,1132
   816a4:	00806e40 	call	806e4 <__sprint_r>
   816a8:	103f4226 	beq	r2,zero,813b4 <__alt_data_end+0xfff813b4>
   816ac:	003d6006 	br	80c30 <__alt_data_end+0xfff80c30>
   816b0:	d9013217 	ldw	r4,1224(sp)
   816b4:	00800044 	movi	r2,1
   816b8:	4cc00015 	stw	r19,0(r9)
   816bc:	1101000e 	bge	r2,r4,81ac0 <___vfprintf_internal_r+0x13a8>
   816c0:	00800044 	movi	r2,1
   816c4:	48800115 	stw	r2,4(r9)
   816c8:	4091883a 	add	r8,r8,r2
   816cc:	1887883a 	add	r3,r3,r2
   816d0:	da011d15 	stw	r8,1140(sp)
   816d4:	d8c11c15 	stw	r3,1136(sp)
   816d8:	008001c4 	movi	r2,7
   816dc:	10c10c16 	blt	r2,r3,81b10 <___vfprintf_internal_r+0x13f8>
   816e0:	4a400204 	addi	r9,r9,8
   816e4:	d8813717 	ldw	r2,1244(sp)
   816e8:	48800015 	stw	r2,0(r9)
   816ec:	00800044 	movi	r2,1
   816f0:	48800115 	stw	r2,4(r9)
   816f4:	4091883a 	add	r8,r8,r2
   816f8:	1887883a 	add	r3,r3,r2
   816fc:	da011d15 	stw	r8,1140(sp)
   81700:	d8c11c15 	stw	r3,1136(sp)
   81704:	008001c4 	movi	r2,7
   81708:	10c10a16 	blt	r2,r3,81b34 <___vfprintf_internal_r+0x141c>
   8170c:	4c800204 	addi	r18,r9,8
   81710:	d9013317 	ldw	r4,1228(sp)
   81714:	d9413417 	ldw	r5,1232(sp)
   81718:	000d883a 	mov	r6,zero
   8171c:	000f883a 	mov	r7,zero
   81720:	d8c13b15 	stw	r3,1260(sp)
   81724:	da013a15 	stw	r8,1256(sp)
   81728:	00890200 	call	89020 <__eqdf2>
   8172c:	d8c13b17 	ldw	r3,1260(sp)
   81730:	da013a17 	ldw	r8,1256(sp)
   81734:	1000ba26 	beq	r2,zero,81a20 <___vfprintf_internal_r+0x1308>
   81738:	d9013217 	ldw	r4,1224(sp)
   8173c:	9cc00044 	addi	r19,r19,1
   81740:	94c00015 	stw	r19,0(r18)
   81744:	20bfffc4 	addi	r2,r4,-1
   81748:	90800115 	stw	r2,4(r18)
   8174c:	4091883a 	add	r8,r8,r2
   81750:	18c00044 	addi	r3,r3,1
   81754:	da011d15 	stw	r8,1140(sp)
   81758:	d8c11c15 	stw	r3,1136(sp)
   8175c:	008001c4 	movi	r2,7
   81760:	10c0e216 	blt	r2,r3,81aec <___vfprintf_internal_r+0x13d4>
   81764:	94800204 	addi	r18,r18,8
   81768:	d9013517 	ldw	r4,1236(sp)
   8176c:	d8811fc4 	addi	r2,sp,1151
   81770:	90800015 	stw	r2,0(r18)
   81774:	91000115 	stw	r4,4(r18)
   81778:	4111883a 	add	r8,r8,r4
   8177c:	18c00044 	addi	r3,r3,1
   81780:	da011d15 	stw	r8,1140(sp)
   81784:	d8c11c15 	stw	r3,1136(sp)
   81788:	008001c4 	movi	r2,7
   8178c:	10ff2316 	blt	r2,r3,8141c <__alt_data_end+0xfff8141c>
   81790:	92400204 	addi	r9,r18,8
   81794:	003ecf06 	br	812d4 <__alt_data_end+0xfff812d4>
   81798:	d9412917 	ldw	r5,1188(sp)
   8179c:	8809883a 	mov	r4,r17
   817a0:	d9811b04 	addi	r6,sp,1132
   817a4:	00806e40 	call	806e4 <__sprint_r>
   817a8:	103d211e 	bne	r2,zero,80c30 <__alt_data_end+0xfff80c30>
   817ac:	da011d17 	ldw	r8,1140(sp)
   817b0:	d8c11c17 	ldw	r3,1136(sp)
   817b4:	da400404 	addi	r9,sp,16
   817b8:	003eba06 	br	812a4 <__alt_data_end+0xfff812a4>
   817bc:	d9412917 	ldw	r5,1188(sp)
   817c0:	8809883a 	mov	r4,r17
   817c4:	d9811b04 	addi	r6,sp,1132
   817c8:	00806e40 	call	806e4 <__sprint_r>
   817cc:	103d181e 	bne	r2,zero,80c30 <__alt_data_end+0xfff80c30>
   817d0:	da011d17 	ldw	r8,1140(sp)
   817d4:	d8c11c17 	ldw	r3,1136(sp)
   817d8:	da400404 	addi	r9,sp,16
   817dc:	003e8006 	br	811e0 <__alt_data_end+0xfff811e0>
   817e0:	d9412917 	ldw	r5,1188(sp)
   817e4:	8809883a 	mov	r4,r17
   817e8:	d9811b04 	addi	r6,sp,1132
   817ec:	00806e40 	call	806e4 <__sprint_r>
   817f0:	103d0f1e 	bne	r2,zero,80c30 <__alt_data_end+0xfff80c30>
   817f4:	da011d17 	ldw	r8,1140(sp)
   817f8:	d8c11c17 	ldw	r3,1136(sp)
   817fc:	da400404 	addi	r9,sp,16
   81800:	003e6a06 	br	811ac <__alt_data_end+0xfff811ac>
   81804:	d9413617 	ldw	r5,1240(sp)
   81808:	d8810dc4 	addi	r2,sp,1079
   8180c:	b8c003cc 	andi	r3,r23,15
   81810:	b008973a 	slli	r4,r22,28
   81814:	28c7883a 	add	r3,r5,r3
   81818:	b82ed13a 	srli	r23,r23,4
   8181c:	18c00003 	ldbu	r3,0(r3)
   81820:	b02cd13a 	srli	r22,r22,4
   81824:	25eeb03a 	or	r23,r4,r23
   81828:	10c00005 	stb	r3,0(r2)
   8182c:	bd86b03a 	or	r3,r23,r22
   81830:	1027883a 	mov	r19,r2
   81834:	10bfffc4 	addi	r2,r2,-1
   81838:	183ff41e 	bne	r3,zero,8180c <__alt_data_end+0xfff8180c>
   8183c:	003f1a06 	br	814a8 <__alt_data_end+0xfff814a8>
   81840:	d8012b15 	stw	zero,1196(sp)
   81844:	dcc10e04 	addi	r19,sp,1080
   81848:	003d3a06 	br	80d34 <__alt_data_end+0xfff80d34>
   8184c:	b0025426 	beq	r22,zero,821a0 <___vfprintf_internal_r+0x1a88>
   81850:	b807883a 	mov	r3,r23
   81854:	d8810dc4 	addi	r2,sp,1079
   81858:	882f883a 	mov	r23,r17
   8185c:	04c00244 	movi	r19,9
   81860:	8023883a 	mov	r17,r16
   81864:	da412815 	stw	r9,1184(sp)
   81868:	1821883a 	mov	r16,r3
   8186c:	8009883a 	mov	r4,r16
   81870:	b00b883a 	mov	r5,r22
   81874:	01800284 	movi	r6,10
   81878:	000f883a 	mov	r7,zero
   8187c:	1029883a 	mov	r20,r2
   81880:	00881580 	call	88158 <__umoddi3>
   81884:	10800c04 	addi	r2,r2,48
   81888:	8009883a 	mov	r4,r16
   8188c:	b00b883a 	mov	r5,r22
   81890:	a0800005 	stb	r2,0(r20)
   81894:	01800284 	movi	r6,10
   81898:	000f883a 	mov	r7,zero
   8189c:	0087b080 	call	87b08 <__udivdi3>
   818a0:	1021883a 	mov	r16,r2
   818a4:	182d883a 	mov	r22,r3
   818a8:	a0bfffc4 	addi	r2,r20,-1
   818ac:	183fef1e 	bne	r3,zero,8186c <__alt_data_end+0xfff8186c>
   818b0:	9c3fee36 	bltu	r19,r16,8186c <__alt_data_end+0xfff8186c>
   818b4:	da412817 	ldw	r9,1184(sp)
   818b8:	8005883a 	mov	r2,r16
   818bc:	8821883a 	mov	r16,r17
   818c0:	b823883a 	mov	r17,r23
   818c4:	102f883a 	mov	r23,r2
   818c8:	d8812717 	ldw	r2,1180(sp)
   818cc:	a4ffffc4 	addi	r19,r20,-1
   818d0:	bdc00c04 	addi	r23,r23,48
   818d4:	14c5c83a 	sub	r2,r2,r19
   818d8:	a5ffffc5 	stb	r23,-1(r20)
   818dc:	d8812b15 	stw	r2,1196(sp)
   818e0:	003d1406 	br	80d34 <__alt_data_end+0xfff80d34>
   818e4:	00c00044 	movi	r3,1
   818e8:	bd84b03a 	or	r2,r23,r22
   818ec:	003d0306 	br	80cfc <__alt_data_end+0xfff80cfc>
   818f0:	dc812417 	ldw	r18,1168(sp)
   818f4:	0481140e 	bge	zero,r18,81d48 <___vfprintf_internal_r+0x1630>
   818f8:	d9013217 	ldw	r4,1224(sp)
   818fc:	4cc00015 	stw	r19,0(r9)
   81900:	9100ec16 	blt	r18,r4,81cb4 <___vfprintf_internal_r+0x159c>
   81904:	49000115 	stw	r4,4(r9)
   81908:	4111883a 	add	r8,r8,r4
   8190c:	18c00044 	addi	r3,r3,1
   81910:	da011d15 	stw	r8,1140(sp)
   81914:	d8c11c15 	stw	r3,1136(sp)
   81918:	008001c4 	movi	r2,7
   8191c:	10c23616 	blt	r2,r3,821f8 <___vfprintf_internal_r+0x1ae0>
   81920:	4a400204 	addi	r9,r9,8
   81924:	d8813217 	ldw	r2,1224(sp)
   81928:	90a5c83a 	sub	r18,r18,r2
   8192c:	04beae0e 	bge	zero,r18,813e8 <__alt_data_end+0xfff813e8>
   81930:	04c00404 	movi	r19,16
   81934:	d8c11c17 	ldw	r3,1136(sp)
   81938:	05000274 	movhi	r20,9
   8193c:	a5135b84 	addi	r20,r20,19822
   81940:	9c81dd0e 	bge	r19,r18,820b8 <___vfprintf_internal_r+0x19a0>
   81944:	058001c4 	movi	r22,7
   81948:	ddc12917 	ldw	r23,1188(sp)
   8194c:	00000306 	br	8195c <___vfprintf_internal_r+0x1244>
   81950:	4a400204 	addi	r9,r9,8
   81954:	94bffc04 	addi	r18,r18,-16
   81958:	9c81d70e 	bge	r19,r18,820b8 <___vfprintf_internal_r+0x19a0>
   8195c:	4d000015 	stw	r20,0(r9)
   81960:	4cc00115 	stw	r19,4(r9)
   81964:	42000404 	addi	r8,r8,16
   81968:	18c00044 	addi	r3,r3,1
   8196c:	da011d15 	stw	r8,1140(sp)
   81970:	d8c11c15 	stw	r3,1136(sp)
   81974:	b0fff60e 	bge	r22,r3,81950 <__alt_data_end+0xfff81950>
   81978:	8809883a 	mov	r4,r17
   8197c:	b80b883a 	mov	r5,r23
   81980:	d9811b04 	addi	r6,sp,1132
   81984:	00806e40 	call	806e4 <__sprint_r>
   81988:	103ca91e 	bne	r2,zero,80c30 <__alt_data_end+0xfff80c30>
   8198c:	da011d17 	ldw	r8,1140(sp)
   81990:	d8c11c17 	ldw	r3,1136(sp)
   81994:	da400404 	addi	r9,sp,16
   81998:	003fee06 	br	81954 <__alt_data_end+0xfff81954>
   8199c:	d9412917 	ldw	r5,1188(sp)
   819a0:	8809883a 	mov	r4,r17
   819a4:	d9811b04 	addi	r6,sp,1132
   819a8:	00806e40 	call	806e4 <__sprint_r>
   819ac:	103ca01e 	bne	r2,zero,80c30 <__alt_data_end+0xfff80c30>
   819b0:	da011d17 	ldw	r8,1140(sp)
   819b4:	d8c11c17 	ldw	r3,1136(sp)
   819b8:	da400404 	addi	r9,sp,16
   819bc:	003dee06 	br	81178 <__alt_data_end+0xfff81178>
   819c0:	00c00084 	movi	r3,2
   819c4:	bd84b03a 	or	r2,r23,r22
   819c8:	d8012585 	stb	zero,1174(sp)
   819cc:	003ccb06 	br	80cfc <__alt_data_end+0xfff80cfc>
   819d0:	8080040c 	andi	r2,r16,16
   819d4:	1000ae26 	beq	r2,zero,81c90 <___vfprintf_internal_r+0x1578>
   819d8:	d9012d17 	ldw	r4,1204(sp)
   819dc:	25c00017 	ldw	r23,0(r4)
   819e0:	21000104 	addi	r4,r4,4
   819e4:	d9012d15 	stw	r4,1204(sp)
   819e8:	b82dd7fa 	srai	r22,r23,31
   819ec:	b005883a 	mov	r2,r22
   819f0:	003cb906 	br	80cd8 <__alt_data_end+0xfff80cd8>
   819f4:	8080040c 	andi	r2,r16,16
   819f8:	10007026 	beq	r2,zero,81bbc <___vfprintf_internal_r+0x14a4>
   819fc:	d8812d17 	ldw	r2,1204(sp)
   81a00:	002d883a 	mov	r22,zero
   81a04:	00c00044 	movi	r3,1
   81a08:	15c00017 	ldw	r23,0(r2)
   81a0c:	10800104 	addi	r2,r2,4
   81a10:	d8812d15 	stw	r2,1204(sp)
   81a14:	d8012585 	stb	zero,1174(sp)
   81a18:	b805883a 	mov	r2,r23
   81a1c:	003cb706 	br	80cfc <__alt_data_end+0xfff80cfc>
   81a20:	d8813217 	ldw	r2,1224(sp)
   81a24:	14ffffc4 	addi	r19,r2,-1
   81a28:	04ff4f0e 	bge	zero,r19,81768 <__alt_data_end+0xfff81768>
   81a2c:	05800404 	movi	r22,16
   81a30:	05000274 	movhi	r20,9
   81a34:	a5135b84 	addi	r20,r20,19822
   81a38:	b4c0470e 	bge	r22,r19,81b58 <___vfprintf_internal_r+0x1440>
   81a3c:	05c001c4 	movi	r23,7
   81a40:	df012917 	ldw	fp,1188(sp)
   81a44:	00000306 	br	81a54 <___vfprintf_internal_r+0x133c>
   81a48:	94800204 	addi	r18,r18,8
   81a4c:	9cfffc04 	addi	r19,r19,-16
   81a50:	b4c0410e 	bge	r22,r19,81b58 <___vfprintf_internal_r+0x1440>
   81a54:	95000015 	stw	r20,0(r18)
   81a58:	95800115 	stw	r22,4(r18)
   81a5c:	42000404 	addi	r8,r8,16
   81a60:	18c00044 	addi	r3,r3,1
   81a64:	da011d15 	stw	r8,1140(sp)
   81a68:	d8c11c15 	stw	r3,1136(sp)
   81a6c:	b8fff60e 	bge	r23,r3,81a48 <__alt_data_end+0xfff81a48>
   81a70:	8809883a 	mov	r4,r17
   81a74:	e00b883a 	mov	r5,fp
   81a78:	d9811b04 	addi	r6,sp,1132
   81a7c:	00806e40 	call	806e4 <__sprint_r>
   81a80:	103c6b1e 	bne	r2,zero,80c30 <__alt_data_end+0xfff80c30>
   81a84:	da011d17 	ldw	r8,1140(sp)
   81a88:	d8c11c17 	ldw	r3,1136(sp)
   81a8c:	dc800404 	addi	r18,sp,16
   81a90:	003fee06 	br	81a4c <__alt_data_end+0xfff81a4c>
   81a94:	8080040c 	andi	r2,r16,16
   81a98:	10005326 	beq	r2,zero,81be8 <___vfprintf_internal_r+0x14d0>
   81a9c:	d8c12d17 	ldw	r3,1204(sp)
   81aa0:	002d883a 	mov	r22,zero
   81aa4:	1dc00017 	ldw	r23,0(r3)
   81aa8:	18c00104 	addi	r3,r3,4
   81aac:	d8c12d15 	stw	r3,1204(sp)
   81ab0:	b805883a 	mov	r2,r23
   81ab4:	0007883a 	mov	r3,zero
   81ab8:	d8012585 	stb	zero,1174(sp)
   81abc:	003c8f06 	br	80cfc <__alt_data_end+0xfff80cfc>
   81ac0:	8088703a 	and	r4,r16,r2
   81ac4:	203efe1e 	bne	r4,zero,816c0 <__alt_data_end+0xfff816c0>
   81ac8:	48800115 	stw	r2,4(r9)
   81acc:	42000044 	addi	r8,r8,1
   81ad0:	18c00044 	addi	r3,r3,1
   81ad4:	da011d15 	stw	r8,1140(sp)
   81ad8:	d8c11c15 	stw	r3,1136(sp)
   81adc:	008001c4 	movi	r2,7
   81ae0:	10c00216 	blt	r2,r3,81aec <___vfprintf_internal_r+0x13d4>
   81ae4:	4c800204 	addi	r18,r9,8
   81ae8:	003f1f06 	br	81768 <__alt_data_end+0xfff81768>
   81aec:	d9412917 	ldw	r5,1188(sp)
   81af0:	8809883a 	mov	r4,r17
   81af4:	d9811b04 	addi	r6,sp,1132
   81af8:	00806e40 	call	806e4 <__sprint_r>
   81afc:	103c4c1e 	bne	r2,zero,80c30 <__alt_data_end+0xfff80c30>
   81b00:	dc800404 	addi	r18,sp,16
   81b04:	da011d17 	ldw	r8,1140(sp)
   81b08:	d8c11c17 	ldw	r3,1136(sp)
   81b0c:	003f1606 	br	81768 <__alt_data_end+0xfff81768>
   81b10:	d9412917 	ldw	r5,1188(sp)
   81b14:	8809883a 	mov	r4,r17
   81b18:	d9811b04 	addi	r6,sp,1132
   81b1c:	00806e40 	call	806e4 <__sprint_r>
   81b20:	103c431e 	bne	r2,zero,80c30 <__alt_data_end+0xfff80c30>
   81b24:	da011d17 	ldw	r8,1140(sp)
   81b28:	d8c11c17 	ldw	r3,1136(sp)
   81b2c:	da400404 	addi	r9,sp,16
   81b30:	003eec06 	br	816e4 <__alt_data_end+0xfff816e4>
   81b34:	d9412917 	ldw	r5,1188(sp)
   81b38:	8809883a 	mov	r4,r17
   81b3c:	d9811b04 	addi	r6,sp,1132
   81b40:	00806e40 	call	806e4 <__sprint_r>
   81b44:	103c3a1e 	bne	r2,zero,80c30 <__alt_data_end+0xfff80c30>
   81b48:	da011d17 	ldw	r8,1140(sp)
   81b4c:	d8c11c17 	ldw	r3,1136(sp)
   81b50:	dc800404 	addi	r18,sp,16
   81b54:	003eee06 	br	81710 <__alt_data_end+0xfff81710>
   81b58:	95000015 	stw	r20,0(r18)
   81b5c:	94c00115 	stw	r19,4(r18)
   81b60:	44d1883a 	add	r8,r8,r19
   81b64:	003efa06 	br	81750 <__alt_data_end+0xfff81750>
   81b68:	d9412917 	ldw	r5,1188(sp)
   81b6c:	8809883a 	mov	r4,r17
   81b70:	d9811b04 	addi	r6,sp,1132
   81b74:	00806e40 	call	806e4 <__sprint_r>
   81b78:	103c2d1e 	bne	r2,zero,80c30 <__alt_data_end+0xfff80c30>
   81b7c:	da011d17 	ldw	r8,1140(sp)
   81b80:	d8c11c17 	ldw	r3,1136(sp)
   81b84:	da400404 	addi	r9,sp,16
   81b88:	003d9806 	br	811ec <__alt_data_end+0xfff811ec>
   81b8c:	8080100c 	andi	r2,r16,64
   81b90:	10011626 	beq	r2,zero,81fec <___vfprintf_internal_r+0x18d4>
   81b94:	d8c12d17 	ldw	r3,1204(sp)
   81b98:	002d883a 	mov	r22,zero
   81b9c:	1dc0000b 	ldhu	r23,0(r3)
   81ba0:	18c00104 	addi	r3,r3,4
   81ba4:	d8c12d15 	stw	r3,1204(sp)
   81ba8:	003cc106 	br	80eb0 <__alt_data_end+0xfff80eb0>
   81bac:	4d000015 	stw	r20,0(r9)
   81bb0:	4c800115 	stw	r18,4(r9)
   81bb4:	4491883a 	add	r8,r8,r18
   81bb8:	003dc006 	br	812bc <__alt_data_end+0xfff812bc>
   81bbc:	8080100c 	andi	r2,r16,64
   81bc0:	10010126 	beq	r2,zero,81fc8 <___vfprintf_internal_r+0x18b0>
   81bc4:	d8c12d17 	ldw	r3,1204(sp)
   81bc8:	002d883a 	mov	r22,zero
   81bcc:	1dc0000b 	ldhu	r23,0(r3)
   81bd0:	18c00104 	addi	r3,r3,4
   81bd4:	d8c12d15 	stw	r3,1204(sp)
   81bd8:	b805883a 	mov	r2,r23
   81bdc:	00c00044 	movi	r3,1
   81be0:	d8012585 	stb	zero,1174(sp)
   81be4:	003c4506 	br	80cfc <__alt_data_end+0xfff80cfc>
   81be8:	8080100c 	andi	r2,r16,64
   81bec:	10010526 	beq	r2,zero,82004 <___vfprintf_internal_r+0x18ec>
   81bf0:	d9012d17 	ldw	r4,1204(sp)
   81bf4:	002d883a 	mov	r22,zero
   81bf8:	0007883a 	mov	r3,zero
   81bfc:	25c0000b 	ldhu	r23,0(r4)
   81c00:	21000104 	addi	r4,r4,4
   81c04:	d9012d15 	stw	r4,1204(sp)
   81c08:	b805883a 	mov	r2,r23
   81c0c:	d8012585 	stb	zero,1174(sp)
   81c10:	003c3a06 	br	80cfc <__alt_data_end+0xfff80cfc>
   81c14:	d8812d17 	ldw	r2,1204(sp)
   81c18:	15800017 	ldw	r22,0(r2)
   81c1c:	15000117 	ldw	r20,4(r2)
   81c20:	10800204 	addi	r2,r2,8
   81c24:	d8812d15 	stw	r2,1204(sp)
   81c28:	dd813315 	stw	r22,1228(sp)
   81c2c:	dd013415 	stw	r20,1232(sp)
   81c30:	003c5906 	br	80d98 <__alt_data_end+0xfff80d98>
   81c34:	00c00084 	movi	r3,2
   81c38:	d8012585 	stb	zero,1174(sp)
   81c3c:	003c2f06 	br	80cfc <__alt_data_end+0xfff80cfc>
   81c40:	ac800007 	ldb	r18,0(r21)
   81c44:	003b1006 	br	80888 <__alt_data_end+0xfff80888>
   81c48:	8080040c 	andi	r2,r16,16
   81c4c:	1000091e 	bne	r2,zero,81c74 <___vfprintf_internal_r+0x155c>
   81c50:	8400100c 	andi	r16,r16,64
   81c54:	80000726 	beq	r16,zero,81c74 <___vfprintf_internal_r+0x155c>
   81c58:	d8c12d17 	ldw	r3,1204(sp)
   81c5c:	d9012c17 	ldw	r4,1200(sp)
   81c60:	18800017 	ldw	r2,0(r3)
   81c64:	18c00104 	addi	r3,r3,4
   81c68:	d8c12d15 	stw	r3,1204(sp)
   81c6c:	1100000d 	sth	r4,0(r2)
   81c70:	003adf06 	br	807f0 <__alt_data_end+0xfff807f0>
   81c74:	d8c12d17 	ldw	r3,1204(sp)
   81c78:	d9012c17 	ldw	r4,1200(sp)
   81c7c:	18800017 	ldw	r2,0(r3)
   81c80:	18c00104 	addi	r3,r3,4
   81c84:	d8c12d15 	stw	r3,1204(sp)
   81c88:	11000015 	stw	r4,0(r2)
   81c8c:	003ad806 	br	807f0 <__alt_data_end+0xfff807f0>
   81c90:	8080100c 	andi	r2,r16,64
   81c94:	1000c526 	beq	r2,zero,81fac <___vfprintf_internal_r+0x1894>
   81c98:	d8812d17 	ldw	r2,1204(sp)
   81c9c:	15c0000f 	ldh	r23,0(r2)
   81ca0:	10800104 	addi	r2,r2,4
   81ca4:	d8812d15 	stw	r2,1204(sp)
   81ca8:	b82dd7fa 	srai	r22,r23,31
   81cac:	b005883a 	mov	r2,r22
   81cb0:	003c0906 	br	80cd8 <__alt_data_end+0xfff80cd8>
   81cb4:	4c800115 	stw	r18,4(r9)
   81cb8:	9211883a 	add	r8,r18,r8
   81cbc:	18c00044 	addi	r3,r3,1
   81cc0:	da011d15 	stw	r8,1140(sp)
   81cc4:	d8c11c15 	stw	r3,1136(sp)
   81cc8:	008001c4 	movi	r2,7
   81ccc:	10c14016 	blt	r2,r3,821d0 <___vfprintf_internal_r+0x1ab8>
   81cd0:	4a400204 	addi	r9,r9,8
   81cd4:	d8813717 	ldw	r2,1244(sp)
   81cd8:	9ca7883a 	add	r19,r19,r18
   81cdc:	48800015 	stw	r2,0(r9)
   81ce0:	00800044 	movi	r2,1
   81ce4:	48800115 	stw	r2,4(r9)
   81ce8:	4091883a 	add	r8,r8,r2
   81cec:	1887883a 	add	r3,r3,r2
   81cf0:	da011d15 	stw	r8,1140(sp)
   81cf4:	d8c11c15 	stw	r3,1136(sp)
   81cf8:	008001c4 	movi	r2,7
   81cfc:	10c12c16 	blt	r2,r3,821b0 <___vfprintf_internal_r+0x1a98>
   81d00:	4a400204 	addi	r9,r9,8
   81d04:	d9013217 	ldw	r4,1224(sp)
   81d08:	da011d17 	ldw	r8,1140(sp)
   81d0c:	d8c11c17 	ldw	r3,1136(sp)
   81d10:	24a5c83a 	sub	r18,r4,r18
   81d14:	4cc00015 	stw	r19,0(r9)
   81d18:	003fa506 	br	81bb0 <__alt_data_end+0xfff81bb0>
   81d1c:	04c00274 	movhi	r19,9
   81d20:	9cd34804 	addi	r19,r19,19744
   81d24:	003c2e06 	br	80de0 <__alt_data_end+0xfff80de0>
   81d28:	d9412917 	ldw	r5,1188(sp)
   81d2c:	8809883a 	mov	r4,r17
   81d30:	d9811b04 	addi	r6,sp,1132
   81d34:	00806e40 	call	806e4 <__sprint_r>
   81d38:	103bbd1e 	bne	r2,zero,80c30 <__alt_data_end+0xfff80c30>
   81d3c:	da011d17 	ldw	r8,1140(sp)
   81d40:	da400404 	addi	r9,sp,16
   81d44:	003df606 	br	81520 <__alt_data_end+0xfff81520>
   81d48:	00800274 	movhi	r2,9
   81d4c:	10935704 	addi	r2,r2,19804
   81d50:	48800015 	stw	r2,0(r9)
   81d54:	00800044 	movi	r2,1
   81d58:	48800115 	stw	r2,4(r9)
   81d5c:	4091883a 	add	r8,r8,r2
   81d60:	1887883a 	add	r3,r3,r2
   81d64:	da011d15 	stw	r8,1140(sp)
   81d68:	d8c11c15 	stw	r3,1136(sp)
   81d6c:	008001c4 	movi	r2,7
   81d70:	10c0bc16 	blt	r2,r3,82064 <___vfprintf_internal_r+0x194c>
   81d74:	4a400204 	addi	r9,r9,8
   81d78:	9000041e 	bne	r18,zero,81d8c <___vfprintf_internal_r+0x1674>
   81d7c:	d8c13217 	ldw	r3,1224(sp)
   81d80:	1800021e 	bne	r3,zero,81d8c <___vfprintf_internal_r+0x1674>
   81d84:	8080004c 	andi	r2,r16,1
   81d88:	103d5226 	beq	r2,zero,812d4 <__alt_data_end+0xfff812d4>
   81d8c:	d8c11c17 	ldw	r3,1136(sp)
   81d90:	d9013717 	ldw	r4,1244(sp)
   81d94:	00800044 	movi	r2,1
   81d98:	48800115 	stw	r2,4(r9)
   81d9c:	49000015 	stw	r4,0(r9)
   81da0:	4091883a 	add	r8,r8,r2
   81da4:	1887883a 	add	r3,r3,r2
   81da8:	da011d15 	stw	r8,1140(sp)
   81dac:	d8c11c15 	stw	r3,1136(sp)
   81db0:	008001c4 	movi	r2,7
   81db4:	10c14516 	blt	r2,r3,822cc <___vfprintf_internal_r+0x1bb4>
   81db8:	4a400204 	addi	r9,r9,8
   81dbc:	04a5c83a 	sub	r18,zero,r18
   81dc0:	0480d70e 	bge	zero,r18,82120 <___vfprintf_internal_r+0x1a08>
   81dc4:	05800404 	movi	r22,16
   81dc8:	05000274 	movhi	r20,9
   81dcc:	a5135b84 	addi	r20,r20,19822
   81dd0:	b480db0e 	bge	r22,r18,82140 <___vfprintf_internal_r+0x1a28>
   81dd4:	05c001c4 	movi	r23,7
   81dd8:	df012917 	ldw	fp,1188(sp)
   81ddc:	00000306 	br	81dec <___vfprintf_internal_r+0x16d4>
   81de0:	4a400204 	addi	r9,r9,8
   81de4:	94bffc04 	addi	r18,r18,-16
   81de8:	b480d50e 	bge	r22,r18,82140 <___vfprintf_internal_r+0x1a28>
   81dec:	4d000015 	stw	r20,0(r9)
   81df0:	4d800115 	stw	r22,4(r9)
   81df4:	42000404 	addi	r8,r8,16
   81df8:	18c00044 	addi	r3,r3,1
   81dfc:	da011d15 	stw	r8,1140(sp)
   81e00:	d8c11c15 	stw	r3,1136(sp)
   81e04:	b8fff60e 	bge	r23,r3,81de0 <__alt_data_end+0xfff81de0>
   81e08:	8809883a 	mov	r4,r17
   81e0c:	e00b883a 	mov	r5,fp
   81e10:	d9811b04 	addi	r6,sp,1132
   81e14:	00806e40 	call	806e4 <__sprint_r>
   81e18:	103b851e 	bne	r2,zero,80c30 <__alt_data_end+0xfff80c30>
   81e1c:	da011d17 	ldw	r8,1140(sp)
   81e20:	d8c11c17 	ldw	r3,1136(sp)
   81e24:	da400404 	addi	r9,sp,16
   81e28:	003fee06 	br	81de4 <__alt_data_end+0xfff81de4>
   81e2c:	da413c15 	stw	r9,1264(sp)
   81e30:	00874040 	call	87404 <__isnand>
   81e34:	da413c17 	ldw	r9,1264(sp)
   81e38:	10007e1e 	bne	r2,zero,82034 <___vfprintf_internal_r+0x191c>
   81e3c:	00bfffc4 	movi	r2,-1
   81e40:	e0816a26 	beq	fp,r2,823ec <___vfprintf_internal_r+0x1cd4>
   81e44:	008019c4 	movi	r2,103
   81e48:	90816526 	beq	r18,r2,823e0 <___vfprintf_internal_r+0x1cc8>
   81e4c:	008011c4 	movi	r2,71
   81e50:	90816326 	beq	r18,r2,823e0 <___vfprintf_internal_r+0x1cc8>
   81e54:	80c04014 	ori	r3,r16,256
   81e58:	d8c12a15 	stw	r3,1192(sp)
   81e5c:	a0016516 	blt	r20,zero,823f4 <___vfprintf_internal_r+0x1cdc>
   81e60:	d8012f05 	stb	zero,1212(sp)
   81e64:	00801984 	movi	r2,102
   81e68:	9080f226 	beq	r18,r2,82234 <___vfprintf_internal_r+0x1b1c>
   81e6c:	00801184 	movi	r2,70
   81e70:	9080f026 	beq	r18,r2,82234 <___vfprintf_internal_r+0x1b1c>
   81e74:	00801944 	movi	r2,101
   81e78:	90818d26 	beq	r18,r2,824b0 <___vfprintf_internal_r+0x1d98>
   81e7c:	00801144 	movi	r2,69
   81e80:	90818b26 	beq	r18,r2,824b0 <___vfprintf_internal_r+0x1d98>
   81e84:	e02f883a 	mov	r23,fp
   81e88:	d8812404 	addi	r2,sp,1168
   81e8c:	d8800115 	stw	r2,4(sp)
   81e90:	d8812304 	addi	r2,sp,1164
   81e94:	d8800215 	stw	r2,8(sp)
   81e98:	d8812204 	addi	r2,sp,1160
   81e9c:	ddc00015 	stw	r23,0(sp)
   81ea0:	d8800315 	stw	r2,12(sp)
   81ea4:	8809883a 	mov	r4,r17
   81ea8:	b00b883a 	mov	r5,r22
   81eac:	a00d883a 	mov	r6,r20
   81eb0:	01c00084 	movi	r7,2
   81eb4:	da413c15 	stw	r9,1264(sp)
   81eb8:	00829680 	call	82968 <_dtoa_r>
   81ebc:	1027883a 	mov	r19,r2
   81ec0:	008019c4 	movi	r2,103
   81ec4:	da413c17 	ldw	r9,1264(sp)
   81ec8:	9081951e 	bne	r18,r2,82520 <___vfprintf_internal_r+0x1e08>
   81ecc:	8080004c 	andi	r2,r16,1
   81ed0:	10017926 	beq	r2,zero,824b8 <___vfprintf_internal_r+0x1da0>
   81ed4:	00801184 	movi	r2,70
   81ed8:	9dc7883a 	add	r3,r19,r23
   81edc:	9080e626 	beq	r18,r2,82278 <___vfprintf_internal_r+0x1b60>
   81ee0:	b009883a 	mov	r4,r22
   81ee4:	a00b883a 	mov	r5,r20
   81ee8:	000d883a 	mov	r6,zero
   81eec:	000f883a 	mov	r7,zero
   81ef0:	d8c13b15 	stw	r3,1260(sp)
   81ef4:	da413c15 	stw	r9,1264(sp)
   81ef8:	00890200 	call	89020 <__eqdf2>
   81efc:	d8c13b17 	ldw	r3,1260(sp)
   81f00:	da413c17 	ldw	r9,1264(sp)
   81f04:	10000726 	beq	r2,zero,81f24 <___vfprintf_internal_r+0x180c>
   81f08:	d8812217 	ldw	r2,1160(sp)
   81f0c:	10c18a2e 	bgeu	r2,r3,82538 <___vfprintf_internal_r+0x1e20>
   81f10:	01000c04 	movi	r4,48
   81f14:	11000005 	stb	r4,0(r2)
   81f18:	10800044 	addi	r2,r2,1
   81f1c:	d8812215 	stw	r2,1160(sp)
   81f20:	10fffc1e 	bne	r2,r3,81f14 <__alt_data_end+0xfff81f14>
   81f24:	1cc7c83a 	sub	r3,r3,r19
   81f28:	d8c13215 	stw	r3,1224(sp)
   81f2c:	008019c4 	movi	r2,103
   81f30:	9080fa26 	beq	r18,r2,8231c <___vfprintf_internal_r+0x1c04>
   81f34:	008011c4 	movi	r2,71
   81f38:	9080f826 	beq	r18,r2,8231c <___vfprintf_internal_r+0x1c04>
   81f3c:	00801984 	movi	r2,102
   81f40:	90818e1e 	bne	r18,r2,8257c <___vfprintf_internal_r+0x1e64>
   81f44:	d8812417 	ldw	r2,1168(sp)
   81f48:	d8812b15 	stw	r2,1196(sp)
   81f4c:	00817c0e 	bge	zero,r2,82540 <___vfprintf_internal_r+0x1e28>
   81f50:	e000021e 	bne	fp,zero,81f5c <___vfprintf_internal_r+0x1844>
   81f54:	8400004c 	andi	r16,r16,1
   81f58:	80000426 	beq	r16,zero,81f6c <___vfprintf_internal_r+0x1854>
   81f5c:	d8812b17 	ldw	r2,1196(sp)
   81f60:	e2000044 	addi	r8,fp,1
   81f64:	1205883a 	add	r2,r2,r8
   81f68:	d8812b15 	stw	r2,1196(sp)
   81f6c:	d8812815 	stw	r2,1184(sp)
   81f70:	10010b16 	blt	r2,zero,823a0 <___vfprintf_internal_r+0x1c88>
   81f74:	ddc12f07 	ldb	r23,1212(sp)
   81f78:	b800e426 	beq	r23,zero,8230c <___vfprintf_internal_r+0x1bf4>
   81f7c:	00800b44 	movi	r2,45
   81f80:	d8812585 	stb	r2,1174(sp)
   81f84:	dc012a17 	ldw	r16,1192(sp)
   81f88:	d8013115 	stw	zero,1220(sp)
   81f8c:	003b7306 	br	80d5c <__alt_data_end+0xfff80d5c>
   81f90:	d8812b17 	ldw	r2,1196(sp)
   81f94:	d8812815 	stw	r2,1184(sp)
   81f98:	10005716 	blt	r2,zero,820f8 <___vfprintf_internal_r+0x19e0>
   81f9c:	d8812583 	ldbu	r2,1174(sp)
   81fa0:	ddc12d15 	stw	r23,1204(sp)
   81fa4:	d8013115 	stw	zero,1220(sp)
   81fa8:	003b6806 	br	80d4c <__alt_data_end+0xfff80d4c>
   81fac:	d8c12d17 	ldw	r3,1204(sp)
   81fb0:	1dc00017 	ldw	r23,0(r3)
   81fb4:	18c00104 	addi	r3,r3,4
   81fb8:	d8c12d15 	stw	r3,1204(sp)
   81fbc:	b82dd7fa 	srai	r22,r23,31
   81fc0:	b005883a 	mov	r2,r22
   81fc4:	003b4406 	br	80cd8 <__alt_data_end+0xfff80cd8>
   81fc8:	d9012d17 	ldw	r4,1204(sp)
   81fcc:	002d883a 	mov	r22,zero
   81fd0:	00c00044 	movi	r3,1
   81fd4:	25c00017 	ldw	r23,0(r4)
   81fd8:	21000104 	addi	r4,r4,4
   81fdc:	d9012d15 	stw	r4,1204(sp)
   81fe0:	b805883a 	mov	r2,r23
   81fe4:	d8012585 	stb	zero,1174(sp)
   81fe8:	003b4406 	br	80cfc <__alt_data_end+0xfff80cfc>
   81fec:	d9012d17 	ldw	r4,1204(sp)
   81ff0:	002d883a 	mov	r22,zero
   81ff4:	25c00017 	ldw	r23,0(r4)
   81ff8:	21000104 	addi	r4,r4,4
   81ffc:	d9012d15 	stw	r4,1204(sp)
   82000:	003bab06 	br	80eb0 <__alt_data_end+0xfff80eb0>
   82004:	d8812d17 	ldw	r2,1204(sp)
   82008:	002d883a 	mov	r22,zero
   8200c:	0007883a 	mov	r3,zero
   82010:	15c00017 	ldw	r23,0(r2)
   82014:	10800104 	addi	r2,r2,4
   82018:	d8812d15 	stw	r2,1204(sp)
   8201c:	d8012585 	stb	zero,1174(sp)
   82020:	b805883a 	mov	r2,r23
   82024:	003b3506 	br	80cfc <__alt_data_end+0xfff80cfc>
   82028:	00ffffc4 	movi	r3,-1
   8202c:	b82b883a 	mov	r21,r23
   82030:	003a1606 	br	8088c <__alt_data_end+0xfff8088c>
   82034:	008011c4 	movi	r2,71
   82038:	1480b116 	blt	r2,r18,82300 <___vfprintf_internal_r+0x1be8>
   8203c:	04c00274 	movhi	r19,9
   82040:	9cd34904 	addi	r19,r19,19748
   82044:	00c000c4 	movi	r3,3
   82048:	00bfdfc4 	movi	r2,-129
   8204c:	80a0703a 	and	r16,r16,r2
   82050:	d8c12815 	stw	r3,1184(sp)
   82054:	d8812583 	ldbu	r2,1174(sp)
   82058:	d8c12b15 	stw	r3,1196(sp)
   8205c:	d8013115 	stw	zero,1220(sp)
   82060:	003b3a06 	br	80d4c <__alt_data_end+0xfff80d4c>
   82064:	d9412917 	ldw	r5,1188(sp)
   82068:	8809883a 	mov	r4,r17
   8206c:	d9811b04 	addi	r6,sp,1132
   82070:	00806e40 	call	806e4 <__sprint_r>
   82074:	103aee1e 	bne	r2,zero,80c30 <__alt_data_end+0xfff80c30>
   82078:	dc812417 	ldw	r18,1168(sp)
   8207c:	da011d17 	ldw	r8,1140(sp)
   82080:	da400404 	addi	r9,sp,16
   82084:	003f3c06 	br	81d78 <__alt_data_end+0xfff81d78>
   82088:	ad400044 	addi	r21,r21,1
   8208c:	84000814 	ori	r16,r16,32
   82090:	14800047 	ldb	r18,1(r2)
   82094:	0039fc06 	br	80888 <__alt_data_end+0xfff80888>
   82098:	d9412917 	ldw	r5,1188(sp)
   8209c:	8809883a 	mov	r4,r17
   820a0:	d9811b04 	addi	r6,sp,1132
   820a4:	00806e40 	call	806e4 <__sprint_r>
   820a8:	103ae11e 	bne	r2,zero,80c30 <__alt_data_end+0xfff80c30>
   820ac:	da011d17 	ldw	r8,1140(sp)
   820b0:	da400404 	addi	r9,sp,16
   820b4:	003d2b06 	br	81564 <__alt_data_end+0xfff81564>
   820b8:	4d000015 	stw	r20,0(r9)
   820bc:	4c800115 	stw	r18,4(r9)
   820c0:	4491883a 	add	r8,r8,r18
   820c4:	18c00044 	addi	r3,r3,1
   820c8:	da011d15 	stw	r8,1140(sp)
   820cc:	d8c11c15 	stw	r3,1136(sp)
   820d0:	008001c4 	movi	r2,7
   820d4:	10fcbd16 	blt	r2,r3,813cc <__alt_data_end+0xfff813cc>
   820d8:	4a400204 	addi	r9,r9,8
   820dc:	003cc206 	br	813e8 <__alt_data_end+0xfff813e8>
   820e0:	da413c15 	stw	r9,1264(sp)
   820e4:	00806580 	call	80658 <strlen>
   820e8:	d8812b15 	stw	r2,1196(sp)
   820ec:	d8812815 	stw	r2,1184(sp)
   820f0:	da413c17 	ldw	r9,1264(sp)
   820f4:	103fa90e 	bge	r2,zero,81f9c <__alt_data_end+0xfff81f9c>
   820f8:	d8012815 	stw	zero,1184(sp)
   820fc:	003fa706 	br	81f9c <__alt_data_end+0xfff81f9c>
   82100:	d9412917 	ldw	r5,1188(sp)
   82104:	8809883a 	mov	r4,r17
   82108:	d9811b04 	addi	r6,sp,1132
   8210c:	00806e40 	call	806e4 <__sprint_r>
   82110:	103ac71e 	bne	r2,zero,80c30 <__alt_data_end+0xfff80c30>
   82114:	da011d17 	ldw	r8,1140(sp)
   82118:	d8c11c17 	ldw	r3,1136(sp)
   8211c:	da400404 	addi	r9,sp,16
   82120:	d8813217 	ldw	r2,1224(sp)
   82124:	4cc00015 	stw	r19,0(r9)
   82128:	48800115 	stw	r2,4(r9)
   8212c:	4091883a 	add	r8,r8,r2
   82130:	003c6206 	br	812bc <__alt_data_end+0xfff812bc>
   82134:	00800b44 	movi	r2,45
   82138:	d8812585 	stb	r2,1174(sp)
   8213c:	003b2406 	br	80dd0 <__alt_data_end+0xfff80dd0>
   82140:	4d000015 	stw	r20,0(r9)
   82144:	4c800115 	stw	r18,4(r9)
   82148:	4491883a 	add	r8,r8,r18
   8214c:	18c00044 	addi	r3,r3,1
   82150:	da011d15 	stw	r8,1140(sp)
   82154:	d8c11c15 	stw	r3,1136(sp)
   82158:	008001c4 	movi	r2,7
   8215c:	10ffe816 	blt	r2,r3,82100 <__alt_data_end+0xfff82100>
   82160:	4a400204 	addi	r9,r9,8
   82164:	003fee06 	br	82120 <__alt_data_end+0xfff82120>
   82168:	d8c12b15 	stw	r3,1196(sp)
   8216c:	00800184 	movi	r2,6
   82170:	10c0062e 	bgeu	r2,r3,8218c <___vfprintf_internal_r+0x1a74>
   82174:	d8812b15 	stw	r2,1196(sp)
   82178:	d8812815 	stw	r2,1184(sp)
   8217c:	ddc12d15 	stw	r23,1204(sp)
   82180:	04c00274 	movhi	r19,9
   82184:	9cd35504 	addi	r19,r19,19796
   82188:	0039ca06 	br	808b4 <__alt_data_end+0xfff808b4>
   8218c:	d8812b17 	ldw	r2,1196(sp)
   82190:	d8812815 	stw	r2,1184(sp)
   82194:	103ff90e 	bge	r2,zero,8217c <__alt_data_end+0xfff8217c>
   82198:	d8012815 	stw	zero,1184(sp)
   8219c:	003ff706 	br	8217c <__alt_data_end+0xfff8217c>
   821a0:	00800244 	movi	r2,9
   821a4:	15fdaa36 	bltu	r2,r23,81850 <__alt_data_end+0xfff81850>
   821a8:	dd010e04 	addi	r20,sp,1080
   821ac:	003dc606 	br	818c8 <__alt_data_end+0xfff818c8>
   821b0:	d9412917 	ldw	r5,1188(sp)
   821b4:	8809883a 	mov	r4,r17
   821b8:	d9811b04 	addi	r6,sp,1132
   821bc:	00806e40 	call	806e4 <__sprint_r>
   821c0:	103a9b1e 	bne	r2,zero,80c30 <__alt_data_end+0xfff80c30>
   821c4:	dc812417 	ldw	r18,1168(sp)
   821c8:	da400404 	addi	r9,sp,16
   821cc:	003ecd06 	br	81d04 <__alt_data_end+0xfff81d04>
   821d0:	d9412917 	ldw	r5,1188(sp)
   821d4:	8809883a 	mov	r4,r17
   821d8:	d9811b04 	addi	r6,sp,1132
   821dc:	00806e40 	call	806e4 <__sprint_r>
   821e0:	103a931e 	bne	r2,zero,80c30 <__alt_data_end+0xfff80c30>
   821e4:	dc812417 	ldw	r18,1168(sp)
   821e8:	da011d17 	ldw	r8,1140(sp)
   821ec:	d8c11c17 	ldw	r3,1136(sp)
   821f0:	da400404 	addi	r9,sp,16
   821f4:	003eb706 	br	81cd4 <__alt_data_end+0xfff81cd4>
   821f8:	d9412917 	ldw	r5,1188(sp)
   821fc:	8809883a 	mov	r4,r17
   82200:	d9811b04 	addi	r6,sp,1132
   82204:	00806e40 	call	806e4 <__sprint_r>
   82208:	103a891e 	bne	r2,zero,80c30 <__alt_data_end+0xfff80c30>
   8220c:	dc812417 	ldw	r18,1168(sp)
   82210:	da011d17 	ldw	r8,1140(sp)
   82214:	da400404 	addi	r9,sp,16
   82218:	003dc206 	br	81924 <__alt_data_end+0xfff81924>
   8221c:	df012815 	stw	fp,1184(sp)
   82220:	d8812583 	ldbu	r2,1174(sp)
   82224:	df012b15 	stw	fp,1196(sp)
   82228:	ddc12d15 	stw	r23,1204(sp)
   8222c:	d8013115 	stw	zero,1220(sp)
   82230:	003ac606 	br	80d4c <__alt_data_end+0xfff80d4c>
   82234:	d8812404 	addi	r2,sp,1168
   82238:	d8800115 	stw	r2,4(sp)
   8223c:	d8812304 	addi	r2,sp,1164
   82240:	d8800215 	stw	r2,8(sp)
   82244:	d8812204 	addi	r2,sp,1160
   82248:	df000015 	stw	fp,0(sp)
   8224c:	d8800315 	stw	r2,12(sp)
   82250:	8809883a 	mov	r4,r17
   82254:	b00b883a 	mov	r5,r22
   82258:	a00d883a 	mov	r6,r20
   8225c:	01c000c4 	movi	r7,3
   82260:	da413c15 	stw	r9,1264(sp)
   82264:	00829680 	call	82968 <_dtoa_r>
   82268:	da413c17 	ldw	r9,1264(sp)
   8226c:	1027883a 	mov	r19,r2
   82270:	1707883a 	add	r3,r2,fp
   82274:	e02f883a 	mov	r23,fp
   82278:	99000007 	ldb	r4,0(r19)
   8227c:	00800c04 	movi	r2,48
   82280:	20800326 	beq	r4,r2,82290 <___vfprintf_internal_r+0x1b78>
   82284:	da812417 	ldw	r10,1168(sp)
   82288:	1a87883a 	add	r3,r3,r10
   8228c:	003f1406 	br	81ee0 <__alt_data_end+0xfff81ee0>
   82290:	b009883a 	mov	r4,r22
   82294:	a00b883a 	mov	r5,r20
   82298:	000d883a 	mov	r6,zero
   8229c:	000f883a 	mov	r7,zero
   822a0:	d8c13b15 	stw	r3,1260(sp)
   822a4:	da413c15 	stw	r9,1264(sp)
   822a8:	008907c0 	call	8907c <__nedf2>
   822ac:	d8c13b17 	ldw	r3,1260(sp)
   822b0:	da413c17 	ldw	r9,1264(sp)
   822b4:	103ff326 	beq	r2,zero,82284 <__alt_data_end+0xfff82284>
   822b8:	00800044 	movi	r2,1
   822bc:	15d5c83a 	sub	r10,r2,r23
   822c0:	da812415 	stw	r10,1168(sp)
   822c4:	1a87883a 	add	r3,r3,r10
   822c8:	003f0506 	br	81ee0 <__alt_data_end+0xfff81ee0>
   822cc:	d9412917 	ldw	r5,1188(sp)
   822d0:	8809883a 	mov	r4,r17
   822d4:	d9811b04 	addi	r6,sp,1132
   822d8:	00806e40 	call	806e4 <__sprint_r>
   822dc:	103a541e 	bne	r2,zero,80c30 <__alt_data_end+0xfff80c30>
   822e0:	dc812417 	ldw	r18,1168(sp)
   822e4:	da011d17 	ldw	r8,1140(sp)
   822e8:	d8c11c17 	ldw	r3,1136(sp)
   822ec:	da400404 	addi	r9,sp,16
   822f0:	003eb206 	br	81dbc <__alt_data_end+0xfff81dbc>
   822f4:	b82b883a 	mov	r21,r23
   822f8:	0007883a 	mov	r3,zero
   822fc:	00396306 	br	8088c <__alt_data_end+0xfff8088c>
   82300:	04c00274 	movhi	r19,9
   82304:	9cd34a04 	addi	r19,r19,19752
   82308:	003f4e06 	br	82044 <__alt_data_end+0xfff82044>
   8230c:	d8812583 	ldbu	r2,1174(sp)
   82310:	dc012a17 	ldw	r16,1192(sp)
   82314:	d8013115 	stw	zero,1220(sp)
   82318:	003a8c06 	br	80d4c <__alt_data_end+0xfff80d4c>
   8231c:	d8812417 	ldw	r2,1168(sp)
   82320:	d8812b15 	stw	r2,1196(sp)
   82324:	1029883a 	mov	r20,r2
   82328:	00bfff44 	movi	r2,-3
   8232c:	a0800116 	blt	r20,r2,82334 <___vfprintf_internal_r+0x1c1c>
   82330:	e5001d0e 	bge	fp,r20,823a8 <___vfprintf_internal_r+0x1c90>
   82334:	94bfff84 	addi	r18,r18,-2
   82338:	a53fffc4 	addi	r20,r20,-1
   8233c:	dd012415 	stw	r20,1168(sp)
   82340:	dc811fc5 	stb	r18,1151(sp)
   82344:	a0007216 	blt	r20,zero,82510 <___vfprintf_internal_r+0x1df8>
   82348:	00800ac4 	movi	r2,43
   8234c:	d8812005 	stb	r2,1152(sp)
   82350:	00800244 	movi	r2,9
   82354:	15003516 	blt	r2,r20,8242c <___vfprintf_internal_r+0x1d14>
   82358:	00800c04 	movi	r2,48
   8235c:	a5000c04 	addi	r20,r20,48
   82360:	d8812045 	stb	r2,1153(sp)
   82364:	dd012085 	stb	r20,1154(sp)
   82368:	d8c120c4 	addi	r3,sp,1155
   8236c:	d8811fc4 	addi	r2,sp,1151
   82370:	1885c83a 	sub	r2,r3,r2
   82374:	d8c13217 	ldw	r3,1224(sp)
   82378:	d8813515 	stw	r2,1236(sp)
   8237c:	1885883a 	add	r2,r3,r2
   82380:	d8812b15 	stw	r2,1196(sp)
   82384:	00800044 	movi	r2,1
   82388:	10c0580e 	bge	r2,r3,824ec <___vfprintf_internal_r+0x1dd4>
   8238c:	d8812b17 	ldw	r2,1196(sp)
   82390:	10800044 	addi	r2,r2,1
   82394:	d8812b15 	stw	r2,1196(sp)
   82398:	d8812815 	stw	r2,1184(sp)
   8239c:	103ef50e 	bge	r2,zero,81f74 <__alt_data_end+0xfff81f74>
   823a0:	d8012815 	stw	zero,1184(sp)
   823a4:	003ef306 	br	81f74 <__alt_data_end+0xfff81f74>
   823a8:	d8812b17 	ldw	r2,1196(sp)
   823ac:	d8c13217 	ldw	r3,1224(sp)
   823b0:	10c01416 	blt	r2,r3,82404 <___vfprintf_internal_r+0x1cec>
   823b4:	8400004c 	andi	r16,r16,1
   823b8:	80000326 	beq	r16,zero,823c8 <___vfprintf_internal_r+0x1cb0>
   823bc:	d8812b17 	ldw	r2,1196(sp)
   823c0:	10800044 	addi	r2,r2,1
   823c4:	d8812b15 	stw	r2,1196(sp)
   823c8:	d8812815 	stw	r2,1184(sp)
   823cc:	10001416 	blt	r2,zero,82420 <___vfprintf_internal_r+0x1d08>
   823d0:	048019c4 	movi	r18,103
   823d4:	003ee706 	br	81f74 <__alt_data_end+0xfff81f74>
   823d8:	d8012815 	stw	zero,1184(sp)
   823dc:	003b1a06 	br	81048 <__alt_data_end+0xfff81048>
   823e0:	e03e9c1e 	bne	fp,zero,81e54 <__alt_data_end+0xfff81e54>
   823e4:	07000044 	movi	fp,1
   823e8:	003e9a06 	br	81e54 <__alt_data_end+0xfff81e54>
   823ec:	07000184 	movi	fp,6
   823f0:	003e9806 	br	81e54 <__alt_data_end+0xfff81e54>
   823f4:	00c00b44 	movi	r3,45
   823f8:	a520003c 	xorhi	r20,r20,32768
   823fc:	d8c12f05 	stb	r3,1212(sp)
   82400:	003e9806 	br	81e64 <__alt_data_end+0xfff81e64>
   82404:	05003f0e 	bge	zero,r20,82504 <___vfprintf_internal_r+0x1dec>
   82408:	05000044 	movi	r20,1
   8240c:	d8c13217 	ldw	r3,1224(sp)
   82410:	a0e9883a 	add	r20,r20,r3
   82414:	dd012b15 	stw	r20,1196(sp)
   82418:	dd012815 	stw	r20,1184(sp)
   8241c:	a03fec0e 	bge	r20,zero,823d0 <__alt_data_end+0xfff823d0>
   82420:	d8012815 	stw	zero,1184(sp)
   82424:	048019c4 	movi	r18,103
   82428:	003ed206 	br	81f74 <__alt_data_end+0xfff81f74>
   8242c:	d8c11f84 	addi	r3,sp,1150
   82430:	102f883a 	mov	r23,r2
   82434:	4839883a 	mov	fp,r9
   82438:	a009883a 	mov	r4,r20
   8243c:	01400284 	movi	r5,10
   82440:	182d883a 	mov	r22,r3
   82444:	00895740 	call	89574 <__modsi3>
   82448:	10800c04 	addi	r2,r2,48
   8244c:	a009883a 	mov	r4,r20
   82450:	b0800005 	stb	r2,0(r22)
   82454:	01400284 	movi	r5,10
   82458:	00895240 	call	89524 <__divsi3>
   8245c:	1029883a 	mov	r20,r2
   82460:	b0ffffc4 	addi	r3,r22,-1
   82464:	b8bff416 	blt	r23,r2,82438 <__alt_data_end+0xfff82438>
   82468:	11400c04 	addi	r5,r2,48
   8246c:	b17fffc5 	stb	r5,-1(r22)
   82470:	d8811fc4 	addi	r2,sp,1151
   82474:	e013883a 	mov	r9,fp
   82478:	18803e2e 	bgeu	r3,r2,82574 <___vfprintf_internal_r+0x1e5c>
   8247c:	b007883a 	mov	r3,r22
   82480:	d9012044 	addi	r4,sp,1153
   82484:	00000206 	br	82490 <___vfprintf_internal_r+0x1d78>
   82488:	19400003 	ldbu	r5,0(r3)
   8248c:	18c00044 	addi	r3,r3,1
   82490:	21400005 	stb	r5,0(r4)
   82494:	21000044 	addi	r4,r4,1
   82498:	10fffb1e 	bne	r2,r3,82488 <__alt_data_end+0xfff82488>
   8249c:	d8c12004 	addi	r3,sp,1152
   824a0:	1d87c83a 	sub	r3,r3,r22
   824a4:	d9012044 	addi	r4,sp,1153
   824a8:	20c7883a 	add	r3,r4,r3
   824ac:	003fb006 	br	82370 <__alt_data_end+0xfff82370>
   824b0:	e5c00044 	addi	r23,fp,1
   824b4:	003e7406 	br	81e88 <__alt_data_end+0xfff81e88>
   824b8:	d8c12217 	ldw	r3,1160(sp)
   824bc:	003e9906 	br	81f24 <__alt_data_end+0xfff81f24>
   824c0:	d9012d17 	ldw	r4,1204(sp)
   824c4:	ac800043 	ldbu	r18,1(r21)
   824c8:	b82b883a 	mov	r21,r23
   824cc:	20c00017 	ldw	r3,0(r4)
   824d0:	20800104 	addi	r2,r4,4
   824d4:	d8812d15 	stw	r2,1204(sp)
   824d8:	18002116 	blt	r3,zero,82560 <___vfprintf_internal_r+0x1e48>
   824dc:	94803fcc 	andi	r18,r18,255
   824e0:	9480201c 	xori	r18,r18,128
   824e4:	94bfe004 	addi	r18,r18,-128
   824e8:	0038e706 	br	80888 <__alt_data_end+0xfff80888>
   824ec:	80a0703a 	and	r16,r16,r2
   824f0:	803fa61e 	bne	r16,zero,8238c <__alt_data_end+0xfff8238c>
   824f4:	d8812b17 	ldw	r2,1196(sp)
   824f8:	d8812815 	stw	r2,1184(sp)
   824fc:	103e9d0e 	bge	r2,zero,81f74 <__alt_data_end+0xfff81f74>
   82500:	003fa706 	br	823a0 <__alt_data_end+0xfff823a0>
   82504:	00800084 	movi	r2,2
   82508:	1529c83a 	sub	r20,r2,r20
   8250c:	003fbf06 	br	8240c <__alt_data_end+0xfff8240c>
   82510:	00800b44 	movi	r2,45
   82514:	0529c83a 	sub	r20,zero,r20
   82518:	d8812005 	stb	r2,1152(sp)
   8251c:	003f8c06 	br	82350 <__alt_data_end+0xfff82350>
   82520:	008011c4 	movi	r2,71
   82524:	90be6926 	beq	r18,r2,81ecc <__alt_data_end+0xfff81ecc>
   82528:	003e6a06 	br	81ed4 <__alt_data_end+0xfff81ed4>
   8252c:	00bfffc4 	movi	r2,-1
   82530:	d8812c15 	stw	r2,1200(sp)
   82534:	0039ad06 	br	80bec <__alt_data_end+0xfff80bec>
   82538:	1007883a 	mov	r3,r2
   8253c:	003e7906 	br	81f24 <__alt_data_end+0xfff81f24>
   82540:	e000021e 	bne	fp,zero,8254c <___vfprintf_internal_r+0x1e34>
   82544:	8400004c 	andi	r16,r16,1
   82548:	80000e26 	beq	r16,zero,82584 <___vfprintf_internal_r+0x1e6c>
   8254c:	e7000084 	addi	fp,fp,2
   82550:	df012b15 	stw	fp,1196(sp)
   82554:	df012815 	stw	fp,1184(sp)
   82558:	e03e860e 	bge	fp,zero,81f74 <__alt_data_end+0xfff81f74>
   8255c:	003f9006 	br	823a0 <__alt_data_end+0xfff823a0>
   82560:	94803fcc 	andi	r18,r18,255
   82564:	9480201c 	xori	r18,r18,128
   82568:	00ffffc4 	movi	r3,-1
   8256c:	94bfe004 	addi	r18,r18,-128
   82570:	0038c506 	br	80888 <__alt_data_end+0xfff80888>
   82574:	d8c12044 	addi	r3,sp,1153
   82578:	003f7d06 	br	82370 <__alt_data_end+0xfff82370>
   8257c:	dd012417 	ldw	r20,1168(sp)
   82580:	003f6d06 	br	82338 <__alt_data_end+0xfff82338>
   82584:	00c00044 	movi	r3,1
   82588:	d8c12815 	stw	r3,1184(sp)
   8258c:	d8c12b15 	stw	r3,1196(sp)
   82590:	003e7806 	br	81f74 <__alt_data_end+0xfff81f74>

00082594 <__vfprintf_internal>:
   82594:	00800274 	movhi	r2,9
   82598:	109ae204 	addi	r2,r2,27528
   8259c:	2007883a 	mov	r3,r4
   825a0:	11000017 	ldw	r4,0(r2)
   825a4:	2805883a 	mov	r2,r5
   825a8:	300f883a 	mov	r7,r6
   825ac:	180b883a 	mov	r5,r3
   825b0:	100d883a 	mov	r6,r2
   825b4:	00807181 	jmpi	80718 <___vfprintf_internal_r>

000825b8 <__swsetup_r>:
   825b8:	00800274 	movhi	r2,9
   825bc:	109ae204 	addi	r2,r2,27528
   825c0:	10800017 	ldw	r2,0(r2)
   825c4:	defffd04 	addi	sp,sp,-12
   825c8:	dc400115 	stw	r17,4(sp)
   825cc:	dc000015 	stw	r16,0(sp)
   825d0:	dfc00215 	stw	ra,8(sp)
   825d4:	2023883a 	mov	r17,r4
   825d8:	2821883a 	mov	r16,r5
   825dc:	10000226 	beq	r2,zero,825e8 <__swsetup_r+0x30>
   825e0:	10c00e17 	ldw	r3,56(r2)
   825e4:	18003d26 	beq	r3,zero,826dc <__swsetup_r+0x124>
   825e8:	8080030b 	ldhu	r2,12(r16)
   825ec:	10c0020c 	andi	r3,r2,8
   825f0:	18ffffcc 	andi	r3,r3,65535
   825f4:	18e0001c 	xori	r3,r3,32768
   825f8:	18e00004 	addi	r3,r3,-32768
   825fc:	18001226 	beq	r3,zero,82648 <__swsetup_r+0x90>
   82600:	80c00417 	ldw	r3,16(r16)
   82604:	18001f26 	beq	r3,zero,82684 <__swsetup_r+0xcc>
   82608:	1100004c 	andi	r4,r2,1
   8260c:	2000261e 	bne	r4,zero,826a8 <__swsetup_r+0xf0>
   82610:	1080008c 	andi	r2,r2,2
   82614:	10bfffcc 	andi	r2,r2,65535
   82618:	10a0001c 	xori	r2,r2,32768
   8261c:	10a00004 	addi	r2,r2,-32768
   82620:	1000311e 	bne	r2,zero,826e8 <__swsetup_r+0x130>
   82624:	80800517 	ldw	r2,20(r16)
   82628:	80800215 	stw	r2,8(r16)
   8262c:	18002326 	beq	r3,zero,826bc <__swsetup_r+0x104>
   82630:	0005883a 	mov	r2,zero
   82634:	dfc00217 	ldw	ra,8(sp)
   82638:	dc400117 	ldw	r17,4(sp)
   8263c:	dc000017 	ldw	r16,0(sp)
   82640:	dec00304 	addi	sp,sp,12
   82644:	f800283a 	ret
   82648:	10c0040c 	andi	r3,r2,16
   8264c:	18ffffcc 	andi	r3,r3,65535
   82650:	18e0001c 	xori	r3,r3,32768
   82654:	18e00004 	addi	r3,r3,-32768
   82658:	18001e26 	beq	r3,zero,826d4 <__swsetup_r+0x11c>
   8265c:	10c0010c 	andi	r3,r2,4
   82660:	18ffffcc 	andi	r3,r3,65535
   82664:	18e0001c 	xori	r3,r3,32768
   82668:	18e00004 	addi	r3,r3,-32768
   8266c:	1800211e 	bne	r3,zero,826f4 <__swsetup_r+0x13c>
   82670:	80c00417 	ldw	r3,16(r16)
   82674:	11400214 	ori	r5,r2,8
   82678:	8140030d 	sth	r5,12(r16)
   8267c:	2805883a 	mov	r2,r5
   82680:	183fe11e 	bne	r3,zero,82608 <__alt_data_end+0xfff82608>
   82684:	1140a00c 	andi	r5,r2,640
   82688:	01008004 	movi	r4,512
   8268c:	293fde26 	beq	r5,r4,82608 <__alt_data_end+0xfff82608>
   82690:	8809883a 	mov	r4,r17
   82694:	800b883a 	mov	r5,r16
   82698:	0084fb40 	call	84fb4 <__smakebuf_r>
   8269c:	8080030b 	ldhu	r2,12(r16)
   826a0:	80c00417 	ldw	r3,16(r16)
   826a4:	003fd806 	br	82608 <__alt_data_end+0xfff82608>
   826a8:	80800517 	ldw	r2,20(r16)
   826ac:	80000215 	stw	zero,8(r16)
   826b0:	0085c83a 	sub	r2,zero,r2
   826b4:	80800615 	stw	r2,24(r16)
   826b8:	183fdd1e 	bne	r3,zero,82630 <__alt_data_end+0xfff82630>
   826bc:	8080030b 	ldhu	r2,12(r16)
   826c0:	1080200c 	andi	r2,r2,128
   826c4:	10bfffcc 	andi	r2,r2,65535
   826c8:	10a0001c 	xori	r2,r2,32768
   826cc:	10a00004 	addi	r2,r2,-32768
   826d0:	103fd826 	beq	r2,zero,82634 <__alt_data_end+0xfff82634>
   826d4:	00bfffc4 	movi	r2,-1
   826d8:	003fd606 	br	82634 <__alt_data_end+0xfff82634>
   826dc:	1009883a 	mov	r4,r2
   826e0:	00842400 	call	84240 <__sinit>
   826e4:	003fc006 	br	825e8 <__alt_data_end+0xfff825e8>
   826e8:	0005883a 	mov	r2,zero
   826ec:	80800215 	stw	r2,8(r16)
   826f0:	003fce06 	br	8262c <__alt_data_end+0xfff8262c>
   826f4:	81400c17 	ldw	r5,48(r16)
   826f8:	28000626 	beq	r5,zero,82714 <__swsetup_r+0x15c>
   826fc:	80c01004 	addi	r3,r16,64
   82700:	28c00326 	beq	r5,r3,82710 <__swsetup_r+0x158>
   82704:	8809883a 	mov	r4,r17
   82708:	00845c40 	call	845c4 <_free_r>
   8270c:	8080030b 	ldhu	r2,12(r16)
   82710:	80000c15 	stw	zero,48(r16)
   82714:	80c00417 	ldw	r3,16(r16)
   82718:	013ff6c4 	movi	r4,-37
   8271c:	2084703a 	and	r2,r4,r2
   82720:	80000115 	stw	zero,4(r16)
   82724:	80c00015 	stw	r3,0(r16)
   82728:	003fd206 	br	82674 <__alt_data_end+0xfff82674>

0008272c <quorem>:
   8272c:	defff204 	addi	sp,sp,-56
   82730:	dd000815 	stw	r20,32(sp)
   82734:	20800417 	ldw	r2,16(r4)
   82738:	2d000417 	ldw	r20,16(r5)
   8273c:	dcc00715 	stw	r19,28(sp)
   82740:	dfc00d15 	stw	ra,52(sp)
   82744:	df000c15 	stw	fp,48(sp)
   82748:	ddc00b15 	stw	r23,44(sp)
   8274c:	dd800a15 	stw	r22,40(sp)
   82750:	dd400915 	stw	r21,36(sp)
   82754:	dc800615 	stw	r18,24(sp)
   82758:	dc400515 	stw	r17,20(sp)
   8275c:	dc000415 	stw	r16,16(sp)
   82760:	d9400015 	stw	r5,0(sp)
   82764:	2027883a 	mov	r19,r4
   82768:	15007d16 	blt	r2,r20,82960 <quorem+0x234>
   8276c:	a0800104 	addi	r2,r20,4
   82770:	1085883a 	add	r2,r2,r2
   82774:	1085883a 	add	r2,r2,r2
   82778:	28ad883a 	add	r22,r5,r2
   8277c:	2085883a 	add	r2,r4,r2
   82780:	10800017 	ldw	r2,0(r2)
   82784:	b1400017 	ldw	r5,0(r22)
   82788:	a53fffc4 	addi	r20,r20,-1
   8278c:	1009883a 	mov	r4,r2
   82790:	29400044 	addi	r5,r5,1
   82794:	d8800115 	stw	r2,4(sp)
   82798:	00895d00 	call	895d0 <__udivsi3>
   8279c:	1025883a 	mov	r18,r2
   827a0:	d8800017 	ldw	r2,0(sp)
   827a4:	9f000504 	addi	fp,r19,20
   827a8:	14000504 	addi	r16,r2,20
   827ac:	90003626 	beq	r18,zero,82888 <quorem+0x15c>
   827b0:	802b883a 	mov	r21,r16
   827b4:	e023883a 	mov	r17,fp
   827b8:	0007883a 	mov	r3,zero
   827bc:	002f883a 	mov	r23,zero
   827c0:	a9800017 	ldw	r6,0(r21)
   827c4:	900b883a 	mov	r5,r18
   827c8:	d8c00315 	stw	r3,12(sp)
   827cc:	313fffcc 	andi	r4,r6,65535
   827d0:	d9800215 	stw	r6,8(sp)
   827d4:	00895e00 	call	895e0 <__mulsi3>
   827d8:	d9800217 	ldw	r6,8(sp)
   827dc:	d8c00317 	ldw	r3,12(sp)
   827e0:	900b883a 	mov	r5,r18
   827e4:	3008d43a 	srli	r4,r6,16
   827e8:	1887883a 	add	r3,r3,r2
   827ec:	d8c00315 	stw	r3,12(sp)
   827f0:	00895e00 	call	895e0 <__mulsi3>
   827f4:	89400017 	ldw	r5,0(r17)
   827f8:	d8c00317 	ldw	r3,12(sp)
   827fc:	ad400104 	addi	r21,r21,4
   82800:	293fffcc 	andi	r4,r5,65535
   82804:	1810d43a 	srli	r8,r3,16
   82808:	25c9883a 	add	r4,r4,r23
   8280c:	18ffffcc 	andi	r3,r3,65535
   82810:	20c9c83a 	sub	r4,r4,r3
   82814:	280cd43a 	srli	r6,r5,16
   82818:	4085883a 	add	r2,r8,r2
   8281c:	2007d43a 	srai	r3,r4,16
   82820:	117fffcc 	andi	r5,r2,65535
   82824:	314bc83a 	sub	r5,r6,r5
   82828:	28cb883a 	add	r5,r5,r3
   8282c:	8940008d 	sth	r5,2(r17)
   82830:	8900000d 	sth	r4,0(r17)
   82834:	1006d43a 	srli	r3,r2,16
   82838:	282fd43a 	srai	r23,r5,16
   8283c:	8c400104 	addi	r17,r17,4
   82840:	b57fdf2e 	bgeu	r22,r21,827c0 <__alt_data_end+0xfff827c0>
   82844:	d8c00117 	ldw	r3,4(sp)
   82848:	18000f1e 	bne	r3,zero,82888 <quorem+0x15c>
   8284c:	a0800144 	addi	r2,r20,5
   82850:	1085883a 	add	r2,r2,r2
   82854:	1085883a 	add	r2,r2,r2
   82858:	9887883a 	add	r3,r19,r2
   8285c:	18bfff04 	addi	r2,r3,-4
   82860:	e080082e 	bgeu	fp,r2,82884 <quorem+0x158>
   82864:	18ffff17 	ldw	r3,-4(r3)
   82868:	18000326 	beq	r3,zero,82878 <quorem+0x14c>
   8286c:	00000506 	br	82884 <quorem+0x158>
   82870:	10c00017 	ldw	r3,0(r2)
   82874:	1800031e 	bne	r3,zero,82884 <quorem+0x158>
   82878:	10bfff04 	addi	r2,r2,-4
   8287c:	a53fffc4 	addi	r20,r20,-1
   82880:	e0bffb36 	bltu	fp,r2,82870 <__alt_data_end+0xfff82870>
   82884:	9d000415 	stw	r20,16(r19)
   82888:	d9400017 	ldw	r5,0(sp)
   8288c:	9809883a 	mov	r4,r19
   82890:	00866cc0 	call	866cc <__mcmp>
   82894:	10002516 	blt	r2,zero,8292c <quorem+0x200>
   82898:	94800044 	addi	r18,r18,1
   8289c:	e007883a 	mov	r3,fp
   828a0:	000d883a 	mov	r6,zero
   828a4:	18800017 	ldw	r2,0(r3)
   828a8:	82000017 	ldw	r8,0(r16)
   828ac:	84000104 	addi	r16,r16,4
   828b0:	11ffffcc 	andi	r7,r2,65535
   828b4:	413fffcc 	andi	r4,r8,65535
   828b8:	398d883a 	add	r6,r7,r6
   828bc:	310fc83a 	sub	r7,r6,r4
   828c0:	4010d43a 	srli	r8,r8,16
   828c4:	100cd43a 	srli	r6,r2,16
   828c8:	3809d43a 	srai	r4,r7,16
   828cc:	19c0000d 	sth	r7,0(r3)
   828d0:	320dc83a 	sub	r6,r6,r8
   828d4:	310d883a 	add	r6,r6,r4
   828d8:	1980008d 	sth	r6,2(r3)
   828dc:	300dd43a 	srai	r6,r6,16
   828e0:	18c00104 	addi	r3,r3,4
   828e4:	b43fef2e 	bgeu	r22,r16,828a4 <__alt_data_end+0xfff828a4>
   828e8:	a0800144 	addi	r2,r20,5
   828ec:	1085883a 	add	r2,r2,r2
   828f0:	1085883a 	add	r2,r2,r2
   828f4:	9885883a 	add	r2,r19,r2
   828f8:	10c00017 	ldw	r3,0(r2)
   828fc:	18000b1e 	bne	r3,zero,8292c <quorem+0x200>
   82900:	10ffff04 	addi	r3,r2,-4
   82904:	e0c0082e 	bgeu	fp,r3,82928 <quorem+0x1fc>
   82908:	10bfff17 	ldw	r2,-4(r2)
   8290c:	10000326 	beq	r2,zero,8291c <quorem+0x1f0>
   82910:	00000506 	br	82928 <quorem+0x1fc>
   82914:	18800017 	ldw	r2,0(r3)
   82918:	1000031e 	bne	r2,zero,82928 <quorem+0x1fc>
   8291c:	18ffff04 	addi	r3,r3,-4
   82920:	a53fffc4 	addi	r20,r20,-1
   82924:	e0fffb36 	bltu	fp,r3,82914 <__alt_data_end+0xfff82914>
   82928:	9d000415 	stw	r20,16(r19)
   8292c:	9005883a 	mov	r2,r18
   82930:	dfc00d17 	ldw	ra,52(sp)
   82934:	df000c17 	ldw	fp,48(sp)
   82938:	ddc00b17 	ldw	r23,44(sp)
   8293c:	dd800a17 	ldw	r22,40(sp)
   82940:	dd400917 	ldw	r21,36(sp)
   82944:	dd000817 	ldw	r20,32(sp)
   82948:	dcc00717 	ldw	r19,28(sp)
   8294c:	dc800617 	ldw	r18,24(sp)
   82950:	dc400517 	ldw	r17,20(sp)
   82954:	dc000417 	ldw	r16,16(sp)
   82958:	dec00e04 	addi	sp,sp,56
   8295c:	f800283a 	ret
   82960:	0005883a 	mov	r2,zero
   82964:	003ff206 	br	82930 <__alt_data_end+0xfff82930>

00082968 <_dtoa_r>:
   82968:	20801017 	ldw	r2,64(r4)
   8296c:	deffdf04 	addi	sp,sp,-132
   82970:	dcc01a15 	stw	r19,104(sp)
   82974:	dc801915 	stw	r18,100(sp)
   82978:	dc401815 	stw	r17,96(sp)
   8297c:	dc001715 	stw	r16,92(sp)
   82980:	dfc02015 	stw	ra,128(sp)
   82984:	df001f15 	stw	fp,124(sp)
   82988:	ddc01e15 	stw	r23,120(sp)
   8298c:	dd801d15 	stw	r22,116(sp)
   82990:	dd401c15 	stw	r21,112(sp)
   82994:	dd001b15 	stw	r20,108(sp)
   82998:	d9400315 	stw	r5,12(sp)
   8299c:	d9c00415 	stw	r7,16(sp)
   829a0:	2021883a 	mov	r16,r4
   829a4:	3025883a 	mov	r18,r6
   829a8:	dcc02317 	ldw	r19,140(sp)
   829ac:	3023883a 	mov	r17,r6
   829b0:	10000826 	beq	r2,zero,829d4 <_dtoa_r+0x6c>
   829b4:	20c01117 	ldw	r3,68(r4)
   829b8:	01800044 	movi	r6,1
   829bc:	100b883a 	mov	r5,r2
   829c0:	30cc983a 	sll	r6,r6,r3
   829c4:	10c00115 	stw	r3,4(r2)
   829c8:	11800215 	stw	r6,8(r2)
   829cc:	0085e280 	call	85e28 <_Bfree>
   829d0:	80001015 	stw	zero,64(r16)
   829d4:	90002f16 	blt	r18,zero,82a94 <_dtoa_r+0x12c>
   829d8:	98000015 	stw	zero,0(r19)
   829dc:	90dffc2c 	andhi	r3,r18,32752
   829e0:	009ffc34 	movhi	r2,32752
   829e4:	18801c26 	beq	r3,r2,82a58 <_dtoa_r+0xf0>
   829e8:	d9000317 	ldw	r4,12(sp)
   829ec:	880b883a 	mov	r5,r17
   829f0:	000d883a 	mov	r6,zero
   829f4:	000f883a 	mov	r7,zero
   829f8:	008907c0 	call	8907c <__nedf2>
   829fc:	10002c1e 	bne	r2,zero,82ab0 <_dtoa_r+0x148>
   82a00:	d9002217 	ldw	r4,136(sp)
   82a04:	d9c02417 	ldw	r7,144(sp)
   82a08:	00800044 	movi	r2,1
   82a0c:	20800015 	stw	r2,0(r4)
   82a10:	38019426 	beq	r7,zero,83064 <_dtoa_r+0x6fc>
   82a14:	00800274 	movhi	r2,9
   82a18:	10935744 	addi	r2,r2,19805
   82a1c:	38800015 	stw	r2,0(r7)
   82a20:	15ffffc4 	addi	r23,r2,-1
   82a24:	b805883a 	mov	r2,r23
   82a28:	dfc02017 	ldw	ra,128(sp)
   82a2c:	df001f17 	ldw	fp,124(sp)
   82a30:	ddc01e17 	ldw	r23,120(sp)
   82a34:	dd801d17 	ldw	r22,116(sp)
   82a38:	dd401c17 	ldw	r21,112(sp)
   82a3c:	dd001b17 	ldw	r20,108(sp)
   82a40:	dcc01a17 	ldw	r19,104(sp)
   82a44:	dc801917 	ldw	r18,100(sp)
   82a48:	dc401817 	ldw	r17,96(sp)
   82a4c:	dc001717 	ldw	r16,92(sp)
   82a50:	dec02104 	addi	sp,sp,132
   82a54:	f800283a 	ret
   82a58:	d8c02217 	ldw	r3,136(sp)
   82a5c:	d9000317 	ldw	r4,12(sp)
   82a60:	0089c3c4 	movi	r2,9999
   82a64:	18800015 	stw	r2,0(r3)
   82a68:	20016c26 	beq	r4,zero,8301c <_dtoa_r+0x6b4>
   82a6c:	05c00274 	movhi	r23,9
   82a70:	bdd36304 	addi	r23,r23,19852
   82a74:	d9c02417 	ldw	r7,144(sp)
   82a78:	383fea26 	beq	r7,zero,82a24 <__alt_data_end+0xfff82a24>
   82a7c:	b88000c7 	ldb	r2,3(r23)
   82a80:	10016d1e 	bne	r2,zero,83038 <_dtoa_r+0x6d0>
   82a84:	b88000c4 	addi	r2,r23,3
   82a88:	d8c02417 	ldw	r3,144(sp)
   82a8c:	18800015 	stw	r2,0(r3)
   82a90:	003fe406 	br	82a24 <__alt_data_end+0xfff82a24>
   82a94:	04600034 	movhi	r17,32768
   82a98:	8c7fffc4 	addi	r17,r17,-1
   82a9c:	9462703a 	and	r17,r18,r17
   82aa0:	00800044 	movi	r2,1
   82aa4:	98800015 	stw	r2,0(r19)
   82aa8:	8825883a 	mov	r18,r17
   82aac:	003fcb06 	br	829dc <__alt_data_end+0xfff829dc>
   82ab0:	d9400317 	ldw	r5,12(sp)
   82ab4:	9028d53a 	srli	r20,r18,20
   82ab8:	d8800204 	addi	r2,sp,8
   82abc:	d8800015 	stw	r2,0(sp)
   82ac0:	8009883a 	mov	r4,r16
   82ac4:	880d883a 	mov	r6,r17
   82ac8:	d9c00104 	addi	r7,sp,4
   82acc:	0086a740 	call	86a74 <__d2b>
   82ad0:	a501ffcc 	andi	r20,r20,2047
   82ad4:	1039883a 	mov	fp,r2
   82ad8:	a001591e 	bne	r20,zero,83040 <_dtoa_r+0x6d8>
   82adc:	dd400217 	ldw	r21,8(sp)
   82ae0:	dd000117 	ldw	r20,4(sp)
   82ae4:	00befbc4 	movi	r2,-1041
   82ae8:	ad29883a 	add	r20,r21,r20
   82aec:	a082d216 	blt	r20,r2,83638 <_dtoa_r+0xcd0>
   82af0:	d8c00317 	ldw	r3,12(sp)
   82af4:	013f0384 	movi	r4,-1010
   82af8:	2509c83a 	sub	r4,r4,r20
   82afc:	a0810484 	addi	r2,r20,1042
   82b00:	9124983a 	sll	r18,r18,r4
   82b04:	1884d83a 	srl	r2,r3,r2
   82b08:	9088b03a 	or	r4,r18,r2
   82b0c:	00893940 	call	89394 <__floatunsidf>
   82b10:	1009883a 	mov	r4,r2
   82b14:	017f8434 	movhi	r5,65040
   82b18:	00800044 	movi	r2,1
   82b1c:	194b883a 	add	r5,r3,r5
   82b20:	a53fffc4 	addi	r20,r20,-1
   82b24:	d8800f15 	stw	r2,60(sp)
   82b28:	000d883a 	mov	r6,zero
   82b2c:	01cffe34 	movhi	r7,16376
   82b30:	0088b280 	call	88b28 <__subdf3>
   82b34:	1009883a 	mov	r4,r2
   82b38:	180b883a 	mov	r5,r3
   82b3c:	0198dbf4 	movhi	r6,25455
   82b40:	3190d844 	addi	r6,r6,17249
   82b44:	01cff4f4 	movhi	r7,16339
   82b48:	39e1e9c4 	addi	r7,r7,-30809
   82b4c:	0088b880 	call	88b88 <__muldf3>
   82b50:	180b883a 	mov	r5,r3
   82b54:	01a2d874 	movhi	r6,35681
   82b58:	31b22cc4 	addi	r6,r6,-14157
   82b5c:	01cff1f4 	movhi	r7,16327
   82b60:	39e28a04 	addi	r7,r7,-30168
   82b64:	1009883a 	mov	r4,r2
   82b68:	0088ad40 	call	88ad4 <__adddf3>
   82b6c:	a009883a 	mov	r4,r20
   82b70:	1027883a 	mov	r19,r2
   82b74:	1825883a 	mov	r18,r3
   82b78:	00891fc0 	call	891fc <__floatsidf>
   82b7c:	1009883a 	mov	r4,r2
   82b80:	180b883a 	mov	r5,r3
   82b84:	019427f4 	movhi	r6,20639
   82b88:	319e7ec4 	addi	r6,r6,31227
   82b8c:	01cff4f4 	movhi	r7,16339
   82b90:	39d104c4 	addi	r7,r7,17427
   82b94:	0088b880 	call	88b88 <__muldf3>
   82b98:	9809883a 	mov	r4,r19
   82b9c:	900b883a 	mov	r5,r18
   82ba0:	100d883a 	mov	r6,r2
   82ba4:	180f883a 	mov	r7,r3
   82ba8:	0088ad40 	call	88ad4 <__adddf3>
   82bac:	1009883a 	mov	r4,r2
   82bb0:	180b883a 	mov	r5,r3
   82bb4:	1027883a 	mov	r19,r2
   82bb8:	1825883a 	mov	r18,r3
   82bbc:	00892d00 	call	892d0 <__fixdfsi>
   82bc0:	9809883a 	mov	r4,r19
   82bc4:	900b883a 	mov	r5,r18
   82bc8:	000d883a 	mov	r6,zero
   82bcc:	000f883a 	mov	r7,zero
   82bd0:	d8800615 	stw	r2,24(sp)
   82bd4:	00891a00 	call	891a0 <__ltdf2>
   82bd8:	10027e16 	blt	r2,zero,835d4 <_dtoa_r+0xc6c>
   82bdc:	d8c00617 	ldw	r3,24(sp)
   82be0:	00800584 	movi	r2,22
   82be4:	10c26c36 	bltu	r2,r3,83598 <_dtoa_r+0xc30>
   82be8:	180490fa 	slli	r2,r3,3
   82bec:	00c00274 	movhi	r3,9
   82bf0:	18d38904 	addi	r3,r3,20004
   82bf4:	d9800317 	ldw	r6,12(sp)
   82bf8:	1885883a 	add	r2,r3,r2
   82bfc:	11000017 	ldw	r4,0(r2)
   82c00:	11400117 	ldw	r5,4(r2)
   82c04:	880f883a 	mov	r7,r17
   82c08:	00890d80 	call	890d8 <__gtdf2>
   82c0c:	00828f0e 	bge	zero,r2,8364c <_dtoa_r+0xce4>
   82c10:	d8800617 	ldw	r2,24(sp)
   82c14:	d8000d15 	stw	zero,52(sp)
   82c18:	10bfffc4 	addi	r2,r2,-1
   82c1c:	d8800615 	stw	r2,24(sp)
   82c20:	ad29c83a 	sub	r20,r21,r20
   82c24:	a53fffc4 	addi	r20,r20,-1
   82c28:	a0026616 	blt	r20,zero,835c4 <_dtoa_r+0xc5c>
   82c2c:	dd000715 	stw	r20,28(sp)
   82c30:	d8000815 	stw	zero,32(sp)
   82c34:	d8800617 	ldw	r2,24(sp)
   82c38:	10025a16 	blt	r2,zero,835a4 <_dtoa_r+0xc3c>
   82c3c:	d8c00717 	ldw	r3,28(sp)
   82c40:	d8800b15 	stw	r2,44(sp)
   82c44:	d8000a15 	stw	zero,40(sp)
   82c48:	1887883a 	add	r3,r3,r2
   82c4c:	d8c00715 	stw	r3,28(sp)
   82c50:	d9c00417 	ldw	r7,16(sp)
   82c54:	00800244 	movi	r2,9
   82c58:	11c10536 	bltu	r2,r7,83070 <_dtoa_r+0x708>
   82c5c:	00800144 	movi	r2,5
   82c60:	11c4c60e 	bge	r2,r7,83f7c <_dtoa_r+0x1614>
   82c64:	39ffff04 	addi	r7,r7,-4
   82c68:	d9c00415 	stw	r7,16(sp)
   82c6c:	0027883a 	mov	r19,zero
   82c70:	d9c00417 	ldw	r7,16(sp)
   82c74:	008000c4 	movi	r2,3
   82c78:	3883a226 	beq	r7,r2,83b04 <_dtoa_r+0x119c>
   82c7c:	11c2bc16 	blt	r2,r7,83770 <_dtoa_r+0xe08>
   82c80:	00800084 	movi	r2,2
   82c84:	3880fb1e 	bne	r7,r2,83074 <_dtoa_r+0x70c>
   82c88:	d8000c15 	stw	zero,48(sp)
   82c8c:	d9002117 	ldw	r4,132(sp)
   82c90:	0103ae0e 	bge	zero,r4,83b4c <_dtoa_r+0x11e4>
   82c94:	2025883a 	mov	r18,r4
   82c98:	d9000e15 	stw	r4,56(sp)
   82c9c:	d9000915 	stw	r4,36(sp)
   82ca0:	80001115 	stw	zero,68(r16)
   82ca4:	008005c4 	movi	r2,23
   82ca8:	1484b22e 	bgeu	r2,r18,83f74 <_dtoa_r+0x160c>
   82cac:	00c00044 	movi	r3,1
   82cb0:	00800104 	movi	r2,4
   82cb4:	1085883a 	add	r2,r2,r2
   82cb8:	11000504 	addi	r4,r2,20
   82cbc:	180b883a 	mov	r5,r3
   82cc0:	18c00044 	addi	r3,r3,1
   82cc4:	913ffb2e 	bgeu	r18,r4,82cb4 <__alt_data_end+0xfff82cb4>
   82cc8:	81401115 	stw	r5,68(r16)
   82ccc:	8009883a 	mov	r4,r16
   82cd0:	0085d800 	call	85d80 <_Balloc>
   82cd4:	102f883a 	mov	r23,r2
   82cd8:	80801015 	stw	r2,64(r16)
   82cdc:	00800384 	movi	r2,14
   82ce0:	1480f036 	bltu	r2,r18,830a4 <_dtoa_r+0x73c>
   82ce4:	9800ef26 	beq	r19,zero,830a4 <_dtoa_r+0x73c>
   82ce8:	d8800617 	ldw	r2,24(sp)
   82cec:	00839c0e 	bge	zero,r2,83b60 <_dtoa_r+0x11f8>
   82cf0:	d8c00617 	ldw	r3,24(sp)
   82cf4:	108003cc 	andi	r2,r2,15
   82cf8:	100490fa 	slli	r2,r2,3
   82cfc:	182bd13a 	srai	r21,r3,4
   82d00:	00c00274 	movhi	r3,9
   82d04:	18d38904 	addi	r3,r3,20004
   82d08:	1885883a 	add	r2,r3,r2
   82d0c:	a8c0040c 	andi	r3,r21,16
   82d10:	12800017 	ldw	r10,0(r2)
   82d14:	15800117 	ldw	r22,4(r2)
   82d18:	18038726 	beq	r3,zero,83b38 <_dtoa_r+0x11d0>
   82d1c:	00800274 	movhi	r2,9
   82d20:	10937f04 	addi	r2,r2,19964
   82d24:	11800817 	ldw	r6,32(r2)
   82d28:	11c00917 	ldw	r7,36(r2)
   82d2c:	d9000317 	ldw	r4,12(sp)
   82d30:	880b883a 	mov	r5,r17
   82d34:	da801515 	stw	r10,84(sp)
   82d38:	0088e6c0 	call	88e6c <__divdf3>
   82d3c:	da801517 	ldw	r10,84(sp)
   82d40:	d8801015 	stw	r2,64(sp)
   82d44:	1829883a 	mov	r20,r3
   82d48:	ad4003cc 	andi	r21,r21,15
   82d4c:	048000c4 	movi	r18,3
   82d50:	a8001126 	beq	r21,zero,82d98 <_dtoa_r+0x430>
   82d54:	04c00274 	movhi	r19,9
   82d58:	9cd37f04 	addi	r19,r19,19964
   82d5c:	5005883a 	mov	r2,r10
   82d60:	b007883a 	mov	r3,r22
   82d64:	a980004c 	andi	r6,r21,1
   82d68:	1009883a 	mov	r4,r2
   82d6c:	a82bd07a 	srai	r21,r21,1
   82d70:	180b883a 	mov	r5,r3
   82d74:	30000426 	beq	r6,zero,82d88 <_dtoa_r+0x420>
   82d78:	99800017 	ldw	r6,0(r19)
   82d7c:	99c00117 	ldw	r7,4(r19)
   82d80:	94800044 	addi	r18,r18,1
   82d84:	0088b880 	call	88b88 <__muldf3>
   82d88:	9cc00204 	addi	r19,r19,8
   82d8c:	a83ff51e 	bne	r21,zero,82d64 <__alt_data_end+0xfff82d64>
   82d90:	1015883a 	mov	r10,r2
   82d94:	182d883a 	mov	r22,r3
   82d98:	d9001017 	ldw	r4,64(sp)
   82d9c:	a00b883a 	mov	r5,r20
   82da0:	500d883a 	mov	r6,r10
   82da4:	b00f883a 	mov	r7,r22
   82da8:	0088e6c0 	call	88e6c <__divdf3>
   82dac:	1027883a 	mov	r19,r2
   82db0:	1829883a 	mov	r20,r3
   82db4:	d8c00d17 	ldw	r3,52(sp)
   82db8:	18000626 	beq	r3,zero,82dd4 <_dtoa_r+0x46c>
   82dbc:	9809883a 	mov	r4,r19
   82dc0:	a00b883a 	mov	r5,r20
   82dc4:	000d883a 	mov	r6,zero
   82dc8:	01cffc34 	movhi	r7,16368
   82dcc:	00891a00 	call	891a0 <__ltdf2>
   82dd0:	10040e16 	blt	r2,zero,83e0c <_dtoa_r+0x14a4>
   82dd4:	9009883a 	mov	r4,r18
   82dd8:	00891fc0 	call	891fc <__floatsidf>
   82ddc:	1009883a 	mov	r4,r2
   82de0:	180b883a 	mov	r5,r3
   82de4:	980d883a 	mov	r6,r19
   82de8:	a00f883a 	mov	r7,r20
   82dec:	0088b880 	call	88b88 <__muldf3>
   82df0:	1009883a 	mov	r4,r2
   82df4:	180b883a 	mov	r5,r3
   82df8:	000d883a 	mov	r6,zero
   82dfc:	01d00734 	movhi	r7,16412
   82e00:	0088ad40 	call	88ad4 <__adddf3>
   82e04:	057f3034 	movhi	r21,64704
   82e08:	1d6b883a 	add	r21,r3,r21
   82e0c:	d8c00917 	ldw	r3,36(sp)
   82e10:	1025883a 	mov	r18,r2
   82e14:	18031f26 	beq	r3,zero,83a94 <_dtoa_r+0x112c>
   82e18:	d8800617 	ldw	r2,24(sp)
   82e1c:	dac00917 	ldw	r11,36(sp)
   82e20:	d8801315 	stw	r2,76(sp)
   82e24:	d8c00c17 	ldw	r3,48(sp)
   82e28:	18039026 	beq	r3,zero,83c6c <_dtoa_r+0x1304>
   82e2c:	58bfffc4 	addi	r2,r11,-1
   82e30:	100490fa 	slli	r2,r2,3
   82e34:	00c00274 	movhi	r3,9
   82e38:	18d38904 	addi	r3,r3,20004
   82e3c:	0009883a 	mov	r4,zero
   82e40:	1885883a 	add	r2,r3,r2
   82e44:	11800017 	ldw	r6,0(r2)
   82e48:	11c00117 	ldw	r7,4(r2)
   82e4c:	014ff834 	movhi	r5,16352
   82e50:	dac01615 	stw	r11,88(sp)
   82e54:	0088e6c0 	call	88e6c <__divdf3>
   82e58:	900d883a 	mov	r6,r18
   82e5c:	a80f883a 	mov	r7,r21
   82e60:	1009883a 	mov	r4,r2
   82e64:	180b883a 	mov	r5,r3
   82e68:	0088b280 	call	88b28 <__subdf3>
   82e6c:	a00b883a 	mov	r5,r20
   82e70:	9809883a 	mov	r4,r19
   82e74:	182b883a 	mov	r21,r3
   82e78:	d8801015 	stw	r2,64(sp)
   82e7c:	00892d00 	call	892d0 <__fixdfsi>
   82e80:	1009883a 	mov	r4,r2
   82e84:	d8801515 	stw	r2,84(sp)
   82e88:	00891fc0 	call	891fc <__floatsidf>
   82e8c:	9809883a 	mov	r4,r19
   82e90:	a00b883a 	mov	r5,r20
   82e94:	100d883a 	mov	r6,r2
   82e98:	180f883a 	mov	r7,r3
   82e9c:	0088b280 	call	88b28 <__subdf3>
   82ea0:	da401517 	ldw	r9,84(sp)
   82ea4:	d9001017 	ldw	r4,64(sp)
   82ea8:	a80b883a 	mov	r5,r21
   82eac:	4d000c04 	addi	r20,r9,48
   82eb0:	bd000005 	stb	r20,0(r23)
   82eb4:	100d883a 	mov	r6,r2
   82eb8:	180f883a 	mov	r7,r3
   82ebc:	bd800044 	addi	r22,r23,1
   82ec0:	1025883a 	mov	r18,r2
   82ec4:	1827883a 	mov	r19,r3
   82ec8:	00890d80 	call	890d8 <__gtdf2>
   82ecc:	00842216 	blt	zero,r2,83f58 <_dtoa_r+0x15f0>
   82ed0:	0009883a 	mov	r4,zero
   82ed4:	014ffc34 	movhi	r5,16368
   82ed8:	900d883a 	mov	r6,r18
   82edc:	980f883a 	mov	r7,r19
   82ee0:	0088b280 	call	88b28 <__subdf3>
   82ee4:	d9001017 	ldw	r4,64(sp)
   82ee8:	a80b883a 	mov	r5,r21
   82eec:	100d883a 	mov	r6,r2
   82ef0:	180f883a 	mov	r7,r3
   82ef4:	00890d80 	call	890d8 <__gtdf2>
   82ef8:	dac01617 	ldw	r11,88(sp)
   82efc:	00841316 	blt	zero,r2,83f4c <_dtoa_r+0x15e4>
   82f00:	00800044 	movi	r2,1
   82f04:	12c0670e 	bge	r2,r11,830a4 <_dtoa_r+0x73c>
   82f08:	bad7883a 	add	r11,r23,r11
   82f0c:	df001115 	stw	fp,68(sp)
   82f10:	dc401215 	stw	r17,72(sp)
   82f14:	5839883a 	mov	fp,r11
   82f18:	dc401017 	ldw	r17,64(sp)
   82f1c:	00000806 	br	82f40 <_dtoa_r+0x5d8>
   82f20:	0088b280 	call	88b28 <__subdf3>
   82f24:	1009883a 	mov	r4,r2
   82f28:	180b883a 	mov	r5,r3
   82f2c:	880d883a 	mov	r6,r17
   82f30:	a80f883a 	mov	r7,r21
   82f34:	00891a00 	call	891a0 <__ltdf2>
   82f38:	1003ee16 	blt	r2,zero,83ef4 <_dtoa_r+0x158c>
   82f3c:	b703f126 	beq	r22,fp,83f04 <_dtoa_r+0x159c>
   82f40:	8809883a 	mov	r4,r17
   82f44:	a80b883a 	mov	r5,r21
   82f48:	000d883a 	mov	r6,zero
   82f4c:	01d00934 	movhi	r7,16420
   82f50:	0088b880 	call	88b88 <__muldf3>
   82f54:	000d883a 	mov	r6,zero
   82f58:	01d00934 	movhi	r7,16420
   82f5c:	9009883a 	mov	r4,r18
   82f60:	980b883a 	mov	r5,r19
   82f64:	1023883a 	mov	r17,r2
   82f68:	182b883a 	mov	r21,r3
   82f6c:	0088b880 	call	88b88 <__muldf3>
   82f70:	180b883a 	mov	r5,r3
   82f74:	1009883a 	mov	r4,r2
   82f78:	1825883a 	mov	r18,r3
   82f7c:	1027883a 	mov	r19,r2
   82f80:	00892d00 	call	892d0 <__fixdfsi>
   82f84:	1009883a 	mov	r4,r2
   82f88:	1029883a 	mov	r20,r2
   82f8c:	00891fc0 	call	891fc <__floatsidf>
   82f90:	9809883a 	mov	r4,r19
   82f94:	900b883a 	mov	r5,r18
   82f98:	100d883a 	mov	r6,r2
   82f9c:	180f883a 	mov	r7,r3
   82fa0:	0088b280 	call	88b28 <__subdf3>
   82fa4:	a5000c04 	addi	r20,r20,48
   82fa8:	b5000005 	stb	r20,0(r22)
   82fac:	1009883a 	mov	r4,r2
   82fb0:	180b883a 	mov	r5,r3
   82fb4:	880d883a 	mov	r6,r17
   82fb8:	a80f883a 	mov	r7,r21
   82fbc:	1025883a 	mov	r18,r2
   82fc0:	1827883a 	mov	r19,r3
   82fc4:	00891a00 	call	891a0 <__ltdf2>
   82fc8:	b5800044 	addi	r22,r22,1
   82fcc:	0009883a 	mov	r4,zero
   82fd0:	014ffc34 	movhi	r5,16368
   82fd4:	900d883a 	mov	r6,r18
   82fd8:	980f883a 	mov	r7,r19
   82fdc:	103fd00e 	bge	r2,zero,82f20 <__alt_data_end+0xfff82f20>
   82fe0:	d9001317 	ldw	r4,76(sp)
   82fe4:	df001117 	ldw	fp,68(sp)
   82fe8:	d9000615 	stw	r4,24(sp)
   82fec:	8009883a 	mov	r4,r16
   82ff0:	e00b883a 	mov	r5,fp
   82ff4:	0085e280 	call	85e28 <_Bfree>
   82ff8:	d9c00617 	ldw	r7,24(sp)
   82ffc:	d8c02217 	ldw	r3,136(sp)
   83000:	d9002417 	ldw	r4,144(sp)
   83004:	b0000005 	stb	zero,0(r22)
   83008:	38800044 	addi	r2,r7,1
   8300c:	18800015 	stw	r2,0(r3)
   83010:	203e8426 	beq	r4,zero,82a24 <__alt_data_end+0xfff82a24>
   83014:	25800015 	stw	r22,0(r4)
   83018:	003e8206 	br	82a24 <__alt_data_end+0xfff82a24>
   8301c:	00800434 	movhi	r2,16
   83020:	10bfffc4 	addi	r2,r2,-1
   83024:	90a4703a 	and	r18,r18,r2
   83028:	903e901e 	bne	r18,zero,82a6c <__alt_data_end+0xfff82a6c>
   8302c:	05c00274 	movhi	r23,9
   83030:	bdd36004 	addi	r23,r23,19840
   83034:	003e8f06 	br	82a74 <__alt_data_end+0xfff82a74>
   83038:	b8800204 	addi	r2,r23,8
   8303c:	003e9206 	br	82a88 <__alt_data_end+0xfff82a88>
   83040:	01400434 	movhi	r5,16
   83044:	297fffc4 	addi	r5,r5,-1
   83048:	894a703a 	and	r5,r17,r5
   8304c:	d9000317 	ldw	r4,12(sp)
   83050:	294ffc34 	orhi	r5,r5,16368
   83054:	a53f0044 	addi	r20,r20,-1023
   83058:	dd400217 	ldw	r21,8(sp)
   8305c:	d8000f15 	stw	zero,60(sp)
   83060:	003eb106 	br	82b28 <__alt_data_end+0xfff82b28>
   83064:	05c00274 	movhi	r23,9
   83068:	bdd35704 	addi	r23,r23,19804
   8306c:	003e6d06 	br	82a24 <__alt_data_end+0xfff82a24>
   83070:	d8000415 	stw	zero,16(sp)
   83074:	80001115 	stw	zero,68(r16)
   83078:	8009883a 	mov	r4,r16
   8307c:	000b883a 	mov	r5,zero
   83080:	0085d800 	call	85d80 <_Balloc>
   83084:	01ffffc4 	movi	r7,-1
   83088:	102f883a 	mov	r23,r2
   8308c:	80801015 	stw	r2,64(r16)
   83090:	00800044 	movi	r2,1
   83094:	d9c00915 	stw	r7,36(sp)
   83098:	d8002115 	stw	zero,132(sp)
   8309c:	d9c00e15 	stw	r7,56(sp)
   830a0:	d8800c15 	stw	r2,48(sp)
   830a4:	d8800117 	ldw	r2,4(sp)
   830a8:	10008b16 	blt	r2,zero,832d8 <_dtoa_r+0x970>
   830ac:	d9000617 	ldw	r4,24(sp)
   830b0:	00c00384 	movi	r3,14
   830b4:	19008816 	blt	r3,r4,832d8 <_dtoa_r+0x970>
   830b8:	200490fa 	slli	r2,r4,3
   830bc:	d9c02117 	ldw	r7,132(sp)
   830c0:	00c00274 	movhi	r3,9
   830c4:	18d38904 	addi	r3,r3,20004
   830c8:	1885883a 	add	r2,r3,r2
   830cc:	14800017 	ldw	r18,0(r2)
   830d0:	14c00117 	ldw	r19,4(r2)
   830d4:	3801c916 	blt	r7,zero,837fc <_dtoa_r+0xe94>
   830d8:	d9000317 	ldw	r4,12(sp)
   830dc:	900d883a 	mov	r6,r18
   830e0:	980f883a 	mov	r7,r19
   830e4:	880b883a 	mov	r5,r17
   830e8:	0088e6c0 	call	88e6c <__divdf3>
   830ec:	180b883a 	mov	r5,r3
   830f0:	1009883a 	mov	r4,r2
   830f4:	00892d00 	call	892d0 <__fixdfsi>
   830f8:	1009883a 	mov	r4,r2
   830fc:	102b883a 	mov	r21,r2
   83100:	00891fc0 	call	891fc <__floatsidf>
   83104:	1009883a 	mov	r4,r2
   83108:	180b883a 	mov	r5,r3
   8310c:	900d883a 	mov	r6,r18
   83110:	980f883a 	mov	r7,r19
   83114:	0088b880 	call	88b88 <__muldf3>
   83118:	d9000317 	ldw	r4,12(sp)
   8311c:	880b883a 	mov	r5,r17
   83120:	100d883a 	mov	r6,r2
   83124:	180f883a 	mov	r7,r3
   83128:	0088b280 	call	88b28 <__subdf3>
   8312c:	d9c00917 	ldw	r7,36(sp)
   83130:	1009883a 	mov	r4,r2
   83134:	a8800c04 	addi	r2,r21,48
   83138:	b8800005 	stb	r2,0(r23)
   8313c:	01800044 	movi	r6,1
   83140:	180b883a 	mov	r5,r3
   83144:	2005883a 	mov	r2,r4
   83148:	bd800044 	addi	r22,r23,1
   8314c:	39803726 	beq	r7,r6,8322c <_dtoa_r+0x8c4>
   83150:	000d883a 	mov	r6,zero
   83154:	01d00934 	movhi	r7,16420
   83158:	0088b880 	call	88b88 <__muldf3>
   8315c:	1009883a 	mov	r4,r2
   83160:	180b883a 	mov	r5,r3
   83164:	000d883a 	mov	r6,zero
   83168:	000f883a 	mov	r7,zero
   8316c:	1029883a 	mov	r20,r2
   83170:	1823883a 	mov	r17,r3
   83174:	00890200 	call	89020 <__eqdf2>
   83178:	103f9c26 	beq	r2,zero,82fec <__alt_data_end+0xfff82fec>
   8317c:	dd400917 	ldw	r21,36(sp)
   83180:	dc000415 	stw	r16,16(sp)
   83184:	00000906 	br	831ac <_dtoa_r+0x844>
   83188:	0088b880 	call	88b88 <__muldf3>
   8318c:	1009883a 	mov	r4,r2
   83190:	180b883a 	mov	r5,r3
   83194:	000d883a 	mov	r6,zero
   83198:	000f883a 	mov	r7,zero
   8319c:	1029883a 	mov	r20,r2
   831a0:	1823883a 	mov	r17,r3
   831a4:	00890200 	call	89020 <__eqdf2>
   831a8:	10022926 	beq	r2,zero,83a50 <_dtoa_r+0x10e8>
   831ac:	900d883a 	mov	r6,r18
   831b0:	980f883a 	mov	r7,r19
   831b4:	a009883a 	mov	r4,r20
   831b8:	880b883a 	mov	r5,r17
   831bc:	0088e6c0 	call	88e6c <__divdf3>
   831c0:	180b883a 	mov	r5,r3
   831c4:	1009883a 	mov	r4,r2
   831c8:	00892d00 	call	892d0 <__fixdfsi>
   831cc:	1009883a 	mov	r4,r2
   831d0:	1021883a 	mov	r16,r2
   831d4:	00891fc0 	call	891fc <__floatsidf>
   831d8:	1009883a 	mov	r4,r2
   831dc:	180b883a 	mov	r5,r3
   831e0:	900d883a 	mov	r6,r18
   831e4:	980f883a 	mov	r7,r19
   831e8:	0088b880 	call	88b88 <__muldf3>
   831ec:	a009883a 	mov	r4,r20
   831f0:	880b883a 	mov	r5,r17
   831f4:	100d883a 	mov	r6,r2
   831f8:	180f883a 	mov	r7,r3
   831fc:	0088b280 	call	88b28 <__subdf3>
   83200:	82400c04 	addi	r9,r16,48
   83204:	b2400005 	stb	r9,0(r22)
   83208:	b5800044 	addi	r22,r22,1
   8320c:	b5d3c83a 	sub	r9,r22,r23
   83210:	000d883a 	mov	r6,zero
   83214:	01d00934 	movhi	r7,16420
   83218:	1009883a 	mov	r4,r2
   8321c:	180b883a 	mov	r5,r3
   83220:	aa7fd91e 	bne	r21,r9,83188 <__alt_data_end+0xfff83188>
   83224:	802b883a 	mov	r21,r16
   83228:	dc000417 	ldw	r16,16(sp)
   8322c:	1009883a 	mov	r4,r2
   83230:	180b883a 	mov	r5,r3
   83234:	100d883a 	mov	r6,r2
   83238:	180f883a 	mov	r7,r3
   8323c:	0088ad40 	call	88ad4 <__adddf3>
   83240:	9009883a 	mov	r4,r18
   83244:	980b883a 	mov	r5,r19
   83248:	100d883a 	mov	r6,r2
   8324c:	180f883a 	mov	r7,r3
   83250:	1023883a 	mov	r17,r2
   83254:	1829883a 	mov	r20,r3
   83258:	00891a00 	call	891a0 <__ltdf2>
   8325c:	10000816 	blt	r2,zero,83280 <_dtoa_r+0x918>
   83260:	9009883a 	mov	r4,r18
   83264:	980b883a 	mov	r5,r19
   83268:	880d883a 	mov	r6,r17
   8326c:	a00f883a 	mov	r7,r20
   83270:	008907c0 	call	8907c <__nedf2>
   83274:	103f5d1e 	bne	r2,zero,82fec <__alt_data_end+0xfff82fec>
   83278:	ad40004c 	andi	r21,r21,1
   8327c:	a83f5b26 	beq	r21,zero,82fec <__alt_data_end+0xfff82fec>
   83280:	b53fffc3 	ldbu	r20,-1(r22)
   83284:	b0ffff84 	addi	r3,r22,-2
   83288:	01400e44 	movi	r5,57
   8328c:	00000306 	br	8329c <_dtoa_r+0x934>
   83290:	1d000003 	ldbu	r20,0(r3)
   83294:	102d883a 	mov	r22,r2
   83298:	18ffffc4 	addi	r3,r3,-1
   8329c:	a1003fcc 	andi	r4,r20,255
   832a0:	2100201c 	xori	r4,r4,128
   832a4:	213fe004 	addi	r4,r4,-128
   832a8:	b0bfffc4 	addi	r2,r22,-1
   832ac:	2142ca1e 	bne	r4,r5,83dd8 <_dtoa_r+0x1470>
   832b0:	b8bff71e 	bne	r23,r2,83290 <__alt_data_end+0xfff83290>
   832b4:	d8800617 	ldw	r2,24(sp)
   832b8:	05000c44 	movi	r20,49
   832bc:	10800044 	addi	r2,r2,1
   832c0:	d8800615 	stw	r2,24(sp)
   832c4:	00800c04 	movi	r2,48
   832c8:	b8800005 	stb	r2,0(r23)
   832cc:	b805883a 	mov	r2,r23
   832d0:	15000005 	stb	r20,0(r2)
   832d4:	003f4506 	br	82fec <__alt_data_end+0xfff82fec>
   832d8:	d9c00c17 	ldw	r7,48(sp)
   832dc:	3800c926 	beq	r7,zero,83604 <_dtoa_r+0xc9c>
   832e0:	d9c00417 	ldw	r7,16(sp)
   832e4:	00c00044 	movi	r3,1
   832e8:	19c16c0e 	bge	r3,r7,8389c <_dtoa_r+0xf34>
   832ec:	d9000917 	ldw	r4,36(sp)
   832f0:	d9c00a17 	ldw	r7,40(sp)
   832f4:	24ffffc4 	addi	r19,r4,-1
   832f8:	3cc20716 	blt	r7,r19,83b18 <_dtoa_r+0x11b0>
   832fc:	3ce7c83a 	sub	r19,r7,r19
   83300:	d9c00917 	ldw	r7,36(sp)
   83304:	3802ae16 	blt	r7,zero,83dc0 <_dtoa_r+0x1458>
   83308:	dc800817 	ldw	r18,32(sp)
   8330c:	d8800917 	ldw	r2,36(sp)
   83310:	d8c00817 	ldw	r3,32(sp)
   83314:	d9c00717 	ldw	r7,28(sp)
   83318:	8009883a 	mov	r4,r16
   8331c:	1887883a 	add	r3,r3,r2
   83320:	388f883a 	add	r7,r7,r2
   83324:	01400044 	movi	r5,1
   83328:	d8c00815 	stw	r3,32(sp)
   8332c:	d9c00715 	stw	r7,28(sp)
   83330:	00861b00 	call	861b0 <__i2b>
   83334:	102b883a 	mov	r21,r2
   83338:	90000a26 	beq	r18,zero,83364 <_dtoa_r+0x9fc>
   8333c:	d8800717 	ldw	r2,28(sp)
   83340:	0080080e 	bge	zero,r2,83364 <_dtoa_r+0x9fc>
   83344:	90812b16 	blt	r18,r2,837f4 <_dtoa_r+0xe8c>
   83348:	d8c00817 	ldw	r3,32(sp)
   8334c:	d9000717 	ldw	r4,28(sp)
   83350:	90a5c83a 	sub	r18,r18,r2
   83354:	1887c83a 	sub	r3,r3,r2
   83358:	2089c83a 	sub	r4,r4,r2
   8335c:	d8c00815 	stw	r3,32(sp)
   83360:	d9000715 	stw	r4,28(sp)
   83364:	d9c00a17 	ldw	r7,40(sp)
   83368:	01c0140e 	bge	zero,r7,833bc <_dtoa_r+0xa54>
   8336c:	d8800c17 	ldw	r2,48(sp)
   83370:	1001de26 	beq	r2,zero,83aec <_dtoa_r+0x1184>
   83374:	04c00e0e 	bge	zero,r19,833b0 <_dtoa_r+0xa48>
   83378:	a80b883a 	mov	r5,r21
   8337c:	8009883a 	mov	r4,r16
   83380:	980d883a 	mov	r6,r19
   83384:	00864440 	call	86444 <__pow5mult>
   83388:	e00d883a 	mov	r6,fp
   8338c:	8009883a 	mov	r4,r16
   83390:	100b883a 	mov	r5,r2
   83394:	102b883a 	mov	r21,r2
   83398:	00861ec0 	call	861ec <__multiply>
   8339c:	1029883a 	mov	r20,r2
   833a0:	e00b883a 	mov	r5,fp
   833a4:	8009883a 	mov	r4,r16
   833a8:	0085e280 	call	85e28 <_Bfree>
   833ac:	a039883a 	mov	fp,r20
   833b0:	d8c00a17 	ldw	r3,40(sp)
   833b4:	1ccdc83a 	sub	r6,r3,r19
   833b8:	3001291e 	bne	r6,zero,83860 <_dtoa_r+0xef8>
   833bc:	8009883a 	mov	r4,r16
   833c0:	01400044 	movi	r5,1
   833c4:	00861b00 	call	861b0 <__i2b>
   833c8:	d9000b17 	ldw	r4,44(sp)
   833cc:	1029883a 	mov	r20,r2
   833d0:	0100050e 	bge	zero,r4,833e8 <_dtoa_r+0xa80>
   833d4:	d9800b17 	ldw	r6,44(sp)
   833d8:	8009883a 	mov	r4,r16
   833dc:	100b883a 	mov	r5,r2
   833e0:	00864440 	call	86444 <__pow5mult>
   833e4:	1029883a 	mov	r20,r2
   833e8:	d9c00417 	ldw	r7,16(sp)
   833ec:	00800044 	movi	r2,1
   833f0:	11c0f00e 	bge	r2,r7,837b4 <_dtoa_r+0xe4c>
   833f4:	0023883a 	mov	r17,zero
   833f8:	d8800b17 	ldw	r2,44(sp)
   833fc:	1001741e 	bne	r2,zero,839d0 <_dtoa_r+0x1068>
   83400:	00800044 	movi	r2,1
   83404:	d8c00717 	ldw	r3,28(sp)
   83408:	10c5883a 	add	r2,r2,r3
   8340c:	108007cc 	andi	r2,r2,31
   83410:	10008026 	beq	r2,zero,83614 <_dtoa_r+0xcac>
   83414:	01000804 	movi	r4,32
   83418:	2089c83a 	sub	r4,r4,r2
   8341c:	00c00104 	movi	r3,4
   83420:	1902d00e 	bge	r3,r4,83f64 <_dtoa_r+0x15fc>
   83424:	d9000817 	ldw	r4,32(sp)
   83428:	d9c00717 	ldw	r7,28(sp)
   8342c:	00c00704 	movi	r3,28
   83430:	1885c83a 	sub	r2,r3,r2
   83434:	2089883a 	add	r4,r4,r2
   83438:	388f883a 	add	r7,r7,r2
   8343c:	d9000815 	stw	r4,32(sp)
   83440:	90a5883a 	add	r18,r18,r2
   83444:	d9c00715 	stw	r7,28(sp)
   83448:	d9c00817 	ldw	r7,32(sp)
   8344c:	01c0050e 	bge	zero,r7,83464 <_dtoa_r+0xafc>
   83450:	e00b883a 	mov	r5,fp
   83454:	8009883a 	mov	r4,r16
   83458:	380d883a 	mov	r6,r7
   8345c:	00865700 	call	86570 <__lshift>
   83460:	1039883a 	mov	fp,r2
   83464:	d8800717 	ldw	r2,28(sp)
   83468:	0080050e 	bge	zero,r2,83480 <_dtoa_r+0xb18>
   8346c:	a00b883a 	mov	r5,r20
   83470:	8009883a 	mov	r4,r16
   83474:	100d883a 	mov	r6,r2
   83478:	00865700 	call	86570 <__lshift>
   8347c:	1029883a 	mov	r20,r2
   83480:	d8c00d17 	ldw	r3,52(sp)
   83484:	1801401e 	bne	r3,zero,83988 <_dtoa_r+0x1020>
   83488:	d8800917 	ldw	r2,36(sp)
   8348c:	00815a0e 	bge	zero,r2,839f8 <_dtoa_r+0x1090>
   83490:	d8c00c17 	ldw	r3,48(sp)
   83494:	18006f1e 	bne	r3,zero,83654 <_dtoa_r+0xcec>
   83498:	b823883a 	mov	r17,r23
   8349c:	dc800917 	ldw	r18,36(sp)
   834a0:	00000206 	br	834ac <_dtoa_r+0xb44>
   834a4:	0085e500 	call	85e50 <__multadd>
   834a8:	1039883a 	mov	fp,r2
   834ac:	e009883a 	mov	r4,fp
   834b0:	a00b883a 	mov	r5,r20
   834b4:	008272c0 	call	8272c <quorem>
   834b8:	10800c04 	addi	r2,r2,48
   834bc:	88800005 	stb	r2,0(r17)
   834c0:	8c400044 	addi	r17,r17,1
   834c4:	8dc7c83a 	sub	r3,r17,r23
   834c8:	8009883a 	mov	r4,r16
   834cc:	e00b883a 	mov	r5,fp
   834d0:	01800284 	movi	r6,10
   834d4:	000f883a 	mov	r7,zero
   834d8:	1cbff216 	blt	r3,r18,834a4 <__alt_data_end+0xfff834a4>
   834dc:	dd800917 	ldw	r22,36(sp)
   834e0:	1007883a 	mov	r3,r2
   834e4:	05823a0e 	bge	zero,r22,83dd0 <_dtoa_r+0x1468>
   834e8:	bdad883a 	add	r22,r23,r22
   834ec:	0023883a 	mov	r17,zero
   834f0:	e00b883a 	mov	r5,fp
   834f4:	01800044 	movi	r6,1
   834f8:	8009883a 	mov	r4,r16
   834fc:	d8c01515 	stw	r3,84(sp)
   83500:	00865700 	call	86570 <__lshift>
   83504:	1009883a 	mov	r4,r2
   83508:	a00b883a 	mov	r5,r20
   8350c:	1039883a 	mov	fp,r2
   83510:	00866cc0 	call	866cc <__mcmp>
   83514:	d8c01517 	ldw	r3,84(sp)
   83518:	0080d60e 	bge	zero,r2,83874 <_dtoa_r+0xf0c>
   8351c:	b13fffc3 	ldbu	r4,-1(r22)
   83520:	b0ffff84 	addi	r3,r22,-2
   83524:	01800e44 	movi	r6,57
   83528:	00000306 	br	83538 <_dtoa_r+0xbd0>
   8352c:	19000003 	ldbu	r4,0(r3)
   83530:	102d883a 	mov	r22,r2
   83534:	18ffffc4 	addi	r3,r3,-1
   83538:	21403fcc 	andi	r5,r4,255
   8353c:	2940201c 	xori	r5,r5,128
   83540:	297fe004 	addi	r5,r5,-128
   83544:	b0bfffc4 	addi	r2,r22,-1
   83548:	2981a71e 	bne	r5,r6,83be8 <_dtoa_r+0x1280>
   8354c:	b8bff71e 	bne	r23,r2,8352c <__alt_data_end+0xfff8352c>
   83550:	d8800617 	ldw	r2,24(sp)
   83554:	10800044 	addi	r2,r2,1
   83558:	d8800615 	stw	r2,24(sp)
   8355c:	00800c44 	movi	r2,49
   83560:	b8800005 	stb	r2,0(r23)
   83564:	8009883a 	mov	r4,r16
   83568:	a00b883a 	mov	r5,r20
   8356c:	0085e280 	call	85e28 <_Bfree>
   83570:	a83e9e26 	beq	r21,zero,82fec <__alt_data_end+0xfff82fec>
   83574:	88000426 	beq	r17,zero,83588 <_dtoa_r+0xc20>
   83578:	8d400326 	beq	r17,r21,83588 <_dtoa_r+0xc20>
   8357c:	8009883a 	mov	r4,r16
   83580:	880b883a 	mov	r5,r17
   83584:	0085e280 	call	85e28 <_Bfree>
   83588:	8009883a 	mov	r4,r16
   8358c:	a80b883a 	mov	r5,r21
   83590:	0085e280 	call	85e28 <_Bfree>
   83594:	003e9506 	br	82fec <__alt_data_end+0xfff82fec>
   83598:	00c00044 	movi	r3,1
   8359c:	d8c00d15 	stw	r3,52(sp)
   835a0:	003d9f06 	br	82c20 <__alt_data_end+0xfff82c20>
   835a4:	d9000817 	ldw	r4,32(sp)
   835a8:	d8800617 	ldw	r2,24(sp)
   835ac:	d8000b15 	stw	zero,44(sp)
   835b0:	2089c83a 	sub	r4,r4,r2
   835b4:	0087c83a 	sub	r3,zero,r2
   835b8:	d9000815 	stw	r4,32(sp)
   835bc:	d8c00a15 	stw	r3,40(sp)
   835c0:	003da306 	br	82c50 <__alt_data_end+0xfff82c50>
   835c4:	0529c83a 	sub	r20,zero,r20
   835c8:	dd000815 	stw	r20,32(sp)
   835cc:	d8000715 	stw	zero,28(sp)
   835d0:	003d9806 	br	82c34 <__alt_data_end+0xfff82c34>
   835d4:	d9000617 	ldw	r4,24(sp)
   835d8:	00891fc0 	call	891fc <__floatsidf>
   835dc:	1009883a 	mov	r4,r2
   835e0:	180b883a 	mov	r5,r3
   835e4:	980d883a 	mov	r6,r19
   835e8:	900f883a 	mov	r7,r18
   835ec:	00890200 	call	89020 <__eqdf2>
   835f0:	103d7a26 	beq	r2,zero,82bdc <__alt_data_end+0xfff82bdc>
   835f4:	d8800617 	ldw	r2,24(sp)
   835f8:	10bfffc4 	addi	r2,r2,-1
   835fc:	d8800615 	stw	r2,24(sp)
   83600:	003d7606 	br	82bdc <__alt_data_end+0xfff82bdc>
   83604:	dcc00a17 	ldw	r19,40(sp)
   83608:	dc800817 	ldw	r18,32(sp)
   8360c:	002b883a 	mov	r21,zero
   83610:	003f4906 	br	83338 <__alt_data_end+0xfff83338>
   83614:	00800704 	movi	r2,28
   83618:	d8c00817 	ldw	r3,32(sp)
   8361c:	d9000717 	ldw	r4,28(sp)
   83620:	90a5883a 	add	r18,r18,r2
   83624:	1887883a 	add	r3,r3,r2
   83628:	2089883a 	add	r4,r4,r2
   8362c:	d8c00815 	stw	r3,32(sp)
   83630:	d9000715 	stw	r4,28(sp)
   83634:	003f8406 	br	83448 <__alt_data_end+0xfff83448>
   83638:	d9c00317 	ldw	r7,12(sp)
   8363c:	013efb84 	movi	r4,-1042
   83640:	2509c83a 	sub	r4,r4,r20
   83644:	3908983a 	sll	r4,r7,r4
   83648:	003d3006 	br	82b0c <__alt_data_end+0xfff82b0c>
   8364c:	d8000d15 	stw	zero,52(sp)
   83650:	003d7306 	br	82c20 <__alt_data_end+0xfff82c20>
   83654:	0480050e 	bge	zero,r18,8366c <_dtoa_r+0xd04>
   83658:	a80b883a 	mov	r5,r21
   8365c:	8009883a 	mov	r4,r16
   83660:	900d883a 	mov	r6,r18
   83664:	00865700 	call	86570 <__lshift>
   83668:	102b883a 	mov	r21,r2
   8366c:	8801611e 	bne	r17,zero,83bf4 <_dtoa_r+0x128c>
   83670:	a827883a 	mov	r19,r21
   83674:	d8c00317 	ldw	r3,12(sp)
   83678:	d9000917 	ldw	r4,36(sp)
   8367c:	b8bfffc4 	addi	r2,r23,-1
   83680:	18c0004c 	andi	r3,r3,1
   83684:	1105883a 	add	r2,r2,r4
   83688:	b825883a 	mov	r18,r23
   8368c:	d8800515 	stw	r2,20(sp)
   83690:	a823883a 	mov	r17,r21
   83694:	d8c00315 	stw	r3,12(sp)
   83698:	ddc00715 	stw	r23,28(sp)
   8369c:	e009883a 	mov	r4,fp
   836a0:	a00b883a 	mov	r5,r20
   836a4:	008272c0 	call	8272c <quorem>
   836a8:	e009883a 	mov	r4,fp
   836ac:	880b883a 	mov	r5,r17
   836b0:	102d883a 	mov	r22,r2
   836b4:	00866cc0 	call	866cc <__mcmp>
   836b8:	980d883a 	mov	r6,r19
   836bc:	8009883a 	mov	r4,r16
   836c0:	a00b883a 	mov	r5,r20
   836c4:	102b883a 	mov	r21,r2
   836c8:	00867240 	call	86724 <__mdiff>
   836cc:	100d883a 	mov	r6,r2
   836d0:	10800317 	ldw	r2,12(r2)
   836d4:	b5c00c04 	addi	r23,r22,48
   836d8:	10008c26 	beq	r2,zero,8390c <_dtoa_r+0xfa4>
   836dc:	8009883a 	mov	r4,r16
   836e0:	300b883a 	mov	r5,r6
   836e4:	0085e280 	call	85e28 <_Bfree>
   836e8:	00800044 	movi	r2,1
   836ec:	a8007116 	blt	r21,zero,838b4 <_dtoa_r+0xf4c>
   836f0:	a800041e 	bne	r21,zero,83704 <_dtoa_r+0xd9c>
   836f4:	d9c00417 	ldw	r7,16(sp)
   836f8:	3800021e 	bne	r7,zero,83704 <_dtoa_r+0xd9c>
   836fc:	d8c00317 	ldw	r3,12(sp)
   83700:	18006c26 	beq	r3,zero,838b4 <_dtoa_r+0xf4c>
   83704:	00814c16 	blt	zero,r2,83c38 <_dtoa_r+0x12d0>
   83708:	d8c00517 	ldw	r3,20(sp)
   8370c:	95400044 	addi	r21,r18,1
   83710:	95c00005 	stb	r23,0(r18)
   83714:	a82d883a 	mov	r22,r21
   83718:	90c14d26 	beq	r18,r3,83c50 <_dtoa_r+0x12e8>
   8371c:	e00b883a 	mov	r5,fp
   83720:	8009883a 	mov	r4,r16
   83724:	01800284 	movi	r6,10
   83728:	000f883a 	mov	r7,zero
   8372c:	0085e500 	call	85e50 <__multadd>
   83730:	1039883a 	mov	fp,r2
   83734:	8cc08b26 	beq	r17,r19,83964 <_dtoa_r+0xffc>
   83738:	880b883a 	mov	r5,r17
   8373c:	01800284 	movi	r6,10
   83740:	000f883a 	mov	r7,zero
   83744:	8009883a 	mov	r4,r16
   83748:	0085e500 	call	85e50 <__multadd>
   8374c:	980b883a 	mov	r5,r19
   83750:	8009883a 	mov	r4,r16
   83754:	01800284 	movi	r6,10
   83758:	000f883a 	mov	r7,zero
   8375c:	1023883a 	mov	r17,r2
   83760:	0085e500 	call	85e50 <__multadd>
   83764:	1027883a 	mov	r19,r2
   83768:	a825883a 	mov	r18,r21
   8376c:	003fcb06 	br	8369c <__alt_data_end+0xfff8369c>
   83770:	d9c00417 	ldw	r7,16(sp)
   83774:	00800104 	movi	r2,4
   83778:	3880e426 	beq	r7,r2,83b0c <_dtoa_r+0x11a4>
   8377c:	00800144 	movi	r2,5
   83780:	38be3c1e 	bne	r7,r2,83074 <__alt_data_end+0xfff83074>
   83784:	00c00044 	movi	r3,1
   83788:	d8c00c15 	stw	r3,48(sp)
   8378c:	d9c02117 	ldw	r7,132(sp)
   83790:	d8800617 	ldw	r2,24(sp)
   83794:	388f883a 	add	r7,r7,r2
   83798:	3c800044 	addi	r18,r7,1
   8379c:	d9c00e15 	stw	r7,56(sp)
   837a0:	dc800915 	stw	r18,36(sp)
   837a4:	04bd3e16 	blt	zero,r18,82ca0 <__alt_data_end+0xfff82ca0>
   837a8:	80001115 	stw	zero,68(r16)
   837ac:	000b883a 	mov	r5,zero
   837b0:	003d4606 	br	82ccc <__alt_data_end+0xfff82ccc>
   837b4:	d8c00317 	ldw	r3,12(sp)
   837b8:	183f0e1e 	bne	r3,zero,833f4 <__alt_data_end+0xfff833f4>
   837bc:	00c00434 	movhi	r3,16
   837c0:	18ffffc4 	addi	r3,r3,-1
   837c4:	88c6703a 	and	r3,r17,r3
   837c8:	183f0a1e 	bne	r3,zero,833f4 <__alt_data_end+0xfff833f4>
   837cc:	8c5ffc2c 	andhi	r17,r17,32752
   837d0:	883f0826 	beq	r17,zero,833f4 <__alt_data_end+0xfff833f4>
   837d4:	d9000817 	ldw	r4,32(sp)
   837d8:	d9c00717 	ldw	r7,28(sp)
   837dc:	1023883a 	mov	r17,r2
   837e0:	2089883a 	add	r4,r4,r2
   837e4:	388f883a 	add	r7,r7,r2
   837e8:	d9000815 	stw	r4,32(sp)
   837ec:	d9c00715 	stw	r7,28(sp)
   837f0:	003f0106 	br	833f8 <__alt_data_end+0xfff833f8>
   837f4:	9005883a 	mov	r2,r18
   837f8:	003ed306 	br	83348 <__alt_data_end+0xfff83348>
   837fc:	d8800917 	ldw	r2,36(sp)
   83800:	00be3516 	blt	zero,r2,830d8 <__alt_data_end+0xfff830d8>
   83804:	1000b61e 	bne	r2,zero,83ae0 <_dtoa_r+0x1178>
   83808:	9009883a 	mov	r4,r18
   8380c:	980b883a 	mov	r5,r19
   83810:	000d883a 	mov	r6,zero
   83814:	01d00534 	movhi	r7,16404
   83818:	0088b880 	call	88b88 <__muldf3>
   8381c:	d9800317 	ldw	r6,12(sp)
   83820:	1009883a 	mov	r4,r2
   83824:	180b883a 	mov	r5,r3
   83828:	880f883a 	mov	r7,r17
   8382c:	008913c0 	call	8913c <__gedf2>
   83830:	0029883a 	mov	r20,zero
   83834:	002b883a 	mov	r21,zero
   83838:	10007e16 	blt	r2,zero,83a34 <_dtoa_r+0x10cc>
   8383c:	d8802117 	ldw	r2,132(sp)
   83840:	b82d883a 	mov	r22,r23
   83844:	0084303a 	nor	r2,zero,r2
   83848:	d8800615 	stw	r2,24(sp)
   8384c:	8009883a 	mov	r4,r16
   83850:	a00b883a 	mov	r5,r20
   83854:	0085e280 	call	85e28 <_Bfree>
   83858:	a83f4b1e 	bne	r21,zero,83588 <__alt_data_end+0xfff83588>
   8385c:	003de306 	br	82fec <__alt_data_end+0xfff82fec>
   83860:	e00b883a 	mov	r5,fp
   83864:	8009883a 	mov	r4,r16
   83868:	00864440 	call	86444 <__pow5mult>
   8386c:	1039883a 	mov	fp,r2
   83870:	003ed206 	br	833bc <__alt_data_end+0xfff833bc>
   83874:	1000021e 	bne	r2,zero,83880 <_dtoa_r+0xf18>
   83878:	18c0004c 	andi	r3,r3,1
   8387c:	183f271e 	bne	r3,zero,8351c <__alt_data_end+0xfff8351c>
   83880:	01000c04 	movi	r4,48
   83884:	00000106 	br	8388c <_dtoa_r+0xf24>
   83888:	102d883a 	mov	r22,r2
   8388c:	b0bfffc4 	addi	r2,r22,-1
   83890:	10c00007 	ldb	r3,0(r2)
   83894:	193ffc26 	beq	r3,r4,83888 <__alt_data_end+0xfff83888>
   83898:	003f3206 	br	83564 <__alt_data_end+0xfff83564>
   8389c:	d8c00f17 	ldw	r3,60(sp)
   838a0:	18015026 	beq	r3,zero,83de4 <_dtoa_r+0x147c>
   838a4:	10810cc4 	addi	r2,r2,1075
   838a8:	dcc00a17 	ldw	r19,40(sp)
   838ac:	dc800817 	ldw	r18,32(sp)
   838b0:	003e9706 	br	83310 <__alt_data_end+0xfff83310>
   838b4:	b807883a 	mov	r3,r23
   838b8:	182b883a 	mov	r21,r3
   838bc:	ddc00717 	ldw	r23,28(sp)
   838c0:	00800e0e 	bge	zero,r2,838fc <_dtoa_r+0xf94>
   838c4:	e00b883a 	mov	r5,fp
   838c8:	01800044 	movi	r6,1
   838cc:	8009883a 	mov	r4,r16
   838d0:	d8c01515 	stw	r3,84(sp)
   838d4:	00865700 	call	86570 <__lshift>
   838d8:	1009883a 	mov	r4,r2
   838dc:	a00b883a 	mov	r5,r20
   838e0:	1039883a 	mov	fp,r2
   838e4:	00866cc0 	call	866cc <__mcmp>
   838e8:	d8c01517 	ldw	r3,84(sp)
   838ec:	0081880e 	bge	zero,r2,83f10 <_dtoa_r+0x15a8>
   838f0:	00800e44 	movi	r2,57
   838f4:	b0c00c44 	addi	r3,r22,49
   838f8:	a8816326 	beq	r21,r2,83e88 <_dtoa_r+0x1520>
   838fc:	90c00005 	stb	r3,0(r18)
   83900:	95800044 	addi	r22,r18,1
   83904:	982b883a 	mov	r21,r19
   83908:	003f1606 	br	83564 <__alt_data_end+0xfff83564>
   8390c:	300b883a 	mov	r5,r6
   83910:	e009883a 	mov	r4,fp
   83914:	d9801515 	stw	r6,84(sp)
   83918:	00866cc0 	call	866cc <__mcmp>
   8391c:	d9801517 	ldw	r6,84(sp)
   83920:	8009883a 	mov	r4,r16
   83924:	d8801515 	stw	r2,84(sp)
   83928:	300b883a 	mov	r5,r6
   8392c:	0085e280 	call	85e28 <_Bfree>
   83930:	d8801517 	ldw	r2,84(sp)
   83934:	103f6d1e 	bne	r2,zero,836ec <__alt_data_end+0xfff836ec>
   83938:	d9c00417 	ldw	r7,16(sp)
   8393c:	383f6b1e 	bne	r7,zero,836ec <__alt_data_end+0xfff836ec>
   83940:	d8c00317 	ldw	r3,12(sp)
   83944:	183f691e 	bne	r3,zero,836ec <__alt_data_end+0xfff836ec>
   83948:	b807883a 	mov	r3,r23
   8394c:	00800e44 	movi	r2,57
   83950:	ddc00717 	ldw	r23,28(sp)
   83954:	18814c26 	beq	r3,r2,83e88 <_dtoa_r+0x1520>
   83958:	057fe80e 	bge	zero,r21,838fc <__alt_data_end+0xfff838fc>
   8395c:	b0c00c44 	addi	r3,r22,49
   83960:	003fe606 	br	838fc <__alt_data_end+0xfff838fc>
   83964:	880b883a 	mov	r5,r17
   83968:	8009883a 	mov	r4,r16
   8396c:	01800284 	movi	r6,10
   83970:	000f883a 	mov	r7,zero
   83974:	0085e500 	call	85e50 <__multadd>
   83978:	1023883a 	mov	r17,r2
   8397c:	1027883a 	mov	r19,r2
   83980:	a825883a 	mov	r18,r21
   83984:	003f4506 	br	8369c <__alt_data_end+0xfff8369c>
   83988:	e009883a 	mov	r4,fp
   8398c:	a00b883a 	mov	r5,r20
   83990:	00866cc0 	call	866cc <__mcmp>
   83994:	103ebc0e 	bge	r2,zero,83488 <__alt_data_end+0xfff83488>
   83998:	e00b883a 	mov	r5,fp
   8399c:	8009883a 	mov	r4,r16
   839a0:	01800284 	movi	r6,10
   839a4:	000f883a 	mov	r7,zero
   839a8:	0085e500 	call	85e50 <__multadd>
   839ac:	1039883a 	mov	fp,r2
   839b0:	d8800617 	ldw	r2,24(sp)
   839b4:	d8c00c17 	ldw	r3,48(sp)
   839b8:	10bfffc4 	addi	r2,r2,-1
   839bc:	d8800615 	stw	r2,24(sp)
   839c0:	1801571e 	bne	r3,zero,83f20 <_dtoa_r+0x15b8>
   839c4:	d9c00e17 	ldw	r7,56(sp)
   839c8:	d9c00915 	stw	r7,36(sp)
   839cc:	003eae06 	br	83488 <__alt_data_end+0xfff83488>
   839d0:	a0800417 	ldw	r2,16(r20)
   839d4:	10800104 	addi	r2,r2,4
   839d8:	1085883a 	add	r2,r2,r2
   839dc:	1085883a 	add	r2,r2,r2
   839e0:	a085883a 	add	r2,r20,r2
   839e4:	11000017 	ldw	r4,0(r2)
   839e8:	00860980 	call	86098 <__hi0bits>
   839ec:	00c00804 	movi	r3,32
   839f0:	1885c83a 	sub	r2,r3,r2
   839f4:	003e8306 	br	83404 <__alt_data_end+0xfff83404>
   839f8:	d9c00417 	ldw	r7,16(sp)
   839fc:	00800084 	movi	r2,2
   83a00:	11fea30e 	bge	r2,r7,83490 <__alt_data_end+0xfff83490>
   83a04:	d8800917 	ldw	r2,36(sp)
   83a08:	103f8c1e 	bne	r2,zero,8383c <__alt_data_end+0xfff8383c>
   83a0c:	a00b883a 	mov	r5,r20
   83a10:	8009883a 	mov	r4,r16
   83a14:	01800144 	movi	r6,5
   83a18:	000f883a 	mov	r7,zero
   83a1c:	0085e500 	call	85e50 <__multadd>
   83a20:	e009883a 	mov	r4,fp
   83a24:	100b883a 	mov	r5,r2
   83a28:	1029883a 	mov	r20,r2
   83a2c:	00866cc0 	call	866cc <__mcmp>
   83a30:	00bf820e 	bge	zero,r2,8383c <__alt_data_end+0xfff8383c>
   83a34:	00800c44 	movi	r2,49
   83a38:	b8800005 	stb	r2,0(r23)
   83a3c:	d8800617 	ldw	r2,24(sp)
   83a40:	bd800044 	addi	r22,r23,1
   83a44:	10800044 	addi	r2,r2,1
   83a48:	d8800615 	stw	r2,24(sp)
   83a4c:	003f7f06 	br	8384c <__alt_data_end+0xfff8384c>
   83a50:	dc000417 	ldw	r16,16(sp)
   83a54:	003d6506 	br	82fec <__alt_data_end+0xfff82fec>
   83a58:	9009883a 	mov	r4,r18
   83a5c:	00891fc0 	call	891fc <__floatsidf>
   83a60:	1009883a 	mov	r4,r2
   83a64:	180b883a 	mov	r5,r3
   83a68:	980d883a 	mov	r6,r19
   83a6c:	a00f883a 	mov	r7,r20
   83a70:	0088b880 	call	88b88 <__muldf3>
   83a74:	1009883a 	mov	r4,r2
   83a78:	180b883a 	mov	r5,r3
   83a7c:	000d883a 	mov	r6,zero
   83a80:	01d00734 	movhi	r7,16412
   83a84:	0088ad40 	call	88ad4 <__adddf3>
   83a88:	057f3034 	movhi	r21,64704
   83a8c:	1025883a 	mov	r18,r2
   83a90:	1d6b883a 	add	r21,r3,r21
   83a94:	9809883a 	mov	r4,r19
   83a98:	a00b883a 	mov	r5,r20
   83a9c:	000d883a 	mov	r6,zero
   83aa0:	01d00534 	movhi	r7,16404
   83aa4:	0088b280 	call	88b28 <__subdf3>
   83aa8:	1009883a 	mov	r4,r2
   83aac:	180b883a 	mov	r5,r3
   83ab0:	900d883a 	mov	r6,r18
   83ab4:	a80f883a 	mov	r7,r21
   83ab8:	1027883a 	mov	r19,r2
   83abc:	1829883a 	mov	r20,r3
   83ac0:	00890d80 	call	890d8 <__gtdf2>
   83ac4:	00806616 	blt	zero,r2,83c60 <_dtoa_r+0x12f8>
   83ac8:	a9e0003c 	xorhi	r7,r21,32768
   83acc:	9809883a 	mov	r4,r19
   83ad0:	a00b883a 	mov	r5,r20
   83ad4:	900d883a 	mov	r6,r18
   83ad8:	00891a00 	call	891a0 <__ltdf2>
   83adc:	103d710e 	bge	r2,zero,830a4 <__alt_data_end+0xfff830a4>
   83ae0:	0029883a 	mov	r20,zero
   83ae4:	002b883a 	mov	r21,zero
   83ae8:	003f5406 	br	8383c <__alt_data_end+0xfff8383c>
   83aec:	d9800a17 	ldw	r6,40(sp)
   83af0:	e00b883a 	mov	r5,fp
   83af4:	8009883a 	mov	r4,r16
   83af8:	00864440 	call	86444 <__pow5mult>
   83afc:	1039883a 	mov	fp,r2
   83b00:	003e2e06 	br	833bc <__alt_data_end+0xfff833bc>
   83b04:	d8000c15 	stw	zero,48(sp)
   83b08:	003f2006 	br	8378c <__alt_data_end+0xfff8378c>
   83b0c:	00800044 	movi	r2,1
   83b10:	d8800c15 	stw	r2,48(sp)
   83b14:	003c5d06 	br	82c8c <__alt_data_end+0xfff82c8c>
   83b18:	d8c00a17 	ldw	r3,40(sp)
   83b1c:	d9000b17 	ldw	r4,44(sp)
   83b20:	dcc00a15 	stw	r19,40(sp)
   83b24:	98c5c83a 	sub	r2,r19,r3
   83b28:	2089883a 	add	r4,r4,r2
   83b2c:	d9000b15 	stw	r4,44(sp)
   83b30:	0027883a 	mov	r19,zero
   83b34:	003df206 	br	83300 <__alt_data_end+0xfff83300>
   83b38:	d9000317 	ldw	r4,12(sp)
   83b3c:	8829883a 	mov	r20,r17
   83b40:	04800084 	movi	r18,2
   83b44:	d9001015 	stw	r4,64(sp)
   83b48:	003c8106 	br	82d50 <__alt_data_end+0xfff82d50>
   83b4c:	04800044 	movi	r18,1
   83b50:	dc800e15 	stw	r18,56(sp)
   83b54:	dc800915 	stw	r18,36(sp)
   83b58:	dc802115 	stw	r18,132(sp)
   83b5c:	003f1206 	br	837a8 <__alt_data_end+0xfff837a8>
   83b60:	d8800617 	ldw	r2,24(sp)
   83b64:	00abc83a 	sub	r21,zero,r2
   83b68:	a800a426 	beq	r21,zero,83dfc <_dtoa_r+0x1494>
   83b6c:	a88003cc 	andi	r2,r21,15
   83b70:	100490fa 	slli	r2,r2,3
   83b74:	00c00274 	movhi	r3,9
   83b78:	18d38904 	addi	r3,r3,20004
   83b7c:	d9000317 	ldw	r4,12(sp)
   83b80:	1885883a 	add	r2,r3,r2
   83b84:	11800017 	ldw	r6,0(r2)
   83b88:	11c00117 	ldw	r7,4(r2)
   83b8c:	a82bd13a 	srai	r21,r21,4
   83b90:	880b883a 	mov	r5,r17
   83b94:	0088b880 	call	88b88 <__muldf3>
   83b98:	1027883a 	mov	r19,r2
   83b9c:	1829883a 	mov	r20,r3
   83ba0:	a800e826 	beq	r21,zero,83f44 <_dtoa_r+0x15dc>
   83ba4:	05800274 	movhi	r22,9
   83ba8:	b5937f04 	addi	r22,r22,19964
   83bac:	04800084 	movi	r18,2
   83bb0:	a980004c 	andi	r6,r21,1
   83bb4:	1009883a 	mov	r4,r2
   83bb8:	a82bd07a 	srai	r21,r21,1
   83bbc:	180b883a 	mov	r5,r3
   83bc0:	30000426 	beq	r6,zero,83bd4 <_dtoa_r+0x126c>
   83bc4:	b1800017 	ldw	r6,0(r22)
   83bc8:	b1c00117 	ldw	r7,4(r22)
   83bcc:	94800044 	addi	r18,r18,1
   83bd0:	0088b880 	call	88b88 <__muldf3>
   83bd4:	b5800204 	addi	r22,r22,8
   83bd8:	a83ff51e 	bne	r21,zero,83bb0 <__alt_data_end+0xfff83bb0>
   83bdc:	1027883a 	mov	r19,r2
   83be0:	1829883a 	mov	r20,r3
   83be4:	003c7306 	br	82db4 <__alt_data_end+0xfff82db4>
   83be8:	21000044 	addi	r4,r4,1
   83bec:	11000005 	stb	r4,0(r2)
   83bf0:	003e5c06 	br	83564 <__alt_data_end+0xfff83564>
   83bf4:	a9400117 	ldw	r5,4(r21)
   83bf8:	8009883a 	mov	r4,r16
   83bfc:	0085d800 	call	85d80 <_Balloc>
   83c00:	a9800417 	ldw	r6,16(r21)
   83c04:	11000304 	addi	r4,r2,12
   83c08:	a9400304 	addi	r5,r21,12
   83c0c:	31800084 	addi	r6,r6,2
   83c10:	318d883a 	add	r6,r6,r6
   83c14:	318d883a 	add	r6,r6,r6
   83c18:	1023883a 	mov	r17,r2
   83c1c:	00859d80 	call	859d8 <memcpy>
   83c20:	8009883a 	mov	r4,r16
   83c24:	880b883a 	mov	r5,r17
   83c28:	01800044 	movi	r6,1
   83c2c:	00865700 	call	86570 <__lshift>
   83c30:	1027883a 	mov	r19,r2
   83c34:	003e8f06 	br	83674 <__alt_data_end+0xfff83674>
   83c38:	b807883a 	mov	r3,r23
   83c3c:	00800e44 	movi	r2,57
   83c40:	ddc00717 	ldw	r23,28(sp)
   83c44:	18809026 	beq	r3,r2,83e88 <_dtoa_r+0x1520>
   83c48:	18c00044 	addi	r3,r3,1
   83c4c:	003f2b06 	br	838fc <__alt_data_end+0xfff838fc>
   83c50:	b807883a 	mov	r3,r23
   83c54:	982b883a 	mov	r21,r19
   83c58:	ddc00717 	ldw	r23,28(sp)
   83c5c:	003e2406 	br	834f0 <__alt_data_end+0xfff834f0>
   83c60:	0029883a 	mov	r20,zero
   83c64:	002b883a 	mov	r21,zero
   83c68:	003f7206 	br	83a34 <__alt_data_end+0xfff83a34>
   83c6c:	593fffc4 	addi	r4,r11,-1
   83c70:	200490fa 	slli	r2,r4,3
   83c74:	00c00274 	movhi	r3,9
   83c78:	18d38904 	addi	r3,r3,20004
   83c7c:	d9001015 	stw	r4,64(sp)
   83c80:	1885883a 	add	r2,r3,r2
   83c84:	11000017 	ldw	r4,0(r2)
   83c88:	11400117 	ldw	r5,4(r2)
   83c8c:	900d883a 	mov	r6,r18
   83c90:	a80f883a 	mov	r7,r21
   83c94:	dac01615 	stw	r11,88(sp)
   83c98:	0088b880 	call	88b88 <__muldf3>
   83c9c:	a00b883a 	mov	r5,r20
   83ca0:	9809883a 	mov	r4,r19
   83ca4:	d8c01215 	stw	r3,72(sp)
   83ca8:	d8801115 	stw	r2,68(sp)
   83cac:	00892d00 	call	892d0 <__fixdfsi>
   83cb0:	1009883a 	mov	r4,r2
   83cb4:	1025883a 	mov	r18,r2
   83cb8:	00891fc0 	call	891fc <__floatsidf>
   83cbc:	9809883a 	mov	r4,r19
   83cc0:	a00b883a 	mov	r5,r20
   83cc4:	100d883a 	mov	r6,r2
   83cc8:	180f883a 	mov	r7,r3
   83ccc:	94800c04 	addi	r18,r18,48
   83cd0:	0088b280 	call	88b28 <__subdf3>
   83cd4:	bc800005 	stb	r18,0(r23)
   83cd8:	dac01617 	ldw	r11,88(sp)
   83cdc:	102b883a 	mov	r21,r2
   83ce0:	00800044 	movi	r2,1
   83ce4:	bd800044 	addi	r22,r23,1
   83ce8:	1815883a 	mov	r10,r3
   83cec:	58802226 	beq	r11,r2,83d78 <_dtoa_r+0x1410>
   83cf0:	bad7883a 	add	r11,r23,r11
   83cf4:	dc001415 	stw	r16,80(sp)
   83cf8:	a805883a 	mov	r2,r21
   83cfc:	b027883a 	mov	r19,r22
   83d00:	5821883a 	mov	r16,r11
   83d04:	882b883a 	mov	r21,r17
   83d08:	000d883a 	mov	r6,zero
   83d0c:	01d00934 	movhi	r7,16420
   83d10:	1009883a 	mov	r4,r2
   83d14:	180b883a 	mov	r5,r3
   83d18:	0088b880 	call	88b88 <__muldf3>
   83d1c:	180b883a 	mov	r5,r3
   83d20:	1009883a 	mov	r4,r2
   83d24:	1829883a 	mov	r20,r3
   83d28:	1023883a 	mov	r17,r2
   83d2c:	00892d00 	call	892d0 <__fixdfsi>
   83d30:	1009883a 	mov	r4,r2
   83d34:	1025883a 	mov	r18,r2
   83d38:	00891fc0 	call	891fc <__floatsidf>
   83d3c:	8809883a 	mov	r4,r17
   83d40:	a00b883a 	mov	r5,r20
   83d44:	100d883a 	mov	r6,r2
   83d48:	180f883a 	mov	r7,r3
   83d4c:	94800c04 	addi	r18,r18,48
   83d50:	0088b280 	call	88b28 <__subdf3>
   83d54:	9cc00044 	addi	r19,r19,1
   83d58:	9cbfffc5 	stb	r18,-1(r19)
   83d5c:	9c3fea1e 	bne	r19,r16,83d08 <__alt_data_end+0xfff83d08>
   83d60:	1815883a 	mov	r10,r3
   83d64:	d8c01017 	ldw	r3,64(sp)
   83d68:	dc001417 	ldw	r16,80(sp)
   83d6c:	a823883a 	mov	r17,r21
   83d70:	b0ed883a 	add	r22,r22,r3
   83d74:	102b883a 	mov	r21,r2
   83d78:	d9001117 	ldw	r4,68(sp)
   83d7c:	d9401217 	ldw	r5,72(sp)
   83d80:	000d883a 	mov	r6,zero
   83d84:	01cff834 	movhi	r7,16352
   83d88:	da801515 	stw	r10,84(sp)
   83d8c:	0088ad40 	call	88ad4 <__adddf3>
   83d90:	da801517 	ldw	r10,84(sp)
   83d94:	1009883a 	mov	r4,r2
   83d98:	180b883a 	mov	r5,r3
   83d9c:	500f883a 	mov	r7,r10
   83da0:	a80d883a 	mov	r6,r21
   83da4:	00891a00 	call	891a0 <__ltdf2>
   83da8:	da801517 	ldw	r10,84(sp)
   83dac:	10003b0e 	bge	r2,zero,83e9c <_dtoa_r+0x1534>
   83db0:	d9c01317 	ldw	r7,76(sp)
   83db4:	b53fffc3 	ldbu	r20,-1(r22)
   83db8:	d9c00615 	stw	r7,24(sp)
   83dbc:	003d3106 	br	83284 <__alt_data_end+0xfff83284>
   83dc0:	d8800817 	ldw	r2,32(sp)
   83dc4:	11e5c83a 	sub	r18,r2,r7
   83dc8:	0005883a 	mov	r2,zero
   83dcc:	003d5006 	br	83310 <__alt_data_end+0xfff83310>
   83dd0:	05800044 	movi	r22,1
   83dd4:	003dc406 	br	834e8 <__alt_data_end+0xfff834e8>
   83dd8:	a5000044 	addi	r20,r20,1
   83ddc:	15000005 	stb	r20,0(r2)
   83de0:	003c8206 	br	82fec <__alt_data_end+0xfff82fec>
   83de4:	d8800217 	ldw	r2,8(sp)
   83de8:	00c00d84 	movi	r3,54
   83dec:	dcc00a17 	ldw	r19,40(sp)
   83df0:	1885c83a 	sub	r2,r3,r2
   83df4:	dc800817 	ldw	r18,32(sp)
   83df8:	003d4506 	br	83310 <__alt_data_end+0xfff83310>
   83dfc:	dcc00317 	ldw	r19,12(sp)
   83e00:	8829883a 	mov	r20,r17
   83e04:	04800084 	movi	r18,2
   83e08:	003bea06 	br	82db4 <__alt_data_end+0xfff82db4>
   83e0c:	d9000917 	ldw	r4,36(sp)
   83e10:	203f1126 	beq	r4,zero,83a58 <__alt_data_end+0xfff83a58>
   83e14:	d9c00e17 	ldw	r7,56(sp)
   83e18:	01fca20e 	bge	zero,r7,830a4 <__alt_data_end+0xfff830a4>
   83e1c:	a00b883a 	mov	r5,r20
   83e20:	9809883a 	mov	r4,r19
   83e24:	000d883a 	mov	r6,zero
   83e28:	01d00934 	movhi	r7,16420
   83e2c:	0088b880 	call	88b88 <__muldf3>
   83e30:	91000044 	addi	r4,r18,1
   83e34:	1027883a 	mov	r19,r2
   83e38:	1829883a 	mov	r20,r3
   83e3c:	00891fc0 	call	891fc <__floatsidf>
   83e40:	9809883a 	mov	r4,r19
   83e44:	a00b883a 	mov	r5,r20
   83e48:	100d883a 	mov	r6,r2
   83e4c:	180f883a 	mov	r7,r3
   83e50:	0088b880 	call	88b88 <__muldf3>
   83e54:	1009883a 	mov	r4,r2
   83e58:	180b883a 	mov	r5,r3
   83e5c:	000d883a 	mov	r6,zero
   83e60:	01d00734 	movhi	r7,16412
   83e64:	0088ad40 	call	88ad4 <__adddf3>
   83e68:	1025883a 	mov	r18,r2
   83e6c:	d8800617 	ldw	r2,24(sp)
   83e70:	057f3034 	movhi	r21,64704
   83e74:	1d6b883a 	add	r21,r3,r21
   83e78:	10bfffc4 	addi	r2,r2,-1
   83e7c:	d8801315 	stw	r2,76(sp)
   83e80:	dac00e17 	ldw	r11,56(sp)
   83e84:	003be706 	br	82e24 <__alt_data_end+0xfff82e24>
   83e88:	01000e44 	movi	r4,57
   83e8c:	91000005 	stb	r4,0(r18)
   83e90:	95800044 	addi	r22,r18,1
   83e94:	982b883a 	mov	r21,r19
   83e98:	003da106 	br	83520 <__alt_data_end+0xfff83520>
   83e9c:	d9801117 	ldw	r6,68(sp)
   83ea0:	d9c01217 	ldw	r7,72(sp)
   83ea4:	0009883a 	mov	r4,zero
   83ea8:	014ff834 	movhi	r5,16352
   83eac:	da801515 	stw	r10,84(sp)
   83eb0:	0088b280 	call	88b28 <__subdf3>
   83eb4:	da801517 	ldw	r10,84(sp)
   83eb8:	1009883a 	mov	r4,r2
   83ebc:	180b883a 	mov	r5,r3
   83ec0:	a80d883a 	mov	r6,r21
   83ec4:	500f883a 	mov	r7,r10
   83ec8:	00890d80 	call	890d8 <__gtdf2>
   83ecc:	00bc750e 	bge	zero,r2,830a4 <__alt_data_end+0xfff830a4>
   83ed0:	01000c04 	movi	r4,48
   83ed4:	00000106 	br	83edc <_dtoa_r+0x1574>
   83ed8:	102d883a 	mov	r22,r2
   83edc:	b0bfffc4 	addi	r2,r22,-1
   83ee0:	10c00007 	ldb	r3,0(r2)
   83ee4:	193ffc26 	beq	r3,r4,83ed8 <__alt_data_end+0xfff83ed8>
   83ee8:	d8801317 	ldw	r2,76(sp)
   83eec:	d8800615 	stw	r2,24(sp)
   83ef0:	003c3e06 	br	82fec <__alt_data_end+0xfff82fec>
   83ef4:	d9001317 	ldw	r4,76(sp)
   83ef8:	df001117 	ldw	fp,68(sp)
   83efc:	d9000615 	stw	r4,24(sp)
   83f00:	003ce006 	br	83284 <__alt_data_end+0xfff83284>
   83f04:	df001117 	ldw	fp,68(sp)
   83f08:	dc401217 	ldw	r17,72(sp)
   83f0c:	003c6506 	br	830a4 <__alt_data_end+0xfff830a4>
   83f10:	103e7a1e 	bne	r2,zero,838fc <__alt_data_end+0xfff838fc>
   83f14:	1880004c 	andi	r2,r3,1
   83f18:	103e7826 	beq	r2,zero,838fc <__alt_data_end+0xfff838fc>
   83f1c:	003e7406 	br	838f0 <__alt_data_end+0xfff838f0>
   83f20:	8009883a 	mov	r4,r16
   83f24:	a80b883a 	mov	r5,r21
   83f28:	01800284 	movi	r6,10
   83f2c:	000f883a 	mov	r7,zero
   83f30:	0085e500 	call	85e50 <__multadd>
   83f34:	d9000e17 	ldw	r4,56(sp)
   83f38:	102b883a 	mov	r21,r2
   83f3c:	d9000915 	stw	r4,36(sp)
   83f40:	003d5106 	br	83488 <__alt_data_end+0xfff83488>
   83f44:	04800084 	movi	r18,2
   83f48:	003b9a06 	br	82db4 <__alt_data_end+0xfff82db4>
   83f4c:	d8c01317 	ldw	r3,76(sp)
   83f50:	d8c00615 	stw	r3,24(sp)
   83f54:	003ccb06 	br	83284 <__alt_data_end+0xfff83284>
   83f58:	d8c01317 	ldw	r3,76(sp)
   83f5c:	d8c00615 	stw	r3,24(sp)
   83f60:	003c2206 	br	82fec <__alt_data_end+0xfff82fec>
   83f64:	20fd3826 	beq	r4,r3,83448 <__alt_data_end+0xfff83448>
   83f68:	00c00f04 	movi	r3,60
   83f6c:	1885c83a 	sub	r2,r3,r2
   83f70:	003da906 	br	83618 <__alt_data_end+0xfff83618>
   83f74:	000b883a 	mov	r5,zero
   83f78:	003b5406 	br	82ccc <__alt_data_end+0xfff82ccc>
   83f7c:	04c00044 	movi	r19,1
   83f80:	003b3b06 	br	82c70 <__alt_data_end+0xfff82c70>

00083f84 <_fflush_r>:
   83f84:	defffb04 	addi	sp,sp,-20
   83f88:	dcc00315 	stw	r19,12(sp)
   83f8c:	dc400115 	stw	r17,4(sp)
   83f90:	dfc00415 	stw	ra,16(sp)
   83f94:	dc800215 	stw	r18,8(sp)
   83f98:	dc000015 	stw	r16,0(sp)
   83f9c:	2027883a 	mov	r19,r4
   83fa0:	2823883a 	mov	r17,r5
   83fa4:	20000226 	beq	r4,zero,83fb0 <_fflush_r+0x2c>
   83fa8:	20800e17 	ldw	r2,56(r4)
   83fac:	10005726 	beq	r2,zero,8410c <_fflush_r+0x188>
   83fb0:	8880030b 	ldhu	r2,12(r17)
   83fb4:	10c0020c 	andi	r3,r2,8
   83fb8:	18ffffcc 	andi	r3,r3,65535
   83fbc:	18e0001c 	xori	r3,r3,32768
   83fc0:	18e00004 	addi	r3,r3,-32768
   83fc4:	1800311e 	bne	r3,zero,8408c <_fflush_r+0x108>
   83fc8:	89000117 	ldw	r4,4(r17)
   83fcc:	10c20014 	ori	r3,r2,2048
   83fd0:	88c0030d 	sth	r3,12(r17)
   83fd4:	180b883a 	mov	r5,r3
   83fd8:	0100520e 	bge	zero,r4,84124 <_fflush_r+0x1a0>
   83fdc:	88c00a17 	ldw	r3,40(r17)
   83fe0:	18002226 	beq	r3,zero,8406c <_fflush_r+0xe8>
   83fe4:	1084000c 	andi	r2,r2,4096
   83fe8:	10bfffcc 	andi	r2,r2,65535
   83fec:	10a0001c 	xori	r2,r2,32768
   83ff0:	10a00004 	addi	r2,r2,-32768
   83ff4:	10004e26 	beq	r2,zero,84130 <_fflush_r+0x1ac>
   83ff8:	8c001417 	ldw	r16,80(r17)
   83ffc:	2940010c 	andi	r5,r5,4
   84000:	297fffcc 	andi	r5,r5,65535
   84004:	2960001c 	xori	r5,r5,32768
   84008:	29600004 	addi	r5,r5,-32768
   8400c:	28000626 	beq	r5,zero,84028 <_fflush_r+0xa4>
   84010:	89000117 	ldw	r4,4(r17)
   84014:	88800c17 	ldw	r2,48(r17)
   84018:	8121c83a 	sub	r16,r16,r4
   8401c:	10000226 	beq	r2,zero,84028 <_fflush_r+0xa4>
   84020:	88800f17 	ldw	r2,60(r17)
   84024:	80a1c83a 	sub	r16,r16,r2
   84028:	89400717 	ldw	r5,28(r17)
   8402c:	9809883a 	mov	r4,r19
   84030:	800d883a 	mov	r6,r16
   84034:	000f883a 	mov	r7,zero
   84038:	183ee83a 	callr	r3
   8403c:	8080281e 	bne	r16,r2,840e0 <_fflush_r+0x15c>
   84040:	8880030b 	ldhu	r2,12(r17)
   84044:	88c00417 	ldw	r3,16(r17)
   84048:	88000115 	stw	zero,4(r17)
   8404c:	113dffcc 	andi	r4,r2,63487
   84050:	1084000c 	andi	r2,r2,4096
   84054:	10bfffcc 	andi	r2,r2,65535
   84058:	10a0001c 	xori	r2,r2,32768
   8405c:	8900030d 	sth	r4,12(r17)
   84060:	88c00015 	stw	r3,0(r17)
   84064:	10a00004 	addi	r2,r2,-32768
   84068:	10002c1e 	bne	r2,zero,8411c <_fflush_r+0x198>
   8406c:	0005883a 	mov	r2,zero
   84070:	dfc00417 	ldw	ra,16(sp)
   84074:	dcc00317 	ldw	r19,12(sp)
   84078:	dc800217 	ldw	r18,8(sp)
   8407c:	dc400117 	ldw	r17,4(sp)
   84080:	dc000017 	ldw	r16,0(sp)
   84084:	dec00504 	addi	sp,sp,20
   84088:	f800283a 	ret
   8408c:	8c800417 	ldw	r18,16(r17)
   84090:	903ff626 	beq	r18,zero,8406c <__alt_data_end+0xfff8406c>
   84094:	8c000017 	ldw	r16,0(r17)
   84098:	108000cc 	andi	r2,r2,3
   8409c:	8c800015 	stw	r18,0(r17)
   840a0:	84a1c83a 	sub	r16,r16,r18
   840a4:	10001b1e 	bne	r2,zero,84114 <_fflush_r+0x190>
   840a8:	88800517 	ldw	r2,20(r17)
   840ac:	88800215 	stw	r2,8(r17)
   840b0:	04000316 	blt	zero,r16,840c0 <_fflush_r+0x13c>
   840b4:	003fed06 	br	8406c <__alt_data_end+0xfff8406c>
   840b8:	90a5883a 	add	r18,r18,r2
   840bc:	043feb0e 	bge	zero,r16,8406c <__alt_data_end+0xfff8406c>
   840c0:	88800917 	ldw	r2,36(r17)
   840c4:	89400717 	ldw	r5,28(r17)
   840c8:	800f883a 	mov	r7,r16
   840cc:	900d883a 	mov	r6,r18
   840d0:	9809883a 	mov	r4,r19
   840d4:	103ee83a 	callr	r2
   840d8:	80a1c83a 	sub	r16,r16,r2
   840dc:	00bff616 	blt	zero,r2,840b8 <__alt_data_end+0xfff840b8>
   840e0:	88c0030b 	ldhu	r3,12(r17)
   840e4:	00bfffc4 	movi	r2,-1
   840e8:	18c01014 	ori	r3,r3,64
   840ec:	88c0030d 	sth	r3,12(r17)
   840f0:	dfc00417 	ldw	ra,16(sp)
   840f4:	dcc00317 	ldw	r19,12(sp)
   840f8:	dc800217 	ldw	r18,8(sp)
   840fc:	dc400117 	ldw	r17,4(sp)
   84100:	dc000017 	ldw	r16,0(sp)
   84104:	dec00504 	addi	sp,sp,20
   84108:	f800283a 	ret
   8410c:	00842400 	call	84240 <__sinit>
   84110:	003fa706 	br	83fb0 <__alt_data_end+0xfff83fb0>
   84114:	0005883a 	mov	r2,zero
   84118:	003fe406 	br	840ac <__alt_data_end+0xfff840ac>
   8411c:	8c001415 	stw	r16,80(r17)
   84120:	003fd206 	br	8406c <__alt_data_end+0xfff8406c>
   84124:	88c00f17 	ldw	r3,60(r17)
   84128:	00ffac16 	blt	zero,r3,83fdc <__alt_data_end+0xfff83fdc>
   8412c:	003fcf06 	br	8406c <__alt_data_end+0xfff8406c>
   84130:	89400717 	ldw	r5,28(r17)
   84134:	9809883a 	mov	r4,r19
   84138:	000d883a 	mov	r6,zero
   8413c:	01c00044 	movi	r7,1
   84140:	183ee83a 	callr	r3
   84144:	1021883a 	mov	r16,r2
   84148:	00bfffc4 	movi	r2,-1
   8414c:	80800326 	beq	r16,r2,8415c <_fflush_r+0x1d8>
   84150:	8940030b 	ldhu	r5,12(r17)
   84154:	88c00a17 	ldw	r3,40(r17)
   84158:	003fa806 	br	83ffc <__alt_data_end+0xfff83ffc>
   8415c:	98c00017 	ldw	r3,0(r19)
   84160:	00800744 	movi	r2,29
   84164:	18bfde1e 	bne	r3,r2,840e0 <__alt_data_end+0xfff840e0>
   84168:	003fc006 	br	8406c <__alt_data_end+0xfff8406c>

0008416c <fflush>:
   8416c:	200b883a 	mov	r5,r4
   84170:	20000426 	beq	r4,zero,84184 <fflush+0x18>
   84174:	00800274 	movhi	r2,9
   84178:	109ae204 	addi	r2,r2,27528
   8417c:	11000017 	ldw	r4,0(r2)
   84180:	0083f841 	jmpi	83f84 <_fflush_r>
   84184:	00800274 	movhi	r2,9
   84188:	109ae104 	addi	r2,r2,27524
   8418c:	11000017 	ldw	r4,0(r2)
   84190:	01400234 	movhi	r5,8
   84194:	294fe104 	addi	r5,r5,16260
   84198:	0084e201 	jmpi	84e20 <_fwalk_reent>

0008419c <__fp_lock>:
   8419c:	0005883a 	mov	r2,zero
   841a0:	f800283a 	ret

000841a4 <__fp_unlock>:
   841a4:	0005883a 	mov	r2,zero
   841a8:	f800283a 	ret

000841ac <_cleanup_r>:
   841ac:	01400234 	movhi	r5,8
   841b0:	295e5404 	addi	r5,r5,31056
   841b4:	0084d781 	jmpi	84d78 <_fwalk>

000841b8 <__sfmoreglue>:
   841b8:	defffc04 	addi	sp,sp,-16
   841bc:	dc800215 	stw	r18,8(sp)
   841c0:	2825883a 	mov	r18,r5
   841c4:	dc000015 	stw	r16,0(sp)
   841c8:	01401704 	movi	r5,92
   841cc:	2021883a 	mov	r16,r4
   841d0:	9009883a 	mov	r4,r18
   841d4:	dfc00315 	stw	ra,12(sp)
   841d8:	dc400115 	stw	r17,4(sp)
   841dc:	00895e00 	call	895e0 <__mulsi3>
   841e0:	8009883a 	mov	r4,r16
   841e4:	11400304 	addi	r5,r2,12
   841e8:	1023883a 	mov	r17,r2
   841ec:	008515c0 	call	8515c <_malloc_r>
   841f0:	1021883a 	mov	r16,r2
   841f4:	10000726 	beq	r2,zero,84214 <__sfmoreglue+0x5c>
   841f8:	11000304 	addi	r4,r2,12
   841fc:	10000015 	stw	zero,0(r2)
   84200:	14800115 	stw	r18,4(r2)
   84204:	11000215 	stw	r4,8(r2)
   84208:	000b883a 	mov	r5,zero
   8420c:	880d883a 	mov	r6,r17
   84210:	0085ca40 	call	85ca4 <memset>
   84214:	8005883a 	mov	r2,r16
   84218:	dfc00317 	ldw	ra,12(sp)
   8421c:	dc800217 	ldw	r18,8(sp)
   84220:	dc400117 	ldw	r17,4(sp)
   84224:	dc000017 	ldw	r16,0(sp)
   84228:	dec00404 	addi	sp,sp,16
   8422c:	f800283a 	ret

00084230 <_cleanup>:
   84230:	00800274 	movhi	r2,9
   84234:	109ae104 	addi	r2,r2,27524
   84238:	11000017 	ldw	r4,0(r2)
   8423c:	00841ac1 	jmpi	841ac <_cleanup_r>

00084240 <__sinit>:
   84240:	20800e17 	ldw	r2,56(r4)
   84244:	1000401e 	bne	r2,zero,84348 <__sinit+0x108>
   84248:	21400117 	ldw	r5,4(r4)
   8424c:	01800234 	movhi	r6,8
   84250:	31906b04 	addi	r6,r6,16812
   84254:	20c00217 	ldw	r3,8(r4)
   84258:	21800f15 	stw	r6,60(r4)
   8425c:	2080bb04 	addi	r2,r4,748
   84260:	02400044 	movi	r9,1
   84264:	018000c4 	movi	r6,3
   84268:	2180b915 	stw	r6,740(r4)
   8426c:	2080ba15 	stw	r2,744(r4)
   84270:	22400e15 	stw	r9,56(r4)
   84274:	20800317 	ldw	r2,12(r4)
   84278:	2000b815 	stw	zero,736(r4)
   8427c:	02000234 	movhi	r8,8
   84280:	421d2504 	addi	r8,r8,29844
   84284:	01c00234 	movhi	r7,8
   84288:	39dd3a04 	addi	r7,r7,29928
   8428c:	01800234 	movhi	r6,8
   84290:	319d5c04 	addi	r6,r6,30064
   84294:	01000234 	movhi	r4,8
   84298:	211d7304 	addi	r4,r4,30156
   8429c:	02800104 	movi	r10,4
   842a0:	28000015 	stw	zero,0(r5)
   842a4:	28000115 	stw	zero,4(r5)
   842a8:	28000215 	stw	zero,8(r5)
   842ac:	2a80030d 	sth	r10,12(r5)
   842b0:	2800038d 	sth	zero,14(r5)
   842b4:	28000415 	stw	zero,16(r5)
   842b8:	28000515 	stw	zero,20(r5)
   842bc:	28000615 	stw	zero,24(r5)
   842c0:	29400715 	stw	r5,28(r5)
   842c4:	2a000815 	stw	r8,32(r5)
   842c8:	29c00915 	stw	r7,36(r5)
   842cc:	29800a15 	stw	r6,40(r5)
   842d0:	29000b15 	stw	r4,44(r5)
   842d4:	01400284 	movi	r5,10
   842d8:	18000015 	stw	zero,0(r3)
   842dc:	18000115 	stw	zero,4(r3)
   842e0:	18000215 	stw	zero,8(r3)
   842e4:	1940030d 	sth	r5,12(r3)
   842e8:	1a40038d 	sth	r9,14(r3)
   842ec:	18000415 	stw	zero,16(r3)
   842f0:	18000515 	stw	zero,20(r3)
   842f4:	18000615 	stw	zero,24(r3)
   842f8:	18c00715 	stw	r3,28(r3)
   842fc:	1a000815 	stw	r8,32(r3)
   84300:	19c00915 	stw	r7,36(r3)
   84304:	19800a15 	stw	r6,40(r3)
   84308:	19000b15 	stw	r4,44(r3)
   8430c:	00c00484 	movi	r3,18
   84310:	10c0030d 	sth	r3,12(r2)
   84314:	00c00084 	movi	r3,2
   84318:	10000015 	stw	zero,0(r2)
   8431c:	10000115 	stw	zero,4(r2)
   84320:	10000215 	stw	zero,8(r2)
   84324:	10c0038d 	sth	r3,14(r2)
   84328:	10000415 	stw	zero,16(r2)
   8432c:	10000515 	stw	zero,20(r2)
   84330:	10000615 	stw	zero,24(r2)
   84334:	10800715 	stw	r2,28(r2)
   84338:	12000815 	stw	r8,32(r2)
   8433c:	11c00915 	stw	r7,36(r2)
   84340:	11800a15 	stw	r6,40(r2)
   84344:	11000b15 	stw	r4,44(r2)
   84348:	f800283a 	ret

0008434c <__sfp>:
   8434c:	defffc04 	addi	sp,sp,-16
   84350:	00800274 	movhi	r2,9
   84354:	109ae104 	addi	r2,r2,27524
   84358:	dc400115 	stw	r17,4(sp)
   8435c:	14400017 	ldw	r17,0(r2)
   84360:	dc800215 	stw	r18,8(sp)
   84364:	dfc00315 	stw	ra,12(sp)
   84368:	88800e17 	ldw	r2,56(r17)
   8436c:	dc000015 	stw	r16,0(sp)
   84370:	2025883a 	mov	r18,r4
   84374:	10002826 	beq	r2,zero,84418 <__sfp+0xcc>
   84378:	8c40b804 	addi	r17,r17,736
   8437c:	043fffc4 	movi	r16,-1
   84380:	89400117 	ldw	r5,4(r17)
   84384:	88800217 	ldw	r2,8(r17)
   84388:	297fffc4 	addi	r5,r5,-1
   8438c:	28000a16 	blt	r5,zero,843b8 <__sfp+0x6c>
   84390:	10c0030f 	ldh	r3,12(r2)
   84394:	18000c26 	beq	r3,zero,843c8 <__sfp+0x7c>
   84398:	10c01a04 	addi	r3,r2,104
   8439c:	00000206 	br	843a8 <__sfp+0x5c>
   843a0:	19bfe90f 	ldh	r6,-92(r3)
   843a4:	30000826 	beq	r6,zero,843c8 <__sfp+0x7c>
   843a8:	297fffc4 	addi	r5,r5,-1
   843ac:	18bffd04 	addi	r2,r3,-12
   843b0:	18c01704 	addi	r3,r3,92
   843b4:	2c3ffa1e 	bne	r5,r16,843a0 <__alt_data_end+0xfff843a0>
   843b8:	88800017 	ldw	r2,0(r17)
   843bc:	10001926 	beq	r2,zero,84424 <__sfp+0xd8>
   843c0:	1023883a 	mov	r17,r2
   843c4:	003fee06 	br	84380 <__alt_data_end+0xfff84380>
   843c8:	00ffffc4 	movi	r3,-1
   843cc:	10c0038d 	sth	r3,14(r2)
   843d0:	00c00044 	movi	r3,1
   843d4:	10c0030d 	sth	r3,12(r2)
   843d8:	10000015 	stw	zero,0(r2)
   843dc:	10000215 	stw	zero,8(r2)
   843e0:	10000115 	stw	zero,4(r2)
   843e4:	10000415 	stw	zero,16(r2)
   843e8:	10000515 	stw	zero,20(r2)
   843ec:	10000615 	stw	zero,24(r2)
   843f0:	10000c15 	stw	zero,48(r2)
   843f4:	10000d15 	stw	zero,52(r2)
   843f8:	10001115 	stw	zero,68(r2)
   843fc:	10001215 	stw	zero,72(r2)
   84400:	dfc00317 	ldw	ra,12(sp)
   84404:	dc800217 	ldw	r18,8(sp)
   84408:	dc400117 	ldw	r17,4(sp)
   8440c:	dc000017 	ldw	r16,0(sp)
   84410:	dec00404 	addi	sp,sp,16
   84414:	f800283a 	ret
   84418:	8809883a 	mov	r4,r17
   8441c:	00842400 	call	84240 <__sinit>
   84420:	003fd506 	br	84378 <__alt_data_end+0xfff84378>
   84424:	9009883a 	mov	r4,r18
   84428:	01400104 	movi	r5,4
   8442c:	00841b80 	call	841b8 <__sfmoreglue>
   84430:	88800015 	stw	r2,0(r17)
   84434:	103fe21e 	bne	r2,zero,843c0 <__alt_data_end+0xfff843c0>
   84438:	00800304 	movi	r2,12
   8443c:	90800015 	stw	r2,0(r18)
   84440:	0005883a 	mov	r2,zero
   84444:	003fee06 	br	84400 <__alt_data_end+0xfff84400>

00084448 <__sfp_lock_acquire>:
   84448:	f800283a 	ret

0008444c <__sfp_lock_release>:
   8444c:	f800283a 	ret

00084450 <__sinit_lock_acquire>:
   84450:	f800283a 	ret

00084454 <__sinit_lock_release>:
   84454:	f800283a 	ret

00084458 <__fp_lock_all>:
   84458:	00800274 	movhi	r2,9
   8445c:	109ae204 	addi	r2,r2,27528
   84460:	11000017 	ldw	r4,0(r2)
   84464:	01400234 	movhi	r5,8
   84468:	29506704 	addi	r5,r5,16796
   8446c:	0084d781 	jmpi	84d78 <_fwalk>

00084470 <__fp_unlock_all>:
   84470:	00800274 	movhi	r2,9
   84474:	109ae204 	addi	r2,r2,27528
   84478:	11000017 	ldw	r4,0(r2)
   8447c:	01400234 	movhi	r5,8
   84480:	29506904 	addi	r5,r5,16804
   84484:	0084d781 	jmpi	84d78 <_fwalk>

00084488 <_malloc_trim_r>:
   84488:	defffb04 	addi	sp,sp,-20
   8448c:	dcc00315 	stw	r19,12(sp)
   84490:	dc800215 	stw	r18,8(sp)
   84494:	dc400115 	stw	r17,4(sp)
   84498:	dc000015 	stw	r16,0(sp)
   8449c:	2827883a 	mov	r19,r5
   844a0:	dfc00415 	stw	ra,16(sp)
   844a4:	04400274 	movhi	r17,9
   844a8:	8c555a04 	addi	r17,r17,21864
   844ac:	2021883a 	mov	r16,r4
   844b0:	008a9f00 	call	8a9f0 <__malloc_lock>
   844b4:	88800217 	ldw	r2,8(r17)
   844b8:	14800117 	ldw	r18,4(r2)
   844bc:	00bfff04 	movi	r2,-4
   844c0:	90a4703a 	and	r18,r18,r2
   844c4:	9083fbc4 	addi	r2,r18,4079
   844c8:	14e7c83a 	sub	r19,r2,r19
   844cc:	9826d33a 	srli	r19,r19,12
   844d0:	0083ffc4 	movi	r2,4095
   844d4:	9cffffc4 	addi	r19,r19,-1
   844d8:	9826933a 	slli	r19,r19,12
   844dc:	14c0060e 	bge	r2,r19,844f8 <_malloc_trim_r+0x70>
   844e0:	8009883a 	mov	r4,r16
   844e4:	000b883a 	mov	r5,zero
   844e8:	00874300 	call	87430 <_sbrk_r>
   844ec:	88c00217 	ldw	r3,8(r17)
   844f0:	1c87883a 	add	r3,r3,r18
   844f4:	10c00a26 	beq	r2,r3,84520 <_malloc_trim_r+0x98>
   844f8:	8009883a 	mov	r4,r16
   844fc:	008ab040 	call	8ab04 <__malloc_unlock>
   84500:	0005883a 	mov	r2,zero
   84504:	dfc00417 	ldw	ra,16(sp)
   84508:	dcc00317 	ldw	r19,12(sp)
   8450c:	dc800217 	ldw	r18,8(sp)
   84510:	dc400117 	ldw	r17,4(sp)
   84514:	dc000017 	ldw	r16,0(sp)
   84518:	dec00504 	addi	sp,sp,20
   8451c:	f800283a 	ret
   84520:	8009883a 	mov	r4,r16
   84524:	04cbc83a 	sub	r5,zero,r19
   84528:	00874300 	call	87430 <_sbrk_r>
   8452c:	00ffffc4 	movi	r3,-1
   84530:	10c01326 	beq	r2,r3,84580 <_malloc_trim_r+0xf8>
   84534:	008002b4 	movhi	r2,10
   84538:	10a1ef04 	addi	r2,r2,-30788
   8453c:	11000017 	ldw	r4,0(r2)
   84540:	88c00217 	ldw	r3,8(r17)
   84544:	94e5c83a 	sub	r18,r18,r19
   84548:	94800054 	ori	r18,r18,1
   8454c:	24e7c83a 	sub	r19,r4,r19
   84550:	1c800115 	stw	r18,4(r3)
   84554:	8009883a 	mov	r4,r16
   84558:	14c00015 	stw	r19,0(r2)
   8455c:	008ab040 	call	8ab04 <__malloc_unlock>
   84560:	00800044 	movi	r2,1
   84564:	dfc00417 	ldw	ra,16(sp)
   84568:	dcc00317 	ldw	r19,12(sp)
   8456c:	dc800217 	ldw	r18,8(sp)
   84570:	dc400117 	ldw	r17,4(sp)
   84574:	dc000017 	ldw	r16,0(sp)
   84578:	dec00504 	addi	sp,sp,20
   8457c:	f800283a 	ret
   84580:	8009883a 	mov	r4,r16
   84584:	000b883a 	mov	r5,zero
   84588:	00874300 	call	87430 <_sbrk_r>
   8458c:	88c00217 	ldw	r3,8(r17)
   84590:	014003c4 	movi	r5,15
   84594:	10c9c83a 	sub	r4,r2,r3
   84598:	293fd70e 	bge	r5,r4,844f8 <__alt_data_end+0xfff844f8>
   8459c:	01400274 	movhi	r5,9
   845a0:	295ae404 	addi	r5,r5,27536
   845a4:	29400017 	ldw	r5,0(r5)
   845a8:	21000054 	ori	r4,r4,1
   845ac:	19000115 	stw	r4,4(r3)
   845b0:	1145c83a 	sub	r2,r2,r5
   845b4:	014002b4 	movhi	r5,10
   845b8:	2961ef04 	addi	r5,r5,-30788
   845bc:	28800015 	stw	r2,0(r5)
   845c0:	003fcd06 	br	844f8 <__alt_data_end+0xfff844f8>

000845c4 <_free_r>:
   845c4:	defffd04 	addi	sp,sp,-12
   845c8:	dc400115 	stw	r17,4(sp)
   845cc:	dc000015 	stw	r16,0(sp)
   845d0:	dfc00215 	stw	ra,8(sp)
   845d4:	2821883a 	mov	r16,r5
   845d8:	2023883a 	mov	r17,r4
   845dc:	28004b26 	beq	r5,zero,8470c <_free_r+0x148>
   845e0:	008a9f00 	call	8a9f0 <__malloc_lock>
   845e4:	823fff17 	ldw	r8,-4(r16)
   845e8:	00bfff84 	movi	r2,-2
   845ec:	81bffe04 	addi	r6,r16,-8
   845f0:	4084703a 	and	r2,r8,r2
   845f4:	3087883a 	add	r3,r6,r2
   845f8:	01400274 	movhi	r5,9
   845fc:	29555a04 	addi	r5,r5,21864
   84600:	1a400117 	ldw	r9,4(r3)
   84604:	29000217 	ldw	r4,8(r5)
   84608:	01ffff04 	movi	r7,-4
   8460c:	49ce703a 	and	r7,r9,r7
   84610:	20c06526 	beq	r4,r3,847a8 <_free_r+0x1e4>
   84614:	19c00115 	stw	r7,4(r3)
   84618:	4200004c 	andi	r8,r8,1
   8461c:	40003026 	beq	r8,zero,846e0 <_free_r+0x11c>
   84620:	0009883a 	mov	r4,zero
   84624:	19d1883a 	add	r8,r3,r7
   84628:	42000117 	ldw	r8,4(r8)
   8462c:	4200004c 	andi	r8,r8,1
   84630:	4000061e 	bne	r8,zero,8464c <_free_r+0x88>
   84634:	11c5883a 	add	r2,r2,r7
   84638:	19c00217 	ldw	r7,8(r3)
   8463c:	20004e26 	beq	r4,zero,84778 <_free_r+0x1b4>
   84640:	18c00317 	ldw	r3,12(r3)
   84644:	38c00315 	stw	r3,12(r7)
   84648:	19c00215 	stw	r7,8(r3)
   8464c:	11c00054 	ori	r7,r2,1
   84650:	3087883a 	add	r3,r6,r2
   84654:	31c00115 	stw	r7,4(r6)
   84658:	18800015 	stw	r2,0(r3)
   8465c:	20001a1e 	bne	r4,zero,846c8 <_free_r+0x104>
   84660:	00c07fc4 	movi	r3,511
   84664:	18802e2e 	bgeu	r3,r2,84720 <_free_r+0x15c>
   84668:	1006d27a 	srli	r3,r2,9
   8466c:	01000104 	movi	r4,4
   84670:	20c06636 	bltu	r4,r3,8480c <_free_r+0x248>
   84674:	1008d1ba 	srli	r4,r2,6
   84678:	21000e04 	addi	r4,r4,56
   8467c:	210f883a 	add	r7,r4,r4
   84680:	39cf883a 	add	r7,r7,r7
   84684:	39cf883a 	add	r7,r7,r7
   84688:	29cf883a 	add	r7,r5,r7
   8468c:	38c00217 	ldw	r3,8(r7)
   84690:	01400274 	movhi	r5,9
   84694:	29555a04 	addi	r5,r5,21864
   84698:	19c06126 	beq	r3,r7,84820 <_free_r+0x25c>
   8469c:	013fff04 	movi	r4,-4
   846a0:	19400117 	ldw	r5,4(r3)
   846a4:	290a703a 	and	r5,r5,r4
   846a8:	1140022e 	bgeu	r2,r5,846b4 <_free_r+0xf0>
   846ac:	18c00217 	ldw	r3,8(r3)
   846b0:	38fffb1e 	bne	r7,r3,846a0 <__alt_data_end+0xfff846a0>
   846b4:	18800317 	ldw	r2,12(r3)
   846b8:	30800315 	stw	r2,12(r6)
   846bc:	30c00215 	stw	r3,8(r6)
   846c0:	11800215 	stw	r6,8(r2)
   846c4:	19800315 	stw	r6,12(r3)
   846c8:	8809883a 	mov	r4,r17
   846cc:	dfc00217 	ldw	ra,8(sp)
   846d0:	dc400117 	ldw	r17,4(sp)
   846d4:	dc000017 	ldw	r16,0(sp)
   846d8:	dec00304 	addi	sp,sp,12
   846dc:	008ab041 	jmpi	8ab04 <__malloc_unlock>
   846e0:	813ffe17 	ldw	r4,-8(r16)
   846e4:	2a400204 	addi	r9,r5,8
   846e8:	310dc83a 	sub	r6,r6,r4
   846ec:	32000217 	ldw	r8,8(r6)
   846f0:	1105883a 	add	r2,r2,r4
   846f4:	42404326 	beq	r8,r9,84804 <_free_r+0x240>
   846f8:	32400317 	ldw	r9,12(r6)
   846fc:	0009883a 	mov	r4,zero
   84700:	42400315 	stw	r9,12(r8)
   84704:	4a000215 	stw	r8,8(r9)
   84708:	003fc606 	br	84624 <__alt_data_end+0xfff84624>
   8470c:	dfc00217 	ldw	ra,8(sp)
   84710:	dc400117 	ldw	r17,4(sp)
   84714:	dc000017 	ldw	r16,0(sp)
   84718:	dec00304 	addi	sp,sp,12
   8471c:	f800283a 	ret
   84720:	1004d0fa 	srli	r2,r2,3
   84724:	02000044 	movi	r8,1
   84728:	29c00117 	ldw	r7,4(r5)
   8472c:	1087883a 	add	r3,r2,r2
   84730:	18c7883a 	add	r3,r3,r3
   84734:	1005d0ba 	srai	r2,r2,2
   84738:	18c7883a 	add	r3,r3,r3
   8473c:	28c7883a 	add	r3,r5,r3
   84740:	19000217 	ldw	r4,8(r3)
   84744:	4084983a 	sll	r2,r8,r2
   84748:	30c00315 	stw	r3,12(r6)
   8474c:	31000215 	stw	r4,8(r6)
   84750:	11c4b03a 	or	r2,r2,r7
   84754:	21800315 	stw	r6,12(r4)
   84758:	8809883a 	mov	r4,r17
   8475c:	28800115 	stw	r2,4(r5)
   84760:	19800215 	stw	r6,8(r3)
   84764:	dfc00217 	ldw	ra,8(sp)
   84768:	dc400117 	ldw	r17,4(sp)
   8476c:	dc000017 	ldw	r16,0(sp)
   84770:	dec00304 	addi	sp,sp,12
   84774:	008ab041 	jmpi	8ab04 <__malloc_unlock>
   84778:	02000274 	movhi	r8,9
   8477c:	42155c04 	addi	r8,r8,21872
   84780:	3a3faf1e 	bne	r7,r8,84640 <__alt_data_end+0xfff84640>
   84784:	29800515 	stw	r6,20(r5)
   84788:	29800415 	stw	r6,16(r5)
   8478c:	11000054 	ori	r4,r2,1
   84790:	3087883a 	add	r3,r6,r2
   84794:	31c00315 	stw	r7,12(r6)
   84798:	31c00215 	stw	r7,8(r6)
   8479c:	31000115 	stw	r4,4(r6)
   847a0:	18800015 	stw	r2,0(r3)
   847a4:	003fc806 	br	846c8 <__alt_data_end+0xfff846c8>
   847a8:	4200004c 	andi	r8,r8,1
   847ac:	3885883a 	add	r2,r7,r2
   847b0:	4000071e 	bne	r8,zero,847d0 <_free_r+0x20c>
   847b4:	81fffe17 	ldw	r7,-8(r16)
   847b8:	31cdc83a 	sub	r6,r6,r7
   847bc:	30c00317 	ldw	r3,12(r6)
   847c0:	31000217 	ldw	r4,8(r6)
   847c4:	11c5883a 	add	r2,r2,r7
   847c8:	20c00315 	stw	r3,12(r4)
   847cc:	19000215 	stw	r4,8(r3)
   847d0:	00c00274 	movhi	r3,9
   847d4:	18dae504 	addi	r3,r3,27540
   847d8:	18c00017 	ldw	r3,0(r3)
   847dc:	11000054 	ori	r4,r2,1
   847e0:	31000115 	stw	r4,4(r6)
   847e4:	29800215 	stw	r6,8(r5)
   847e8:	10ffb736 	bltu	r2,r3,846c8 <__alt_data_end+0xfff846c8>
   847ec:	008002b4 	movhi	r2,10
   847f0:	10a1ce04 	addi	r2,r2,-30920
   847f4:	11400017 	ldw	r5,0(r2)
   847f8:	8809883a 	mov	r4,r17
   847fc:	00844880 	call	84488 <_malloc_trim_r>
   84800:	003fb106 	br	846c8 <__alt_data_end+0xfff846c8>
   84804:	01000044 	movi	r4,1
   84808:	003f8606 	br	84624 <__alt_data_end+0xfff84624>
   8480c:	01000504 	movi	r4,20
   84810:	20c00b36 	bltu	r4,r3,84840 <_free_r+0x27c>
   84814:	190016c4 	addi	r4,r3,91
   84818:	210f883a 	add	r7,r4,r4
   8481c:	003f9806 	br	84680 <__alt_data_end+0xfff84680>
   84820:	2009d0ba 	srai	r4,r4,2
   84824:	00800044 	movi	r2,1
   84828:	29c00117 	ldw	r7,4(r5)
   8482c:	1108983a 	sll	r4,r2,r4
   84830:	1805883a 	mov	r2,r3
   84834:	21c8b03a 	or	r4,r4,r7
   84838:	29000115 	stw	r4,4(r5)
   8483c:	003f9e06 	br	846b8 <__alt_data_end+0xfff846b8>
   84840:	01001504 	movi	r4,84
   84844:	20c00436 	bltu	r4,r3,84858 <_free_r+0x294>
   84848:	1008d33a 	srli	r4,r2,12
   8484c:	21001b84 	addi	r4,r4,110
   84850:	210f883a 	add	r7,r4,r4
   84854:	003f8a06 	br	84680 <__alt_data_end+0xfff84680>
   84858:	01005504 	movi	r4,340
   8485c:	20c00436 	bltu	r4,r3,84870 <_free_r+0x2ac>
   84860:	1008d3fa 	srli	r4,r2,15
   84864:	21001dc4 	addi	r4,r4,119
   84868:	210f883a 	add	r7,r4,r4
   8486c:	003f8406 	br	84680 <__alt_data_end+0xfff84680>
   84870:	01015504 	movi	r4,1364
   84874:	20c00436 	bltu	r4,r3,84888 <_free_r+0x2c4>
   84878:	1008d4ba 	srli	r4,r2,18
   8487c:	21001f04 	addi	r4,r4,124
   84880:	210f883a 	add	r7,r4,r4
   84884:	003f7e06 	br	84680 <__alt_data_end+0xfff84680>
   84888:	01c03f04 	movi	r7,252
   8488c:	01001f84 	movi	r4,126
   84890:	003f7b06 	br	84680 <__alt_data_end+0xfff84680>

00084894 <__sfvwrite_r>:
   84894:	30800217 	ldw	r2,8(r6)
   84898:	defff504 	addi	sp,sp,-44
   8489c:	dd400615 	stw	r21,24(sp)
   848a0:	dd000515 	stw	r20,20(sp)
   848a4:	dc000115 	stw	r16,4(sp)
   848a8:	dfc00a15 	stw	ra,40(sp)
   848ac:	df000915 	stw	fp,36(sp)
   848b0:	ddc00815 	stw	r23,32(sp)
   848b4:	dd800715 	stw	r22,28(sp)
   848b8:	dcc00415 	stw	r19,16(sp)
   848bc:	dc800315 	stw	r18,12(sp)
   848c0:	dc400215 	stw	r17,8(sp)
   848c4:	3029883a 	mov	r20,r6
   848c8:	202b883a 	mov	r21,r4
   848cc:	2821883a 	mov	r16,r5
   848d0:	10002126 	beq	r2,zero,84958 <__sfvwrite_r+0xc4>
   848d4:	2880030b 	ldhu	r2,12(r5)
   848d8:	10c0020c 	andi	r3,r2,8
   848dc:	18ffffcc 	andi	r3,r3,65535
   848e0:	18e0001c 	xori	r3,r3,32768
   848e4:	18e00004 	addi	r3,r3,-32768
   848e8:	18002826 	beq	r3,zero,8498c <__sfvwrite_r+0xf8>
   848ec:	28c00417 	ldw	r3,16(r5)
   848f0:	18002626 	beq	r3,zero,8498c <__sfvwrite_r+0xf8>
   848f4:	10c0008c 	andi	r3,r2,2
   848f8:	18ffffcc 	andi	r3,r3,65535
   848fc:	18e0001c 	xori	r3,r3,32768
   84900:	18e00004 	addi	r3,r3,-32768
   84904:	a4400017 	ldw	r17,0(r20)
   84908:	18002b26 	beq	r3,zero,849b8 <__sfvwrite_r+0x124>
   8490c:	0027883a 	mov	r19,zero
   84910:	0025883a 	mov	r18,zero
   84914:	05810004 	movi	r22,1024
   84918:	980d883a 	mov	r6,r19
   8491c:	a809883a 	mov	r4,r21
   84920:	90004f26 	beq	r18,zero,84a60 <__sfvwrite_r+0x1cc>
   84924:	900f883a 	mov	r7,r18
   84928:	81400717 	ldw	r5,28(r16)
   8492c:	b480012e 	bgeu	r22,r18,84934 <__sfvwrite_r+0xa0>
   84930:	01c10004 	movi	r7,1024
   84934:	80800917 	ldw	r2,36(r16)
   84938:	103ee83a 	callr	r2
   8493c:	0080540e 	bge	zero,r2,84a90 <__sfvwrite_r+0x1fc>
   84940:	a0c00217 	ldw	r3,8(r20)
   84944:	98a7883a 	add	r19,r19,r2
   84948:	90a5c83a 	sub	r18,r18,r2
   8494c:	1885c83a 	sub	r2,r3,r2
   84950:	a0800215 	stw	r2,8(r20)
   84954:	103ff01e 	bne	r2,zero,84918 <__alt_data_end+0xfff84918>
   84958:	0005883a 	mov	r2,zero
   8495c:	dfc00a17 	ldw	ra,40(sp)
   84960:	df000917 	ldw	fp,36(sp)
   84964:	ddc00817 	ldw	r23,32(sp)
   84968:	dd800717 	ldw	r22,28(sp)
   8496c:	dd400617 	ldw	r21,24(sp)
   84970:	dd000517 	ldw	r20,20(sp)
   84974:	dcc00417 	ldw	r19,16(sp)
   84978:	dc800317 	ldw	r18,12(sp)
   8497c:	dc400217 	ldw	r17,8(sp)
   84980:	dc000117 	ldw	r16,4(sp)
   84984:	dec00b04 	addi	sp,sp,44
   84988:	f800283a 	ret
   8498c:	a809883a 	mov	r4,r21
   84990:	800b883a 	mov	r5,r16
   84994:	00825b80 	call	825b8 <__swsetup_r>
   84998:	1000f01e 	bne	r2,zero,84d5c <__sfvwrite_r+0x4c8>
   8499c:	8080030b 	ldhu	r2,12(r16)
   849a0:	a4400017 	ldw	r17,0(r20)
   849a4:	10c0008c 	andi	r3,r2,2
   849a8:	18ffffcc 	andi	r3,r3,65535
   849ac:	18e0001c 	xori	r3,r3,32768
   849b0:	18e00004 	addi	r3,r3,-32768
   849b4:	183fd51e 	bne	r3,zero,8490c <__alt_data_end+0xfff8490c>
   849b8:	10c0004c 	andi	r3,r2,1
   849bc:	002d883a 	mov	r22,zero
   849c0:	1800381e 	bne	r3,zero,84aa4 <__sfvwrite_r+0x210>
   849c4:	0025883a 	mov	r18,zero
   849c8:	90002126 	beq	r18,zero,84a50 <__sfvwrite_r+0x1bc>
   849cc:	10c0800c 	andi	r3,r2,512
   849d0:	18ffffcc 	andi	r3,r3,65535
   849d4:	18e0001c 	xori	r3,r3,32768
   849d8:	18e00004 	addi	r3,r3,-32768
   849dc:	84c00217 	ldw	r19,8(r16)
   849e0:	18006b26 	beq	r3,zero,84b90 <__sfvwrite_r+0x2fc>
   849e4:	980f883a 	mov	r7,r19
   849e8:	94c08636 	bltu	r18,r19,84c04 <__sfvwrite_r+0x370>
   849ec:	10c1200c 	andi	r3,r2,1152
   849f0:	18009f1e 	bne	r3,zero,84c70 <__sfvwrite_r+0x3dc>
   849f4:	81000017 	ldw	r4,0(r16)
   849f8:	982f883a 	mov	r23,r19
   849fc:	9039883a 	mov	fp,r18
   84a00:	9027883a 	mov	r19,r18
   84a04:	380d883a 	mov	r6,r7
   84a08:	b00b883a 	mov	r5,r22
   84a0c:	d9c00015 	stw	r7,0(sp)
   84a10:	0085b180 	call	85b18 <memmove>
   84a14:	d9c00017 	ldw	r7,0(sp)
   84a18:	81000217 	ldw	r4,8(r16)
   84a1c:	80800017 	ldw	r2,0(r16)
   84a20:	25efc83a 	sub	r23,r4,r23
   84a24:	11cf883a 	add	r7,r2,r7
   84a28:	85c00215 	stw	r23,8(r16)
   84a2c:	81c00015 	stw	r7,0(r16)
   84a30:	a0800217 	ldw	r2,8(r20)
   84a34:	b72d883a 	add	r22,r22,fp
   84a38:	9725c83a 	sub	r18,r18,fp
   84a3c:	14e7c83a 	sub	r19,r2,r19
   84a40:	a4c00215 	stw	r19,8(r20)
   84a44:	983fc426 	beq	r19,zero,84958 <__alt_data_end+0xfff84958>
   84a48:	8080030b 	ldhu	r2,12(r16)
   84a4c:	903fdf1e 	bne	r18,zero,849cc <__alt_data_end+0xfff849cc>
   84a50:	8d800017 	ldw	r22,0(r17)
   84a54:	8c800117 	ldw	r18,4(r17)
   84a58:	8c400204 	addi	r17,r17,8
   84a5c:	003fda06 	br	849c8 <__alt_data_end+0xfff849c8>
   84a60:	8cc00017 	ldw	r19,0(r17)
   84a64:	8c800117 	ldw	r18,4(r17)
   84a68:	8c400204 	addi	r17,r17,8
   84a6c:	003faa06 	br	84918 <__alt_data_end+0xfff84918>
   84a70:	0086dd00 	call	86dd0 <_realloc_r>
   84a74:	102f883a 	mov	r23,r2
   84a78:	10009f1e 	bne	r2,zero,84cf8 <__sfvwrite_r+0x464>
   84a7c:	81400417 	ldw	r5,16(r16)
   84a80:	a809883a 	mov	r4,r21
   84a84:	00845c40 	call	845c4 <_free_r>
   84a88:	00800304 	movi	r2,12
   84a8c:	a8800015 	stw	r2,0(r21)
   84a90:	80c0030b 	ldhu	r3,12(r16)
   84a94:	00bfffc4 	movi	r2,-1
   84a98:	18c01014 	ori	r3,r3,64
   84a9c:	80c0030d 	sth	r3,12(r16)
   84aa0:	003fae06 	br	8495c <__alt_data_end+0xfff8495c>
   84aa4:	0007883a 	mov	r3,zero
   84aa8:	0039883a 	mov	fp,zero
   84aac:	0025883a 	mov	r18,zero
   84ab0:	90001e26 	beq	r18,zero,84b2c <__sfvwrite_r+0x298>
   84ab4:	18006526 	beq	r3,zero,84c4c <__sfvwrite_r+0x3b8>
   84ab8:	b02f883a 	mov	r23,r22
   84abc:	9580012e 	bgeu	r18,r22,84ac4 <__sfvwrite_r+0x230>
   84ac0:	902f883a 	mov	r23,r18
   84ac4:	81000017 	ldw	r4,0(r16)
   84ac8:	80800417 	ldw	r2,16(r16)
   84acc:	84c00217 	ldw	r19,8(r16)
   84ad0:	81c00517 	ldw	r7,20(r16)
   84ad4:	1100022e 	bgeu	r2,r4,84ae0 <__sfvwrite_r+0x24c>
   84ad8:	99e7883a 	add	r19,r19,r7
   84adc:	9dc01816 	blt	r19,r23,84b40 <__sfvwrite_r+0x2ac>
   84ae0:	b9c03b16 	blt	r23,r7,84bd0 <__sfvwrite_r+0x33c>
   84ae4:	80800917 	ldw	r2,36(r16)
   84ae8:	81400717 	ldw	r5,28(r16)
   84aec:	a809883a 	mov	r4,r21
   84af0:	d8c00015 	stw	r3,0(sp)
   84af4:	e00d883a 	mov	r6,fp
   84af8:	103ee83a 	callr	r2
   84afc:	1027883a 	mov	r19,r2
   84b00:	d8c00017 	ldw	r3,0(sp)
   84b04:	00bfe20e 	bge	zero,r2,84a90 <__alt_data_end+0xfff84a90>
   84b08:	b4edc83a 	sub	r22,r22,r19
   84b0c:	b0001a26 	beq	r22,zero,84b78 <__sfvwrite_r+0x2e4>
   84b10:	a0800217 	ldw	r2,8(r20)
   84b14:	e4f9883a 	add	fp,fp,r19
   84b18:	94e5c83a 	sub	r18,r18,r19
   84b1c:	14e7c83a 	sub	r19,r2,r19
   84b20:	a4c00215 	stw	r19,8(r20)
   84b24:	983f8c26 	beq	r19,zero,84958 <__alt_data_end+0xfff84958>
   84b28:	903fe21e 	bne	r18,zero,84ab4 <__alt_data_end+0xfff84ab4>
   84b2c:	8f000017 	ldw	fp,0(r17)
   84b30:	8c800117 	ldw	r18,4(r17)
   84b34:	0007883a 	mov	r3,zero
   84b38:	8c400204 	addi	r17,r17,8
   84b3c:	003fdc06 	br	84ab0 <__alt_data_end+0xfff84ab0>
   84b40:	e00b883a 	mov	r5,fp
   84b44:	980d883a 	mov	r6,r19
   84b48:	d8c00015 	stw	r3,0(sp)
   84b4c:	0085b180 	call	85b18 <memmove>
   84b50:	80800017 	ldw	r2,0(r16)
   84b54:	a809883a 	mov	r4,r21
   84b58:	800b883a 	mov	r5,r16
   84b5c:	14c5883a 	add	r2,r2,r19
   84b60:	80800015 	stw	r2,0(r16)
   84b64:	0083f840 	call	83f84 <_fflush_r>
   84b68:	d8c00017 	ldw	r3,0(sp)
   84b6c:	103fc81e 	bne	r2,zero,84a90 <__alt_data_end+0xfff84a90>
   84b70:	b4edc83a 	sub	r22,r22,r19
   84b74:	b03fe61e 	bne	r22,zero,84b10 <__alt_data_end+0xfff84b10>
   84b78:	a809883a 	mov	r4,r21
   84b7c:	800b883a 	mov	r5,r16
   84b80:	0083f840 	call	83f84 <_fflush_r>
   84b84:	103fc21e 	bne	r2,zero,84a90 <__alt_data_end+0xfff84a90>
   84b88:	0007883a 	mov	r3,zero
   84b8c:	003fe006 	br	84b10 <__alt_data_end+0xfff84b10>
   84b90:	81000017 	ldw	r4,0(r16)
   84b94:	80800417 	ldw	r2,16(r16)
   84b98:	1100022e 	bgeu	r2,r4,84ba4 <__sfvwrite_r+0x310>
   84b9c:	9839883a 	mov	fp,r19
   84ba0:	9c806036 	bltu	r19,r18,84d24 <__sfvwrite_r+0x490>
   84ba4:	81c00517 	ldw	r7,20(r16)
   84ba8:	91c01c36 	bltu	r18,r7,84c1c <__sfvwrite_r+0x388>
   84bac:	80800917 	ldw	r2,36(r16)
   84bb0:	81400717 	ldw	r5,28(r16)
   84bb4:	a809883a 	mov	r4,r21
   84bb8:	b00d883a 	mov	r6,r22
   84bbc:	103ee83a 	callr	r2
   84bc0:	1027883a 	mov	r19,r2
   84bc4:	00bfb20e 	bge	zero,r2,84a90 <__alt_data_end+0xfff84a90>
   84bc8:	1039883a 	mov	fp,r2
   84bcc:	003f9806 	br	84a30 <__alt_data_end+0xfff84a30>
   84bd0:	b80d883a 	mov	r6,r23
   84bd4:	e00b883a 	mov	r5,fp
   84bd8:	d8c00015 	stw	r3,0(sp)
   84bdc:	0085b180 	call	85b18 <memmove>
   84be0:	80800217 	ldw	r2,8(r16)
   84be4:	81000017 	ldw	r4,0(r16)
   84be8:	b827883a 	mov	r19,r23
   84bec:	15c5c83a 	sub	r2,r2,r23
   84bf0:	25ef883a 	add	r23,r4,r23
   84bf4:	80800215 	stw	r2,8(r16)
   84bf8:	85c00015 	stw	r23,0(r16)
   84bfc:	d8c00017 	ldw	r3,0(sp)
   84c00:	003fc106 	br	84b08 <__alt_data_end+0xfff84b08>
   84c04:	81000017 	ldw	r4,0(r16)
   84c08:	902f883a 	mov	r23,r18
   84c0c:	9039883a 	mov	fp,r18
   84c10:	9027883a 	mov	r19,r18
   84c14:	900f883a 	mov	r7,r18
   84c18:	003f7a06 	br	84a04 <__alt_data_end+0xfff84a04>
   84c1c:	b00b883a 	mov	r5,r22
   84c20:	900d883a 	mov	r6,r18
   84c24:	0085b180 	call	85b18 <memmove>
   84c28:	80c00217 	ldw	r3,8(r16)
   84c2c:	80800017 	ldw	r2,0(r16)
   84c30:	9027883a 	mov	r19,r18
   84c34:	1c87c83a 	sub	r3,r3,r18
   84c38:	1485883a 	add	r2,r2,r18
   84c3c:	80c00215 	stw	r3,8(r16)
   84c40:	80800015 	stw	r2,0(r16)
   84c44:	9039883a 	mov	fp,r18
   84c48:	003f7906 	br	84a30 <__alt_data_end+0xfff84a30>
   84c4c:	e009883a 	mov	r4,fp
   84c50:	01400284 	movi	r5,10
   84c54:	900d883a 	mov	r6,r18
   84c58:	00858e00 	call	858e0 <memchr>
   84c5c:	10003c26 	beq	r2,zero,84d50 <__sfvwrite_r+0x4bc>
   84c60:	15800044 	addi	r22,r2,1
   84c64:	b72dc83a 	sub	r22,r22,fp
   84c68:	00c00044 	movi	r3,1
   84c6c:	003f9206 	br	84ab8 <__alt_data_end+0xfff84ab8>
   84c70:	81000517 	ldw	r4,20(r16)
   84c74:	81400417 	ldw	r5,16(r16)
   84c78:	80c00017 	ldw	r3,0(r16)
   84c7c:	210d883a 	add	r6,r4,r4
   84c80:	3109883a 	add	r4,r6,r4
   84c84:	2026d7fa 	srli	r19,r4,31
   84c88:	1979c83a 	sub	fp,r3,r5
   84c8c:	e1800044 	addi	r6,fp,1
   84c90:	9909883a 	add	r4,r19,r4
   84c94:	2027d07a 	srai	r19,r4,1
   84c98:	3489883a 	add	r4,r6,r18
   84c9c:	980d883a 	mov	r6,r19
   84ca0:	9900022e 	bgeu	r19,r4,84cac <__sfvwrite_r+0x418>
   84ca4:	2027883a 	mov	r19,r4
   84ca8:	200d883a 	mov	r6,r4
   84cac:	1081000c 	andi	r2,r2,1024
   84cb0:	10bfffcc 	andi	r2,r2,65535
   84cb4:	10a0001c 	xori	r2,r2,32768
   84cb8:	10a00004 	addi	r2,r2,-32768
   84cbc:	a809883a 	mov	r4,r21
   84cc0:	103f6b26 	beq	r2,zero,84a70 <__alt_data_end+0xfff84a70>
   84cc4:	300b883a 	mov	r5,r6
   84cc8:	008515c0 	call	8515c <_malloc_r>
   84ccc:	102f883a 	mov	r23,r2
   84cd0:	103f6d26 	beq	r2,zero,84a88 <__alt_data_end+0xfff84a88>
   84cd4:	81400417 	ldw	r5,16(r16)
   84cd8:	1009883a 	mov	r4,r2
   84cdc:	e00d883a 	mov	r6,fp
   84ce0:	00859d80 	call	859d8 <memcpy>
   84ce4:	8080030b 	ldhu	r2,12(r16)
   84ce8:	00fedfc4 	movi	r3,-1153
   84cec:	10c4703a 	and	r2,r2,r3
   84cf0:	10802014 	ori	r2,r2,128
   84cf4:	8080030d 	sth	r2,12(r16)
   84cf8:	bf09883a 	add	r4,r23,fp
   84cfc:	9f07c83a 	sub	r3,r19,fp
   84d00:	85c00415 	stw	r23,16(r16)
   84d04:	84c00515 	stw	r19,20(r16)
   84d08:	81000015 	stw	r4,0(r16)
   84d0c:	902f883a 	mov	r23,r18
   84d10:	80c00215 	stw	r3,8(r16)
   84d14:	9039883a 	mov	fp,r18
   84d18:	9027883a 	mov	r19,r18
   84d1c:	900f883a 	mov	r7,r18
   84d20:	003f3806 	br	84a04 <__alt_data_end+0xfff84a04>
   84d24:	b00b883a 	mov	r5,r22
   84d28:	980d883a 	mov	r6,r19
   84d2c:	0085b180 	call	85b18 <memmove>
   84d30:	80800017 	ldw	r2,0(r16)
   84d34:	a809883a 	mov	r4,r21
   84d38:	800b883a 	mov	r5,r16
   84d3c:	14c5883a 	add	r2,r2,r19
   84d40:	80800015 	stw	r2,0(r16)
   84d44:	0083f840 	call	83f84 <_fflush_r>
   84d48:	103f3926 	beq	r2,zero,84a30 <__alt_data_end+0xfff84a30>
   84d4c:	003f5006 	br	84a90 <__alt_data_end+0xfff84a90>
   84d50:	95800044 	addi	r22,r18,1
   84d54:	00c00044 	movi	r3,1
   84d58:	003f5706 	br	84ab8 <__alt_data_end+0xfff84ab8>
   84d5c:	80c0030b 	ldhu	r3,12(r16)
   84d60:	00bfffc4 	movi	r2,-1
   84d64:	18c01014 	ori	r3,r3,64
   84d68:	80c0030d 	sth	r3,12(r16)
   84d6c:	00c00244 	movi	r3,9
   84d70:	a8c00015 	stw	r3,0(r21)
   84d74:	003ef906 	br	8495c <__alt_data_end+0xfff8495c>

00084d78 <_fwalk>:
   84d78:	defff904 	addi	sp,sp,-28
   84d7c:	dcc00315 	stw	r19,12(sp)
   84d80:	24c0b804 	addi	r19,r4,736
   84d84:	dd400515 	stw	r21,20(sp)
   84d88:	dd000415 	stw	r20,16(sp)
   84d8c:	dfc00615 	stw	ra,24(sp)
   84d90:	dc800215 	stw	r18,8(sp)
   84d94:	dc400115 	stw	r17,4(sp)
   84d98:	dc000015 	stw	r16,0(sp)
   84d9c:	282b883a 	mov	r21,r5
   84da0:	0029883a 	mov	r20,zero
   84da4:	00844480 	call	84448 <__sfp_lock_acquire>
   84da8:	98001226 	beq	r19,zero,84df4 <_fwalk+0x7c>
   84dac:	04bfffc4 	movi	r18,-1
   84db0:	9c400117 	ldw	r17,4(r19)
   84db4:	9c000217 	ldw	r16,8(r19)
   84db8:	8c7fffc4 	addi	r17,r17,-1
   84dbc:	88000b16 	blt	r17,zero,84dec <_fwalk+0x74>
   84dc0:	84000304 	addi	r16,r16,12
   84dc4:	80c0000f 	ldh	r3,0(r16)
   84dc8:	8c7fffc4 	addi	r17,r17,-1
   84dcc:	813ffd04 	addi	r4,r16,-12
   84dd0:	18000426 	beq	r3,zero,84de4 <_fwalk+0x6c>
   84dd4:	80c0008f 	ldh	r3,2(r16)
   84dd8:	1c800226 	beq	r3,r18,84de4 <_fwalk+0x6c>
   84ddc:	a83ee83a 	callr	r21
   84de0:	a0a8b03a 	or	r20,r20,r2
   84de4:	84001704 	addi	r16,r16,92
   84de8:	8cbff61e 	bne	r17,r18,84dc4 <__alt_data_end+0xfff84dc4>
   84dec:	9cc00017 	ldw	r19,0(r19)
   84df0:	983fef1e 	bne	r19,zero,84db0 <__alt_data_end+0xfff84db0>
   84df4:	008444c0 	call	8444c <__sfp_lock_release>
   84df8:	a005883a 	mov	r2,r20
   84dfc:	dfc00617 	ldw	ra,24(sp)
   84e00:	dd400517 	ldw	r21,20(sp)
   84e04:	dd000417 	ldw	r20,16(sp)
   84e08:	dcc00317 	ldw	r19,12(sp)
   84e0c:	dc800217 	ldw	r18,8(sp)
   84e10:	dc400117 	ldw	r17,4(sp)
   84e14:	dc000017 	ldw	r16,0(sp)
   84e18:	dec00704 	addi	sp,sp,28
   84e1c:	f800283a 	ret

00084e20 <_fwalk_reent>:
   84e20:	defff804 	addi	sp,sp,-32
   84e24:	dcc00315 	stw	r19,12(sp)
   84e28:	24c0b804 	addi	r19,r4,736
   84e2c:	dd800615 	stw	r22,24(sp)
   84e30:	dd400515 	stw	r21,20(sp)
   84e34:	dd000415 	stw	r20,16(sp)
   84e38:	dfc00715 	stw	ra,28(sp)
   84e3c:	dc800215 	stw	r18,8(sp)
   84e40:	dc400115 	stw	r17,4(sp)
   84e44:	dc000015 	stw	r16,0(sp)
   84e48:	2029883a 	mov	r20,r4
   84e4c:	282b883a 	mov	r21,r5
   84e50:	002d883a 	mov	r22,zero
   84e54:	00844480 	call	84448 <__sfp_lock_acquire>
   84e58:	98001326 	beq	r19,zero,84ea8 <_fwalk_reent+0x88>
   84e5c:	04bfffc4 	movi	r18,-1
   84e60:	9c400117 	ldw	r17,4(r19)
   84e64:	9c000217 	ldw	r16,8(r19)
   84e68:	8c7fffc4 	addi	r17,r17,-1
   84e6c:	88000c16 	blt	r17,zero,84ea0 <_fwalk_reent+0x80>
   84e70:	84000304 	addi	r16,r16,12
   84e74:	80c0000f 	ldh	r3,0(r16)
   84e78:	8c7fffc4 	addi	r17,r17,-1
   84e7c:	817ffd04 	addi	r5,r16,-12
   84e80:	18000526 	beq	r3,zero,84e98 <_fwalk_reent+0x78>
   84e84:	80c0008f 	ldh	r3,2(r16)
   84e88:	a009883a 	mov	r4,r20
   84e8c:	1c800226 	beq	r3,r18,84e98 <_fwalk_reent+0x78>
   84e90:	a83ee83a 	callr	r21
   84e94:	b0acb03a 	or	r22,r22,r2
   84e98:	84001704 	addi	r16,r16,92
   84e9c:	8cbff51e 	bne	r17,r18,84e74 <__alt_data_end+0xfff84e74>
   84ea0:	9cc00017 	ldw	r19,0(r19)
   84ea4:	983fee1e 	bne	r19,zero,84e60 <__alt_data_end+0xfff84e60>
   84ea8:	008444c0 	call	8444c <__sfp_lock_release>
   84eac:	b005883a 	mov	r2,r22
   84eb0:	dfc00717 	ldw	ra,28(sp)
   84eb4:	dd800617 	ldw	r22,24(sp)
   84eb8:	dd400517 	ldw	r21,20(sp)
   84ebc:	dd000417 	ldw	r20,16(sp)
   84ec0:	dcc00317 	ldw	r19,12(sp)
   84ec4:	dc800217 	ldw	r18,8(sp)
   84ec8:	dc400117 	ldw	r17,4(sp)
   84ecc:	dc000017 	ldw	r16,0(sp)
   84ed0:	dec00804 	addi	sp,sp,32
   84ed4:	f800283a 	ret

00084ed8 <_setlocale_r>:
   84ed8:	defffc04 	addi	sp,sp,-16
   84edc:	dc800215 	stw	r18,8(sp)
   84ee0:	dc400115 	stw	r17,4(sp)
   84ee4:	dc000015 	stw	r16,0(sp)
   84ee8:	dfc00315 	stw	ra,12(sp)
   84eec:	3021883a 	mov	r16,r6
   84ef0:	2023883a 	mov	r17,r4
   84ef4:	2825883a 	mov	r18,r5
   84ef8:	30001626 	beq	r6,zero,84f54 <_setlocale_r+0x7c>
   84efc:	3009883a 	mov	r4,r6
   84f00:	01400274 	movhi	r5,9
   84f04:	29536404 	addi	r5,r5,19856
   84f08:	00875d40 	call	875d4 <strcmp>
   84f0c:	10000a1e 	bne	r2,zero,84f38 <_setlocale_r+0x60>
   84f10:	8c800c15 	stw	r18,48(r17)
   84f14:	8c000d15 	stw	r16,52(r17)
   84f18:	00800274 	movhi	r2,9
   84f1c:	10936404 	addi	r2,r2,19856
   84f20:	dfc00317 	ldw	ra,12(sp)
   84f24:	dc800217 	ldw	r18,8(sp)
   84f28:	dc400117 	ldw	r17,4(sp)
   84f2c:	dc000017 	ldw	r16,0(sp)
   84f30:	dec00404 	addi	sp,sp,16
   84f34:	f800283a 	ret
   84f38:	8009883a 	mov	r4,r16
   84f3c:	01400274 	movhi	r5,9
   84f40:	29534f04 	addi	r5,r5,19772
   84f44:	00875d40 	call	875d4 <strcmp>
   84f48:	103ff126 	beq	r2,zero,84f10 <__alt_data_end+0xfff84f10>
   84f4c:	0005883a 	mov	r2,zero
   84f50:	003ff306 	br	84f20 <__alt_data_end+0xfff84f20>
   84f54:	00800274 	movhi	r2,9
   84f58:	10936404 	addi	r2,r2,19856
   84f5c:	dfc00317 	ldw	ra,12(sp)
   84f60:	dc800217 	ldw	r18,8(sp)
   84f64:	dc400117 	ldw	r17,4(sp)
   84f68:	dc000017 	ldw	r16,0(sp)
   84f6c:	dec00404 	addi	sp,sp,16
   84f70:	f800283a 	ret

00084f74 <__locale_charset>:
   84f74:	00800274 	movhi	r2,9
   84f78:	10936504 	addi	r2,r2,19860
   84f7c:	f800283a 	ret

00084f80 <_localeconv_r>:
   84f80:	00800274 	movhi	r2,9
   84f84:	10936904 	addi	r2,r2,19876
   84f88:	f800283a 	ret

00084f8c <setlocale>:
   84f8c:	00c00274 	movhi	r3,9
   84f90:	18dae204 	addi	r3,r3,27528
   84f94:	2005883a 	mov	r2,r4
   84f98:	19000017 	ldw	r4,0(r3)
   84f9c:	280d883a 	mov	r6,r5
   84fa0:	100b883a 	mov	r5,r2
   84fa4:	0084ed81 	jmpi	84ed8 <_setlocale_r>

00084fa8 <localeconv>:
   84fa8:	00800274 	movhi	r2,9
   84fac:	10936904 	addi	r2,r2,19876
   84fb0:	f800283a 	ret

00084fb4 <__smakebuf_r>:
   84fb4:	2880030b 	ldhu	r2,12(r5)
   84fb8:	deffed04 	addi	sp,sp,-76
   84fbc:	dc401015 	stw	r17,64(sp)
   84fc0:	10c0008c 	andi	r3,r2,2
   84fc4:	18ffffcc 	andi	r3,r3,65535
   84fc8:	18e0001c 	xori	r3,r3,32768
   84fcc:	dc000f15 	stw	r16,60(sp)
   84fd0:	dfc01215 	stw	ra,72(sp)
   84fd4:	dc801115 	stw	r18,68(sp)
   84fd8:	18e00004 	addi	r3,r3,-32768
   84fdc:	2821883a 	mov	r16,r5
   84fe0:	2023883a 	mov	r17,r4
   84fe4:	1800381e 	bne	r3,zero,850c8 <__smakebuf_r+0x114>
   84fe8:	2940038f 	ldh	r5,14(r5)
   84fec:	28002d16 	blt	r5,zero,850a4 <__smakebuf_r+0xf0>
   84ff0:	d80d883a 	mov	r6,sp
   84ff4:	00879640 	call	87964 <_fstat_r>
   84ff8:	10002916 	blt	r2,zero,850a0 <__smakebuf_r+0xec>
   84ffc:	d8800117 	ldw	r2,4(sp)
   85000:	00e00014 	movui	r3,32768
   85004:	10bc000c 	andi	r2,r2,61440
   85008:	10c03c26 	beq	r2,r3,850fc <__smakebuf_r+0x148>
   8500c:	80c0030b 	ldhu	r3,12(r16)
   85010:	18c20014 	ori	r3,r3,2048
   85014:	80c0030d 	sth	r3,12(r16)
   85018:	00c80004 	movi	r3,8192
   8501c:	10c00c1e 	bne	r2,r3,85050 <__smakebuf_r+0x9c>
   85020:	8140038f 	ldh	r5,14(r16)
   85024:	8809883a 	mov	r4,r17
   85028:	00879cc0 	call	879cc <_isatty_r>
   8502c:	10000826 	beq	r2,zero,85050 <__smakebuf_r+0x9c>
   85030:	80c0030b 	ldhu	r3,12(r16)
   85034:	808010c4 	addi	r2,r16,67
   85038:	80800015 	stw	r2,0(r16)
   8503c:	18c00054 	ori	r3,r3,1
   85040:	80800415 	stw	r2,16(r16)
   85044:	00800044 	movi	r2,1
   85048:	80c0030d 	sth	r3,12(r16)
   8504c:	80800515 	stw	r2,20(r16)
   85050:	04810004 	movi	r18,1024
   85054:	8809883a 	mov	r4,r17
   85058:	900b883a 	mov	r5,r18
   8505c:	008515c0 	call	8515c <_malloc_r>
   85060:	10003026 	beq	r2,zero,85124 <__smakebuf_r+0x170>
   85064:	80c0030b 	ldhu	r3,12(r16)
   85068:	01000234 	movhi	r4,8
   8506c:	21106b04 	addi	r4,r4,16812
   85070:	89000f15 	stw	r4,60(r17)
   85074:	18c02014 	ori	r3,r3,128
   85078:	80c0030d 	sth	r3,12(r16)
   8507c:	80800015 	stw	r2,0(r16)
   85080:	80800415 	stw	r2,16(r16)
   85084:	84800515 	stw	r18,20(r16)
   85088:	dfc01217 	ldw	ra,72(sp)
   8508c:	dc801117 	ldw	r18,68(sp)
   85090:	dc401017 	ldw	r17,64(sp)
   85094:	dc000f17 	ldw	r16,60(sp)
   85098:	dec01304 	addi	sp,sp,76
   8509c:	f800283a 	ret
   850a0:	8080030b 	ldhu	r2,12(r16)
   850a4:	10c0200c 	andi	r3,r2,128
   850a8:	18ffffcc 	andi	r3,r3,65535
   850ac:	18e0001c 	xori	r3,r3,32768
   850b0:	18e00004 	addi	r3,r3,-32768
   850b4:	18000f1e 	bne	r3,zero,850f4 <__smakebuf_r+0x140>
   850b8:	04810004 	movi	r18,1024
   850bc:	10820014 	ori	r2,r2,2048
   850c0:	8080030d 	sth	r2,12(r16)
   850c4:	003fe306 	br	85054 <__alt_data_end+0xfff85054>
   850c8:	288010c4 	addi	r2,r5,67
   850cc:	28800015 	stw	r2,0(r5)
   850d0:	28800415 	stw	r2,16(r5)
   850d4:	00800044 	movi	r2,1
   850d8:	28800515 	stw	r2,20(r5)
   850dc:	dfc01217 	ldw	ra,72(sp)
   850e0:	dc801117 	ldw	r18,68(sp)
   850e4:	dc401017 	ldw	r17,64(sp)
   850e8:	dc000f17 	ldw	r16,60(sp)
   850ec:	dec01304 	addi	sp,sp,76
   850f0:	f800283a 	ret
   850f4:	04801004 	movi	r18,64
   850f8:	003ff006 	br	850bc <__alt_data_end+0xfff850bc>
   850fc:	81000a17 	ldw	r4,40(r16)
   85100:	00c00234 	movhi	r3,8
   85104:	18dd5c04 	addi	r3,r3,30064
   85108:	20ffc01e 	bne	r4,r3,8500c <__alt_data_end+0xfff8500c>
   8510c:	8080030b 	ldhu	r2,12(r16)
   85110:	00c10004 	movi	r3,1024
   85114:	80c01315 	stw	r3,76(r16)
   85118:	10c4b03a 	or	r2,r2,r3
   8511c:	8080030d 	sth	r2,12(r16)
   85120:	003fcb06 	br	85050 <__alt_data_end+0xfff85050>
   85124:	8080030b 	ldhu	r2,12(r16)
   85128:	10c0800c 	andi	r3,r2,512
   8512c:	18ffffcc 	andi	r3,r3,65535
   85130:	18e0001c 	xori	r3,r3,32768
   85134:	18e00004 	addi	r3,r3,-32768
   85138:	183fd31e 	bne	r3,zero,85088 <__alt_data_end+0xfff85088>
   8513c:	10800094 	ori	r2,r2,2
   85140:	80c010c4 	addi	r3,r16,67
   85144:	8080030d 	sth	r2,12(r16)
   85148:	00800044 	movi	r2,1
   8514c:	80c00015 	stw	r3,0(r16)
   85150:	80c00415 	stw	r3,16(r16)
   85154:	80800515 	stw	r2,20(r16)
   85158:	003fcb06 	br	85088 <__alt_data_end+0xfff85088>

0008515c <_malloc_r>:
   8515c:	defff604 	addi	sp,sp,-40
   85160:	dc800215 	stw	r18,8(sp)
   85164:	dfc00915 	stw	ra,36(sp)
   85168:	df000815 	stw	fp,32(sp)
   8516c:	ddc00715 	stw	r23,28(sp)
   85170:	dd800615 	stw	r22,24(sp)
   85174:	dd400515 	stw	r21,20(sp)
   85178:	dd000415 	stw	r20,16(sp)
   8517c:	dcc00315 	stw	r19,12(sp)
   85180:	dc400115 	stw	r17,4(sp)
   85184:	dc000015 	stw	r16,0(sp)
